LX51 LINKER/LOCATER V4.66.1.0                                                           01/17/2017  13:47:51  PAGE 1


LX51 LINKER/LOCATER V4.66.1.0, INVOKED BY:
C:\KEIL\C51\BIN\LX51.EXE STARTUP.obj, beep.obj, key.obj, lm567.obj, main.obj, power.obj, sync.obj, task.obj, usart.obj, 
>> interact.obj TO lock REMOVEUNUSED


CPU MODE:     8051 MODE
MEMORY MODEL: SMALL


INPUT MODULES INCLUDED:
  STARTUP.obj (?C_STARTUP)
         COMMENT TYPE 1: A51 / ASM51 Assembler
  beep.obj (BEEP)
         COMMENT TYPE 0: C51 V9.52.0.0
  key.obj (KEY)
         COMMENT TYPE 0: C51 V9.52.0.0
  lm567.obj (LM567)
         COMMENT TYPE 0: C51 V9.52.0.0
  main.obj (MAIN)
         COMMENT TYPE 0: C51 V9.52.0.0
  power.obj (POWER)
         COMMENT TYPE 0: C51 V9.52.0.0
  sync.obj (SYNC)
         COMMENT TYPE 0: C51 V9.52.0.0
  task.obj (TASK)
         COMMENT TYPE 0: C51 V9.52.0.0
  usart.obj (USART)
         COMMENT TYPE 0: C51 V9.52.0.0
  interact.obj (INTERACT)
         COMMENT TYPE 0: C51 V9.52.0.0
  C:\KEIL\C51\LIB\C51S.LIB (?C_INIT)
         COMMENT TYPE 1: A51 / ASM51 Assembler
  C:\KEIL\C51\LIB\C51S.LIB (?C?COPY)
         COMMENT TYPE 1: A51 / ASM51 Assembler
  C:\KEIL\C51\LIB\C51S.LIB (?C?CLDPTR)
         COMMENT TYPE 1: A51 / ASM51 Assembler
  C:\KEIL\C51\LIB\C51S.LIB (?C?CLDOPTR)
         COMMENT TYPE 1: A51 / ASM51 Assembler
  C:\KEIL\C51\LIB\C51S.LIB (?C?CSTOPTR)
         COMMENT TYPE 1: A51 / ASM51 Assembler
  C:\KEIL\C51\LIB\C51S.LIB (?C?IMUL)
         COMMENT TYPE 1: A51 / ASM51 Assembler
  C:\KEIL\C51\LIB\C51S.LIB (?C?UIDIV)
         COMMENT TYPE 1: A51 / ASM51 Assembler
  C:\KEIL\C51\LIB\C51S.LIB (?C?IILDX)
         COMMENT TYPE 1: A51 / ASM51 Assembler
  C:\KEIL\C51\LIB\C51S.LIB (?C?SLCMP)
         COMMENT TYPE 1: A51 / ASM51 Assembler
  C:\KEIL\C51\LIB\C51S.LIB (?C?ICALL)
         COMMENT TYPE 1: A51 / ASM51 Assembler
  C:\KEIL\C51\LIB\C51S.LIB (?C?STRCPY)
         COMMENT TYPE 1: A51 / ASM51 Assembler
  C:\KEIL\C51\LIB\C51S.LIB (STRLEN)
         COMMENT TYPE 1: A51 / ASM51 Assembler
  C:\KEIL\C51\LIB\C51S.LIB (STRCHR)
         COMMENT TYPE 1: A51 / ASM51 Assembler
  C:\KEIL\C51\LIB\C51S.LIB (?C?MEMCMP)
         COMMENT TYPE 1: A51 / ASM51 Assembler
  C:\KEIL\C51\LIB\C51S.LIB (?C?MEMSET)
         COMMENT TYPE 1: A51 / ASM51 Assembler


ACTIVE MEMORY CLASSES OF MODULE:  lock (?C_STARTUP)

BASE        START       END         USED      MEMORY CLASS
==========================================================
LX51 LINKER/LOCATER V4.66.1.0                                                         01/17/2017  13:47:51  PAGE 2


C:000000H   C:000000H   C:00FFFFH   001801H   CODE
I:000000H   I:000000H   I:0000FFH   00000BH   IDATA
C:000000H   C:000000H   C:00FFFFH   000020H   CONST
I:000000H   I:000000H   I:00007FH   000035H   DATA
I:000020H.0 I:000020H.0 I:00002FH.7 000000H.4 BIT
X:000000H   X:000000H   X:00FFFFH   0000F3H   XDATA


MEMORY MAP OF MODULE:  lock (?C_STARTUP)


START     STOP      LENGTH    ALIGN  RELOC    MEMORY CLASS   SEGMENT NAME
=========================================================================

* * * * * * * * * * *   D A T A   M E M O R Y   * * * * * * * * * * * * *
000000H   000007H   000008H   ---    AT..     DATA           "REG BANK 0"
000008H   00000FH   000008H   ---    AT..     DATA           "REG BANK 1"
000010H   00001AH   00000BH   BYTE   UNIT     DATA           ?DT?POWER
00001BH   00001FH   000005H   BYTE   UNIT     DATA           ?DT?INTERACT
000020H.0 000020H.1 000000H.2 BIT    UNIT     BIT            ?BI?BEEP
000020H.2 000020H.2 000000H.1 BIT    UNIT     BIT            ?BI?KEY
000020H.3 000020H.3 000000H.1 BIT    UNIT     BIT            ?BI?USART
000020H.4 000020H   000000H.4 ---    ---      **GAP**
000021H   000029H   000009H   BYTE   UNIT     DATA           ?DT?KEY
00002AH   000032H   000009H   BYTE   UNIT     DATA           _DATA_GROUP_
000033H   000034H   000002H   BYTE   UNIT     DATA           ?DT?BEEP
000035H   000035H   000001H   BYTE   UNIT     DATA           ?DT?LM567
000036H   00003AH   000005H   BYTE   UNIT     IDATA          ?ID?KEY
00003BH   00003EH   000004H   BYTE   UNIT     IDATA          ?ID?BEEP
00003FH   00003FH   000001H   BYTE   UNIT     IDATA          ?ID?SYNC
000040H   000040H   000001H   BYTE   UNIT     IDATA          ?STACK

* * * * * * * * * * *   C O D E   M E M O R Y   * * * * * * * * * * * * *
000000H   000002H   000003H   ---    OFFS..   CODE           ?CO??C_STARTUP?0
000003H   00000AH   000008H   BYTE   UNIT     CODE           ?PR?SLEEP_COUNT_DOWN_CALL_BACK?KEY
00000BH   00000DH   000003H   BYTE   OFFS..   CODE           ?SYNC?0000B
00000EH   000010H   000003H   BYTE   UNIT     CODE           ?PR?TRACE_MUTE_COUNT_DOWN_CALLBACK?KEY
000011H   000012H   000002H   ---    ---      **GAP**
000013H   000015H   000003H   BYTE   OFFS..   CODE           ?POWER?00013
000016H   000022H   00000DH   BYTE   UNIT     CODE           ?PR?RELOAD_SCHEDULE_SLEEP_COUNT_DOWN?KEY
000023H   000025H   000003H   BYTE   OFFS..   CODE           ?LM567?00023
000026H   00003AH   000015H   BYTE   UNIT     CODE           ?PR?LED_IO_INIT?KEY
00003BH   00003DH   000003H   BYTE   OFFS..   CODE           ?BEEP?0003B
00003EH   0004F3H   0004B6H   BYTE   UNIT     CODE           ?C?LIB_CODE
0004F4H   000885H   000392H   BYTE   UNIT     CODE           ?PR?_UART_DISPATCH_CMD?LM567
000886H   000A06H   000181H   BYTE   UNIT     CODE           ?PR?MAIN?MAIN
000A07H   000B04H   0000FEH   BYTE   UNIT     CODE           ?CO?LM567
000B05H   000BA1H   00009DH   BYTE   UNIT     CODE           ?PR?PCA_ISR?BEEP
000BA2H   000C2DH   00008CH   BYTE   UNIT     CODE           ?C_C51STARTUP
000C2EH   000CA9H   00007CH   BYTE   UNIT     CODE           ?PR?KEY_SCAN_TASK?INTERACT
000CAAH   000D23H   00007AH   BYTE   UNIT     CODE           ?PR?UART1_INT?LM567
000D24H   000D9CH   000079H   BYTE   UNIT     CODE           ?PR?COUNT_DOWN_INIT_ALL_TASK?KEY
000D9DH   000E0FH   000073H   BYTE   UNIT     CODE           ?C_INITSEG
000E10H   000E7CH   00006DH   BYTE   UNIT     CODE           ?PR?_COUNT_DOWN_AT?KEY
000E7DH   000ED3H   000057H   BYTE   UNIT     CODE           ?PR?_USART_RX_BLOCK?USART
000ED4H   000F20H   00004DH   BYTE   UNIT     CODE           ?PR?COUNT_DOWN_AT_ALL_TASK?KEY
000F21H   000F6AH   00004AH   BYTE   UNIT     CODE           ?PR?UART_INIT?LM567
000F6BH   000FABH   000041H   BYTE   UNIT     CODE           ?PR?_COUNT_DOWN_RELOAD?KEY
000FACH   000FEAH   00003FH   BYTE   UNIT     CODE           ?PR?READ_LOCK_STATUS?POWER
000FEBH   001028H   00003EH   BYTE   UNIT     CODE           ?PR?UART_WAKEUP_COUNT_DOWN_CALLBACK?KEY
001029H   001064H   00003CH   BYTE   UNIT     CODE           ?PR?TRACE_HALF_CYCLE_REACHED?KEY
001065H   00109FH   00003BH   BYTE   UNIT     CODE           ?PR?HALF_CYCLE_REACHED?KEY
0010A0H   0010D8H   000039H   BYTE   UNIT     CODE           ?PR?_UART_CACHE_RESPONSE?LM567
0010D9H   00110BH   000033H   BYTE   UNIT     CODE           ?PR?RELOAD_ALTER_BEEP_COUNT_DOWN?KEY
00110CH   00113BH   000030H   BYTE   UNIT     CODE           ?PR?LOCK_COUNT_DOWN_CALLBACK?KEY
LX51 LINKER/LOCATER V4.66.1.0                                                         01/17/2017  13:47:51  PAGE 3


00113CH   001169H   00002EH   BYTE   UNIT     CODE           ?PR?_USART_INIT?USART
00116AH   001192H   000029H   BYTE   UNIT     CODE           ?PR?SPEAK_INIT_PARAMS?BEEP
001193H   0011BBH   000029H   BYTE   UNIT     CODE           ?PR?STATUS_LOCK_ON_DETECT?POWER
0011BCH   0011E4H   000029H   BYTE   UNIT     CODE           ?PR?STATUS_LOCK_OFF_DETECT?POWER
0011E5H   00120CH   000028H   BYTE   UNIT     CODE           ?PR?LED_CYCLE_BASED_ADJUST?KEY
00120DH   001234H   000028H   BYTE   UNIT     CODE           ?PR?LED_MODE_CHANGED?KEY
001235H   00125CH   000028H   BYTE   UNIT     CODE           ?PR?_SEND_AT_COMMAND?LM567
00125DH   001283H   000027H   BYTE   UNIT     CODE           ?PR?_TX1_WRITE2BUFF?LM567
001284H   0012AAH   000027H   BYTE   UNIT     CODE           ?PR?TM0_ISR?SYNC
0012ABH   0012CEH   000024H   BYTE   UNIT     CODE           ?PR?OPEN_ACK_LOCK_COUNT_DOWN_CALLLBACK?KEY
0012CFH   0012F1H   000023H   BYTE   UNIT     CODE           ?PR?UART_SEND_STATUS_NOW?LM567
0012F2H   001313H   000022H   BYTE   UNIT     CODE           ?PR?OPEN_COUNT_DOWN_CALLBACK?KEY
001314H   001334H   000021H   BYTE   UNIT     CODE           ?PR?POWER_IO_INIT?POWER
001335H   001355H   000021H   BYTE   UNIT     CODE           ?PR?ALTER_BEEP_PROTECT?POWER
001356H   001374H   00001FH   BYTE   UNIT     CODE           ?PR?GETADCRESULT?POWER
001375H   001390H   00001CH   BYTE   UNIT     CODE           ?PR?_COUNT_DOWN_INIT?KEY
001391H   0013ACH   00001CH   BYTE   UNIT     CODE           ?PR?KEY_TASK_DUTY?INTERACT
0013ADH   0013C8H   00001CH   BYTE   UNIT     CODE           ?PR?_STRCHR?STRCHR
0013C9H   0013E3H   00001BH   BYTE   UNIT     CODE           ?PR?USART_SHARE_TIMER2?USART
0013E4H   0013FCH   000019H   BYTE   UNIT     CODE           ?PR?SCHEDULE_HALF_CYCLE_REACHED?KEY
0013FDH   001415H   000019H   BYTE   UNIT     CODE           ?PR?UART_PROCESS_RECIEVED?LM567
001416H   00142DH   000018H   BYTE   UNIT     CODE           ?PR?UART_SEND_TEST_LOCK?LM567
00142EH   001445H   000018H   BYTE   UNIT     CODE           ?PR?UART_SEND_OPEN_SUCCESS?LM567
001446H   00145DH   000018H   BYTE   UNIT     CODE           ?PR?UART_SEND_OPEN_FAIL?LM567
00145EH   001475H   000018H   BYTE   UNIT     CODE           ?PR?UART_SEND_LOCK_BY_HAND_SUCCESS?LM567
001476H   00148DH   000018H   BYTE   UNIT     CODE           ?PR?UART_SEND_LOCK_BY_HAND_FAIL?LM567
00148EH   0014A5H   000018H   BYTE   UNIT     CODE           ?PR?UART_SEND_TEST_BEEP_SUCCESS?LM567
0014A6H   0014BDH   000018H   BYTE   UNIT     CODE           ?PR?UART_SEND_BEEP_SUCCESS?LM567
0014BEH   0014D5H   000018H   BYTE   UNIT     CODE           ?PR?UART_SEND_BEEP_STOP?LM567
0014D6H   0014EDH   000018H   BYTE   UNIT     CODE           ?PR?UART_SEND_TEST_ALARMPARA?LM567
0014EEH   001505H   000018H   BYTE   UNIT     CODE           ?PR?UART_SEND_ALARMPARA_SUCCESS?LM567
001506H   00151DH   000018H   BYTE   UNIT     CODE           ?PR?UART_SEND_ALARMPARA_FAIL?LM567
00151EH   001535H   000018H   BYTE   UNIT     CODE           ?PR?UART_SEND_SCHEDULE_CALLBACK?LM567
001536H   00154DH   000018H   BYTE   UNIT     CODE           ?PR?UART_SEND_STATUS_SCHEDULE_CALLBACK?LM567
00154EH   001565H   000018H   BYTE   UNIT     CODE           ?PR?UART_SEND_TEST_TRACE_CALLBACK?LM567
001566H   00157DH   000018H   BYTE   UNIT     CODE           ?PR?UART_SEND_DIAGNOSE_CALLBACK?LM567
00157EH   001595H   000018H   BYTE   UNIT     CODE           ?PR?INIT_SYSTEM_COMPONENT?MAIN
001596H   0015ACH   000017H   BYTE   UNIT     CODE           ?PR?RELOAD_OPEN_ACK_LOCK_COUNT_DOWN?KEY
0015ADH   0015C2H   000016H   BYTE   UNIT     CODE           ?PR?TRACE_BEEP_COUNT_DOWN_CALLBACK?KEY
0015C3H   0015D8H   000016H   BYTE   UNIT     CODE           ?PR?RELOAD_LOCK_COUNT_DOWN?KEY
0015D9H   0015EEH   000016H   BYTE   UNIT     CODE           ?PR?EXINT1?POWER
0015EFH   001603H   000015H   BYTE   UNIT     CODE           ?PR?RELOAD_OPEN_COUNT_DOWN?KEY
001604H   001618H   000015H   BYTE   UNIT     CODE           ?PR?CYCLE_BASED_CONTROL?KEY
001619H   00162DH   000015H   BYTE   UNIT     CODE           ?PR?_USART_FINISH_RX?USART
00162EH   001642H   000015H   BYTE   UNIT     CODE           ?PR?_STRLEN?STRLEN
001643H   001656H   000014H   BYTE   UNIT     CODE           ?PR?OPEN_HALF_CYCLE_REACHED?KEY
001657H   00166AH   000014H   BYTE   UNIT     CODE           ?PR?STATUS_LOCK_DETECT?POWER
00166BH   00167EH   000014H   BYTE   UNIT     CODE           ?PR?INIT_SYSTEM_TICK?SYNC
00167FH   001691H   000013H   BYTE   UNIT     CODE           ?PR?ALTER_BEEP_COUNT_DOWN_CALLBACK?KEY
001692H   0016A3H   000012H   BYTE   UNIT     CODE           ?PR?SPEAK_ALTER_PCA_INIT?BEEP
0016A4H   0016B5H   000012H   BYTE   UNIT     CODE           ?PR?LOCK_HALF_CYCLE_REACHED?KEY
0016B6H   0016C7H   000012H   BYTE   UNIT     CODE           ?PR?LED_DISPLAY_STOP?KEY
0016C8H   0016D7H   000010H   BYTE   UNIT     CODE           ?PR?_COUNT_DOWN_CANCEL?KEY
0016D8H   0016E7H   000010H   BYTE   UNIT     CODE           ?PR?RELOAD_TRACE_MUTE_COUNT_DOWN?KEY
0016E8H   0016F6H   00000FH   BYTE   UNIT     CODE           ?PR?RELOAD_OPEN_BEEP_COUNT_DOWN?KEY
0016F7H   001705H   00000FH   BYTE   UNIT     CODE           ?PR?RELOAD_LOCK_BEEP_COUNT_DOWN?KEY
001706H   001714H   00000FH   BYTE   UNIT     CODE           ?PR?RELOAD_TRACE_BEEP_COUNT_DOWN?KEY
001715H   001723H   00000FH   BYTE   UNIT     CODE           ?PR?DELAY1000MS?MAIN
001724H   001731H   00000EH   BYTE   UNIT     CODE           ?PR?RELOAD_UART_WAKEUP_COUNT_DOWN?KEY
001732H   00173DH   00000CH   BYTE   UNIT     CODE           ?PR?RELOAD_OPEN_ACK_COUNT_DOWN?KEY
00173EH   001749H   00000CH   BYTE   UNIT     CODE           ?PR?RELOAD_SLEEP_COUNT_DOWN?KEY
00174AH   001755H   00000CH   BYTE   UNIT     CODE           ?PR?SCHEDULE_DRIVER_INIT?KEY
001756H   001761H   00000CH   BYTE   UNIT     CODE           ?PR?TRACE_DRIVER_INIT?KEY
001762H   00176DH   00000CH   BYTE   UNIT     CODE           ?PR?INIT_ADC?POWER
00176EH   001778H   00000BH   BYTE   UNIT     CODE           ?PR?INIT_LOCK_PARA?POWER
LX51 LINKER/LOCATER V4.66.1.0                                                         01/17/2017  13:47:51  PAGE 4


001779H   001782H   00000AH   BYTE   UNIT     CODE           ?PR?OPEN_ACK_COUNT_DOWN_CALLBACK?KEY
001783H   00178CH   00000AH   BYTE   UNIT     CODE           ?PR?INIT_SYNC_OBJECT?KEY
00178DH   001795H   000009H   BYTE   UNIT     CODE           ?PR?INIT_BEEP_IO?BEEP
001796H   00179EH   000009H   BYTE   UNIT     CODE           ?PR?LOCK_DRIVER_INIT?KEY
00179FH   0017A7H   000009H   BYTE   UNIT     CODE           ?PR?OPEN_DRIVER_INIT?KEY
0017A8H   0017B0H   000009H   BYTE   UNIT     CODE           ?PR?IO_KEYSCAN_G?INTERACT
0017B1H   0017B7H   000007H   BYTE   UNIT     CODE           ?PR?LED_DISPLAY_DISABLE?KEY
0017B8H   0017BEH   000007H   BYTE   UNIT     CODE           ?PR?CANCEL_OPEN_ACK_COUNT_DOWN?KEY
0017BFH   0017C5H   000007H   BYTE   UNIT     CODE           ?PR?CANCEL_OPEN_ACK_LOCK_COUNT_DOWN?KEY
0017C6H   0017CCH   000007H   BYTE   UNIT     CODE           ?PR?CANCLE_SLEEP_COUNT_DOWN?KEY
0017CDH   0017D3H   000007H   BYTE   UNIT     CODE           ?PR?CANCLE_LOCK_COUNT_DOWN?KEY
0017D4H   0017DAH   000007H   BYTE   UNIT     CODE           ?PR?CANCLE_OPEN_COUNT_DOWN?KEY
0017DBH   0017E1H   000007H   BYTE   UNIT     CODE           ?PR?CANCLE_ALTER_COUNT_DOWN?KEY
0017E2H   0017E7H   000006H   BYTE   UNIT     CODE           ?PR?OPEN_BEEP_COUNT_DOWN_CALLBACK?KEY
0017E8H   0017EDH   000006H   BYTE   UNIT     CODE           ?PR?LOCK_BEEP_COUNT_DOWN_CALLBACK?KEY
0017EEH   0017F3H   000006H   BYTE   UNIT     CODE           ?PR?RELOAD_CNT_FOR_BEEP?KEY
0017F4H   0017F9H   000006H   BYTE   UNIT     CODE           ?PR?INSTANT_EFFECTIVE_INIT?MAIN
0017FAH   0017FCH   000003H   BYTE   UNIT     CODE           ?PR?LED_DISPLAY_TASK?KEY
0017FDH   0017FFH   000003H   BYTE   UNIT     CODE           ?PR?LED_DISPLAY_OFF_DRIVER_INIT?KEY
001800H   001802H   000003H   BYTE   UNIT     CODE           ?PR?INIT_LOGIC_PARAMS?MAIN
001803H   001816H   000014H   BYTE   UNIT     CONST          ?CO?KEY
001817H   001822H   00000CH   BYTE   UNIT     CONST          ?CO?BEEP

* * * * * * * * * * *  X D A T A   M E M O R Y  * * * * * * * * * * * * *
000000H   0000A7H   0000A8H   BYTE   UNIT     XDATA          ?XD?LM567
0000A8H   0000E9H   000042H   BYTE   UNIT     XDATA          ?XD?KEY
0000EAH   0000EFH   000006H   BYTE   UNIT     XDATA          ?XD?USART
0000F0H   0000F1H   000002H   BYTE   UNIT     XDATA          ?XD?INTERACT
0000F2H   0000F2H   000001H   BYTE   UNIT     XDATA          ?XD?TASK

* * * * * * * * *   R E M O V E D     S E G M E N T S   * * * * * * * *
   *DEL*:           00000CH   BYTE   UNIT     CODE           ?PR?RELOAD_LOCK_SLEEP_COUNT_DOWN?KEY
   *DEL*:           00000CH   BYTE   UNIT     CODE           ?PR?RELOAD_OPEN_SLEEP_COUNT_DOWN?KEY
   *DEL*:           00000CH   BYTE   UNIT     CODE           ?PR?RELOAD_ALTER_SLEEP_COUNT_DOWN?KEY
   *DEL*:           000003H   BYTE   UNIT     CODE           ?PR?DISPLAY_STARTUP_INIT?KEY
   *DEL*:           000034H   BYTE   UNIT     CODE           ?PR?_TX_STR2BUFF?LM567
   *DEL*:           000004H   BYTE   UNIT     DATA           ?DT?_TX_STR2BUFF?LM567
   *DEL*:           000018H   BYTE   UNIT     CODE           ?PR?UART_SEND_TEST_SCHEDULE_CALLBACK?LM567
   *DEL*:           000018H   BYTE   UNIT     CODE           ?PR?UART_SEND_TRACE_CALLBACK?LM567
   *DEL*:           000018H   BYTE   UNIT     CODE           ?PR?UART_SEND_TRACE_FAIL_CALLBACK?LM567
   *DEL*:           00004BH   BYTE   UNIT     CODE           ?PR?_GETSTRING1?LM567
   *DEL*:           000004H   BYTE   UNIT     DATA           ?DT?_GETSTRING1?LM567
   *DEL*:           000013H   BYTE   UNIT     CODE           ?PR?_PRINTSTRING1?LM567
   *DEL*:           000009H   BYTE   UNIT     CODE           ?PR?SYNC_WITH_ALERT?SYNC



OVERLAY MAP OF MODULE:   lock (?C_STARTUP)


FUNCTION/MODULE                                BIT_GROUP   DATA_GROUP 
--> CALLED FUNCTION/MODULE                    START  STOP  START  STOP
======================================================================
?C_C51STARTUP                                 ----- -----  ----- -----
  +--> MAIN/MAIN
  +--> ?C_INITSEG

MAIN/MAIN                                     ----- -----  ----- -----
  +--> INSTANT_EFFECTIVE_INIT/MAIN
  +--> COUNT_DOWN_INIT_ALL_TASK/KEY
  +--> DELAY1000MS/MAIN
  +--> COUNT_DOWN_AT_ALL_TASK/KEY
  +--> KEY_TASK_DUTY/INTERACT
  +--> READ_LOCK_STATUS/POWER
  +--> UART_PROCESS_RECIEVED/LM567
LX51 LINKER/LOCATER V4.66.1.0                                                         01/17/2017  13:47:51  PAGE 5


  +--> _USART_RX_BLOCK/USART
  +--> STATUS_LOCK_ON_DETECT/POWER
  +--> CANCLE_OPEN_COUNT_DOWN/KEY
  +--> RELOAD_OPEN_ACK_COUNT_DOWN/KEY
  +--> RELOAD_UART_WAKEUP_COUNT_DOWN/KEY
  +--> STATUS_LOCK_OFF_DETECT/POWER
  +--> CANCLE_LOCK_COUNT_DOWN/KEY
  +--> CANCEL_OPEN_ACK_LOCK_COUNT_DOWN/KEY
  +--> CYCLE_BASED_CONTROL/KEY
  +--> LED_DISPLAY_TASK/KEY
  +--> RELOAD_SLEEP_COUNT_DOWN/KEY
  +--> LED_DISPLAY_STOP/KEY
  +--> CANCLE_SLEEP_COUNT_DOWN/KEY
  +--> CANCEL_OPEN_ACK_COUNT_DOWN/KEY
  +--> RELOAD_LOCK_COUNT_DOWN/KEY
  +--> RELOAD_LOCK_BEEP_COUNT_DOWN/KEY
  +--> LED_MODE_CHANGED/KEY

INSTANT_EFFECTIVE_INIT/MAIN                   ----- -----  ----- -----
  +--> INIT_SYSTEM_COMPONENT/MAIN
  +--> INIT_LOGIC_PARAMS/MAIN

INIT_SYSTEM_COMPONENT/MAIN                    ----- -----  ----- -----
  +--> INIT_SYSTEM_TICK/SYNC
  +--> POWER_IO_INIT/POWER
  +--> ALTER_BEEP_PROTECT/POWER
  +--> SPEAK_INIT_PARAMS/BEEP
  +--> INIT_BEEP_IO/BEEP
  +--> LED_IO_INIT/KEY
  +--> INIT_ADC/POWER
  +--> UART_INIT/LM567

INIT_SYSTEM_TICK/SYNC                         ----- -----  ----- -----

POWER_IO_INIT/POWER                           ----- -----  ----- -----

ALTER_BEEP_PROTECT/POWER                      ----- -----  ----- -----

SPEAK_INIT_PARAMS/BEEP                        ----- -----  ----- -----
  +--> ?CO?BEEP

?CO?BEEP                                      ----- -----  ----- -----

INIT_BEEP_IO/BEEP                             ----- -----  ----- -----

LED_IO_INIT/KEY                               ----- -----  ----- -----
  +--> LED_DISPLAY_DISABLE/KEY

LED_DISPLAY_DISABLE/KEY                       ----- -----  ----- -----

INIT_ADC/POWER                                ----- -----  ----- -----

UART_INIT/LM567                               ----- -----  ----- -----
  +--> _USART_INIT/USART
  +--> USART_SHARE_TIMER2/USART

_USART_INIT/USART                             ----- -----  ----- -----

USART_SHARE_TIMER2/USART                      ----- -----  ----- -----

INIT_LOGIC_PARAMS/MAIN                        ----- -----  ----- -----
  +--> INIT_SYNC_OBJECT/KEY

INIT_SYNC_OBJECT/KEY                          ----- -----  ----- -----

LX51 LINKER/LOCATER V4.66.1.0                                                         01/17/2017  13:47:51  PAGE 6


COUNT_DOWN_INIT_ALL_TASK/KEY                  ----- -----  ----- -----
  +--> LOCK_COUNT_DOWN_CALLBACK/KEY
  +--> _COUNT_DOWN_INIT/KEY
  +--> OPEN_COUNT_DOWN_CALLBACK/KEY
  +--> ALTER_BEEP_COUNT_DOWN_CALLBACK/KEY
  +--> TRACE_BEEP_COUNT_DOWN_CALLBACK/KEY
  +--> TRACE_MUTE_COUNT_DOWN_CALLBACK/KEY
  +--> SLEEP_COUNT_DOWN_CALL_BACK/KEY
  +--> OPEN_BEEP_COUNT_DOWN_CALLBACK/KEY
  +--> LOCK_BEEP_COUNT_DOWN_CALLBACK/KEY
  +--> UART_WAKEUP_COUNT_DOWN_CALLBACK/KEY
  +--> OPEN_ACK_COUNT_DOWN_CALLBACK/KEY
  +--> OPEN_ACK_LOCK_COUNT_DOWN_CALLLBACK/KEY

LOCK_COUNT_DOWN_CALLBACK/KEY                  ----- -----  ----- -----
  +--> STATUS_LOCK_DETECT/POWER
  +--> RELOAD_UART_WAKEUP_COUNT_DOWN/KEY

STATUS_LOCK_DETECT/POWER                      ----- -----  ----- -----
  +--> GETADCRESULT/POWER

GETADCRESULT/POWER                            ----- -----  ----- -----

RELOAD_UART_WAKEUP_COUNT_DOWN/KEY             ----- -----  ----- -----
  +--> _COUNT_DOWN_RELOAD/KEY

_COUNT_DOWN_RELOAD/KEY                        ----- -----  002FH 0032H

_COUNT_DOWN_INIT/KEY                          ----- -----  ----- -----

OPEN_COUNT_DOWN_CALLBACK/KEY                  ----- -----  ----- -----
  +--> RELOAD_UART_WAKEUP_COUNT_DOWN/KEY
  +--> RELOAD_OPEN_ACK_COUNT_DOWN/KEY

RELOAD_OPEN_ACK_COUNT_DOWN/KEY                ----- -----  ----- -----
  +--> _COUNT_DOWN_RELOAD/KEY

ALTER_BEEP_COUNT_DOWN_CALLBACK/KEY            ----- -----  ----- -----
  +--> RELOAD_UART_WAKEUP_COUNT_DOWN/KEY
  +--> RELOAD_SLEEP_COUNT_DOWN/KEY

RELOAD_SLEEP_COUNT_DOWN/KEY                   ----- -----  ----- -----
  +--> _COUNT_DOWN_RELOAD/KEY

TRACE_BEEP_COUNT_DOWN_CALLBACK/KEY            ----- -----  ----- -----
  +--> RELOAD_TRACE_MUTE_COUNT_DOWN/KEY

RELOAD_TRACE_MUTE_COUNT_DOWN/KEY              ----- -----  ----- -----
  +--> _COUNT_DOWN_RELOAD/KEY

TRACE_MUTE_COUNT_DOWN_CALLBACK/KEY            ----- -----  ----- -----
  +--> RELOAD_TRACE_BEEP_COUNT_DOWN/KEY

RELOAD_TRACE_BEEP_COUNT_DOWN/KEY              ----- -----  ----- -----
  +--> _COUNT_DOWN_RELOAD/KEY

SLEEP_COUNT_DOWN_CALL_BACK/KEY                ----- -----  ----- -----

OPEN_BEEP_COUNT_DOWN_CALLBACK/KEY             ----- -----  ----- -----

LOCK_BEEP_COUNT_DOWN_CALLBACK/KEY             ----- -----  ----- -----

UART_WAKEUP_COUNT_DOWN_CALLBACK/KEY           ----- -----  ----- -----
  +--> UART_SEND_OPEN_SUCCESS/LM567
  +--> UART_SEND_OPEN_FAIL/LM567
LX51 LINKER/LOCATER V4.66.1.0                                                         01/17/2017  13:47:51  PAGE 7


  +--> UART_SEND_LOCK_BY_HAND_SUCCESS/LM567
  +--> UART_SEND_LOCK_BY_HAND_FAIL/LM567
  +--> UART_SEND_BEEP_STOP/LM567
  +--> UART_SEND_STATUS_NOW/LM567
  +--> RELOAD_SLEEP_COUNT_DOWN/KEY

UART_SEND_OPEN_SUCCESS/LM567                  ----- -----  ----- -----
  +--> ?CO?LM567
  +--> _SEND_AT_COMMAND/LM567

?CO?LM567                                     ----- -----  ----- -----

_SEND_AT_COMMAND/LM567                        ----- -----  002FH 0031H
  +--> _STRLEN/STRLEN
  +--> _TX1_WRITE2BUFF/LM567

_STRLEN/STRLEN                                ----- -----  ----- -----

_TX1_WRITE2BUFF/LM567                         ----- -----  ----- -----

UART_SEND_OPEN_FAIL/LM567                     ----- -----  ----- -----
  +--> ?CO?LM567
  +--> _SEND_AT_COMMAND/LM567

UART_SEND_LOCK_BY_HAND_SUCCESS/LM567          ----- -----  ----- -----
  +--> ?CO?LM567
  +--> _SEND_AT_COMMAND/LM567

UART_SEND_LOCK_BY_HAND_FAIL/LM567             ----- -----  ----- -----
  +--> ?CO?LM567
  +--> _SEND_AT_COMMAND/LM567

UART_SEND_BEEP_STOP/LM567                     ----- -----  ----- -----
  +--> ?CO?LM567
  +--> _SEND_AT_COMMAND/LM567

UART_SEND_STATUS_NOW/LM567                    ----- -----  ----- -----
  +--> ?CO?LM567
  +--> _SEND_AT_COMMAND/LM567

OPEN_ACK_COUNT_DOWN_CALLBACK/KEY              ----- -----  ----- -----
  +--> RELOAD_OPEN_ACK_LOCK_COUNT_DOWN/KEY

RELOAD_OPEN_ACK_LOCK_COUNT_DOWN/KEY           ----- -----  ----- -----
  +--> _COUNT_DOWN_RELOAD/KEY

OPEN_ACK_LOCK_COUNT_DOWN_CALLLBACK/KEY        ----- -----  ----- -----
  +--> STATUS_LOCK_DETECT/POWER
  +--> RELOAD_UART_WAKEUP_COUNT_DOWN/KEY

DELAY1000MS/MAIN                              ----- -----  ----- -----

COUNT_DOWN_AT_ALL_TASK/KEY                    ----- -----  ----- -----
  +--> _COUNT_DOWN_AT/KEY

_COUNT_DOWN_AT/KEY                            ----- -----  002AH 002BH

KEY_TASK_DUTY/INTERACT                        ----- -----  ----- -----
  +--> KEY_SCAN_TASK/INTERACT

KEY_SCAN_TASK/INTERACT                        ----- -----  ----- -----
  +--> IO_KEYSCAN_G/INTERACT
  +--> RELOAD_SLEEP_COUNT_DOWN/KEY

IO_KEYSCAN_G/INTERACT                         ----- -----  ----- -----
LX51 LINKER/LOCATER V4.66.1.0                                                         01/17/2017  13:47:51  PAGE 8



READ_LOCK_STATUS/POWER                        ----- -----  ----- -----
  +--> RELOAD_UART_WAKEUP_COUNT_DOWN/KEY
  +--> GETADCRESULT/POWER

UART_PROCESS_RECIEVED/LM567                   ----- -----  ----- -----
  +--> CANCLE_SLEEP_COUNT_DOWN/KEY
  +--> _UART_CACHE_RESPONSE/LM567
  +--> _USART_FINISH_RX/USART

CANCLE_SLEEP_COUNT_DOWN/KEY                   ----- -----  ----- -----
  +--> _COUNT_DOWN_CANCEL/KEY

_COUNT_DOWN_CANCEL/KEY                        ----- -----  ----- -----

_UART_CACHE_RESPONSE/LM567                    ----- -----  002AH 002BH
  +--> _STRCHR/STRCHR
  +--> _UART_DISPATCH_CMD/LM567
  +--> RELOAD_SLEEP_COUNT_DOWN/KEY

_STRCHR/STRCHR                                ----- -----  ----- -----

_UART_DISPATCH_CMD/LM567                      ----- -----  002CH 002EH
  +--> ?CO?LM567
  +--> UART_SEND_TEST_LOCK/LM567
  +--> CANCLE_LOCK_COUNT_DOWN/KEY
  +--> RELOAD_OPEN_COUNT_DOWN/KEY
  +--> RELOAD_OPEN_BEEP_COUNT_DOWN/KEY
  +--> UART_SEND_OPEN_SUCCESS/LM567
  +--> INIT_LOCK_PARA/POWER
  +--> UART_SEND_TEST_BEEP_SUCCESS/LM567
  +--> SPEAK_ALTER_PCA_INIT/BEEP
  +--> RELOAD_ALTER_BEEP_COUNT_DOWN/KEY
  +--> UART_SEND_BEEP_SUCCESS/LM567
  +--> CANCLE_ALTER_COUNT_DOWN/KEY
  +--> UART_SEND_TEST_ALARMPARA/LM567
  +--> UART_SEND_ALARMPARA_SUCCESS/LM567
  +--> UART_SEND_ALARMPARA_FAIL/LM567
  +--> UART_SEND_TEST_TRACE_CALLBACK/LM567
  +--> RELOAD_CNT_FOR_BEEP/KEY
  +--> RELOAD_TRACE_BEEP_COUNT_DOWN/KEY
  +--> LED_MODE_CHANGED/KEY
  +--> UART_SEND_STATUS_SCHEDULE_CALLBACK/LM567
  +--> RELOAD_SCHEDULE_SLEEP_COUNT_DOWN/KEY
  +--> LED_DISPLAY_STOP/KEY
  +--> RELOAD_SLEEP_COUNT_DOWN/KEY
  +--> UART_SEND_SCHEDULE_CALLBACK/LM567
  +--> UART_SEND_DIAGNOSE_CALLBACK/LM567

UART_SEND_TEST_LOCK/LM567                     ----- -----  ----- -----
  +--> ?CO?LM567
  +--> _SEND_AT_COMMAND/LM567

CANCLE_LOCK_COUNT_DOWN/KEY                    ----- -----  ----- -----
  +--> _COUNT_DOWN_CANCEL/KEY

RELOAD_OPEN_COUNT_DOWN/KEY                    ----- -----  ----- -----
  +--> _COUNT_DOWN_RELOAD/KEY

RELOAD_OPEN_BEEP_COUNT_DOWN/KEY               ----- -----  ----- -----
  +--> _COUNT_DOWN_RELOAD/KEY

INIT_LOCK_PARA/POWER                          ----- -----  ----- -----

UART_SEND_TEST_BEEP_SUCCESS/LM567             ----- -----  ----- -----
LX51 LINKER/LOCATER V4.66.1.0                                                         01/17/2017  13:47:51  PAGE 9


  +--> ?CO?LM567
  +--> _SEND_AT_COMMAND/LM567

SPEAK_ALTER_PCA_INIT/BEEP                     ----- -----  ----- -----
  +--> ?CO?BEEP

RELOAD_ALTER_BEEP_COUNT_DOWN/KEY              ----- -----  ----- -----
  +--> _COUNT_DOWN_RELOAD/KEY

UART_SEND_BEEP_SUCCESS/LM567                  ----- -----  ----- -----
  +--> ?CO?LM567
  +--> _SEND_AT_COMMAND/LM567

CANCLE_ALTER_COUNT_DOWN/KEY                   ----- -----  ----- -----
  +--> _COUNT_DOWN_CANCEL/KEY

UART_SEND_TEST_ALARMPARA/LM567                ----- -----  ----- -----
  +--> ?CO?LM567
  +--> _SEND_AT_COMMAND/LM567

UART_SEND_ALARMPARA_SUCCESS/LM567             ----- -----  ----- -----
  +--> ?CO?LM567
  +--> _SEND_AT_COMMAND/LM567

UART_SEND_ALARMPARA_FAIL/LM567                ----- -----  ----- -----
  +--> ?CO?LM567
  +--> _SEND_AT_COMMAND/LM567

UART_SEND_TEST_TRACE_CALLBACK/LM567           ----- -----  ----- -----
  +--> ?CO?LM567
  +--> _SEND_AT_COMMAND/LM567

RELOAD_CNT_FOR_BEEP/KEY                       ----- -----  ----- -----

LED_MODE_CHANGED/KEY                          ----- -----  ----- -----
  +--> ?CO?KEY

?CO?KEY                                       ----- -----  ----- -----
  +--> LED_DISPLAY_OFF_DRIVER_INIT/KEY
  +--> SCHEDULE_DRIVER_INIT/KEY
  +--> TRACE_DRIVER_INIT/KEY
  +--> LOCK_DRIVER_INIT/KEY
  +--> OPEN_DRIVER_INIT/KEY
  +--> SCHEDULE_HALF_CYCLE_REACHED/KEY
  +--> TRACE_HALF_CYCLE_REACHED/KEY
  +--> LOCK_HALF_CYCLE_REACHED/KEY
  +--> OPEN_HALF_CYCLE_REACHED/KEY

LED_DISPLAY_OFF_DRIVER_INIT/KEY               ----- -----  ----- -----
  +--> LED_DISPLAY_DISABLE/KEY

SCHEDULE_DRIVER_INIT/KEY                      ----- -----  ----- -----

TRACE_DRIVER_INIT/KEY                         ----- -----  ----- -----

LOCK_DRIVER_INIT/KEY                          ----- -----  ----- -----

OPEN_DRIVER_INIT/KEY                          ----- -----  ----- -----

SCHEDULE_HALF_CYCLE_REACHED/KEY               ----- -----  ----- -----

TRACE_HALF_CYCLE_REACHED/KEY                  ----- -----  ----- -----

LOCK_HALF_CYCLE_REACHED/KEY                   ----- -----  ----- -----

LX51 LINKER/LOCATER V4.66.1.0                                                         01/17/2017  13:47:51  PAGE 10


OPEN_HALF_CYCLE_REACHED/KEY                   ----- -----  ----- -----
  +--> LED_MODE_CHANGED/KEY

UART_SEND_STATUS_SCHEDULE_CALLBACK/LM567      ----- -----  ----- -----
  +--> ?CO?LM567
  +--> _SEND_AT_COMMAND/LM567

RELOAD_SCHEDULE_SLEEP_COUNT_DOWN/KEY          ----- -----  ----- -----
  +--> _COUNT_DOWN_RELOAD/KEY

LED_DISPLAY_STOP/KEY                          ----- -----  ----- -----

UART_SEND_SCHEDULE_CALLBACK/LM567             ----- -----  ----- -----
  +--> ?CO?LM567
  +--> _SEND_AT_COMMAND/LM567

UART_SEND_DIAGNOSE_CALLBACK/LM567             ----- -----  ----- -----
  +--> ?CO?LM567
  +--> _SEND_AT_COMMAND/LM567

_USART_FINISH_RX/USART                        ----- -----  ----- -----

_USART_RX_BLOCK/USART                         ----- -----  ----- -----

STATUS_LOCK_ON_DETECT/POWER                   ----- -----  ----- -----
  +--> GETADCRESULT/POWER

CANCLE_OPEN_COUNT_DOWN/KEY                    ----- -----  ----- -----
  +--> _COUNT_DOWN_CANCEL/KEY

STATUS_LOCK_OFF_DETECT/POWER                  ----- -----  ----- -----
  +--> GETADCRESULT/POWER

CANCEL_OPEN_ACK_LOCK_COUNT_DOWN/KEY           ----- -----  ----- -----
  +--> _COUNT_DOWN_CANCEL/KEY

CYCLE_BASED_CONTROL/KEY                       ----- -----  ----- -----

LED_DISPLAY_TASK/KEY                          ----- -----  ----- -----
  +--> LED_CYCLE_BASED_ADJUST/KEY

LED_CYCLE_BASED_ADJUST/KEY                    ----- -----  ----- -----
  +--> HALF_CYCLE_REACHED/KEY

HALF_CYCLE_REACHED/KEY                        ----- -----  ----- -----
  +--> ?CO?KEY

CANCEL_OPEN_ACK_COUNT_DOWN/KEY                ----- -----  ----- -----
  +--> _COUNT_DOWN_CANCEL/KEY

RELOAD_LOCK_COUNT_DOWN/KEY                    ----- -----  ----- -----
  +--> _COUNT_DOWN_RELOAD/KEY

RELOAD_LOCK_BEEP_COUNT_DOWN/KEY               ----- -----  ----- -----
  +--> _COUNT_DOWN_RELOAD/KEY

?C_INITSEG                                    ----- -----  ----- -----

*** NEW ROOT ********************************

PCA_ISR/BEEP                                  ----- -----  ----- -----
  +--> ?CO?BEEP

*** NEW ROOT ********************************

LX51 LINKER/LOCATER V4.66.1.0                                                         01/17/2017  13:47:51  PAGE 11


UART1_INT/LM567                               ----- -----  ----- -----

*** NEW ROOT ********************************

EXINT1/POWER                                  ----- -----  ----- -----

*** NEW ROOT ********************************

TM0_ISR/SYNC                                  ----- -----  ----- -----



PUBLIC SYMBOLS OF MODULE:  lock (?C_STARTUP)


      VALUE       CLASS    TYPE      PUBLIC SYMBOL NAME
      =================================================
      0100014DH   CODE     ---       ?C?CLDOPTR
      01000134H   CODE     ---       ?C?CLDPTR
      00000000H   NUMBER   ---       ?C?CODESEG
      0100010EH   CODE     ---       ?C?COPY
      0100017AH   CODE     ---       ?C?CSTOPTR
      0100022FH   CODE     ---       ?C?ICALL
      01000233H   CODE     ---       ?C?ICALL2
      01000203H   CODE     ---       ?C?IILDX
      0100019CH   CODE     ---       ?C?IMUL
      010004A4H   CODE     ---       ?C?MEMCMP
      010004C8H   CODE     ---       ?C?MEMSET
      01000219H   CODE     ---       ?C?SLCMP
      01000301H   CODE     ---       ?C?STRCPY
      010001AEH   CODE     ---       ?C?UIDIV
      00000000H   NUMBER   ---       ?C?XDATASEG
      01000BE9H   CODE     ---       ?C_START
      01000000H   CODE     ---       ?C_STARTUP
      01000E10H   CODE     ---       _count_down_at
      010016C8H   CODE     ---       _count_down_cancel
      01001375H   CODE     ---       _count_down_init
      01000F6BH   CODE     ---       _count_down_reload
      01001235H   CODE     ---       _send_at_command
      010013ADH   CODE     ---       _STRCHR
      0100162EH   CODE     ---       _STRLEN
      0100125DH   CODE     ---       _TX1_write2buff
*DEL*:00000000H   CODE     ---       _TX_str2buff
      010010A0H   CODE     ---       _uart_cache_response
      01001619H   CODE     ---       _USART_Finish_Rx
      0100113CH   CODE     ---       _USART_Init
      01000E7DH   CODE     ---       _USART_RX_Block
*SFR* 000000D0H.6 DATA     BIT       AC
*SFR* 000000E0H   DATA     BYTE      ACC
*SFR* 000000E0H   DATA     BIT       ACC0
*SFR* 000000E0H.1 DATA     BIT       ACC1
*SFR* 000000E0H.2 DATA     BIT       ACC2
*SFR* 000000E0H.3 DATA     BIT       ACC3
*SFR* 000000E0H.4 DATA     BIT       ACC4
*SFR* 000000E0H.5 DATA     BIT       ACC5
*SFR* 000000E0H.6 DATA     BIT       ACC6
*SFR* 000000E0H.7 DATA     BIT       ACC7
*SFR* 000000BCH   DATA     BYTE      ADC_CONTR
*SFR* 000000BDH   DATA     BYTE      ADC_RES
*SFR* 000000BEH   DATA     BYTE      ADC_RESL
      00000015H   DATA     WORD      adc_value
      020000ADH   XDATA    ---       alter_beep_count_down
      0100167FH   CODE     ---       alter_beep_count_down_callback
      01001335H   CODE     ---       alter_beep_protect
      00000023H   DATA     BYTE      alter_flag
LX51 LINKER/LOCATER V4.66.1.0                                                         01/17/2017  13:47:51  PAGE 12


      00000025H   DATA     WORD      alter_time
*SFR* 0000008EH   DATA     BYTE      AUXR
*SFR* 000000A2H   DATA     BYTE      AUXR1
*SFR* 0000008FH   DATA     BYTE      AUXR2
*SFR* 000000F0H   DATA     BYTE      B
*SFR* 000000F0H   DATA     BIT       B0
*SFR* 000000F0H.1 DATA     BIT       B1
*SFR* 000000F0H.2 DATA     BIT       B2
*SFR* 000000F0H.3 DATA     BIT       B3
*SFR* 000000F0H.4 DATA     BIT       B4
*SFR* 000000F0H.5 DATA     BIT       B5
*SFR* 000000F0H.6 DATA     BIT       B6
*SFR* 000000F0H.7 DATA     BIT       B7
*SFR* 000000A1H   DATA     BYTE      BUS_SPEED
      010017B8H   CODE     ---       cancel_open_ack_count_down
      010017BFH   CODE     ---       cancel_open_ack_lock_count_down
      010017DBH   CODE     ---       cancle_alter_count_down
      010017CDH   CODE     ---       cancle_lock_count_down
      010017D4H   CODE     ---       cancle_open_count_down
      010017C6H   CODE     ---       cancle_sleep_count_down
*SFR* 000000FAH   DATA     BYTE      CCAP0H
*SFR* 000000EAH   DATA     BYTE      CCAP0L
*SFR* 000000FBH   DATA     BYTE      CCAP1H
*SFR* 000000EBH   DATA     BYTE      CCAP1L
*SFR* 000000FCH   DATA     BYTE      CCAP2H
*SFR* 000000ECH   DATA     BYTE      CCAP2L
*SFR* 000000DAH   DATA     BYTE      CCAPM0
*SFR* 000000DBH   DATA     BYTE      CCAPM1
*SFR* 000000DCH   DATA     BYTE      CCAPM2
*SFR* 000000D8H   DATA     BIT       CCF0
*SFR* 000000D8H.1 DATA     BIT       CCF1
*SFR* 000000D8H.2 DATA     BIT       CCF2
*SFR* 000000D8H   DATA     BYTE      CCON
*SFR* 00000090H.1 DATA     BIT       CCP0
*SFR* 00000090H   DATA     BIT       CCP1
*SFR* 000000B0H.7 DATA     BIT       CCP2
*SFR* 000000D8H.7 DATA     BIT       CF
*SFR* 000000F9H   DATA     BYTE      CH
*SFR* 000000E9H   DATA     BYTE      CL
*SFR* 00000097H   DATA     BYTE      CLK_DIV
*SFR* 000000B0H.5 DATA     BIT       CLKOUT0
*SFR* 000000B0H.4 DATA     BIT       CLKOUT1
*SFR* 000000D9H   DATA     BYTE      CMOD
*SFR* 000000E6H   DATA     BYTE      CMPCR1
*SFR* 000000E7H   DATA     BYTE      CMPCR2
      00000029H   DATA     BYTE      cnt_for_cycle
      00000022H   DATA     BYTE      cnt_for_cycle_schedule
      00000028H   DATA     BYTE      cnt_for_cycle_trace
      00000014H   DATA     BYTE      cnt_off_time_plus
      00000018H   DATA     BYTE      cnt_on_time_plus
      020000EAH   XDATA    ---       COM1
      01000ED4H   CODE     ---       count_down_at_all_task
      01000D24H   CODE     ---       count_down_init_all_task
*SFR* 000000D8H.6 DATA     BIT       CR
*SFR* 000000D0H.7 DATA     BIT       CY
      01001604H   CODE     ---       cycle_based_control
      01001715H   CODE     ---       Delay1000ms
      00000019H   DATA     BYTE      detect_key_time_start
*DEL*:00000000H   CODE     ---       display_startup_init
*SFR* 00000083H   DATA     BYTE      DPH
*SFR* 00000082H   DATA     BYTE      DPL
*SFR* 000000A8H.7 DATA     BIT       EA
*SFR* 000000A8H.5 DATA     BIT       EADC
*SFR* 000000A8H.6 DATA     BIT       ELVD
*SFR* 000000A8H.4 DATA     BIT       ES
LX51 LINKER/LOCATER V4.66.1.0                                                         01/17/2017  13:47:51  PAGE 13


*SFR* 000000A8H.1 DATA     BIT       ET0
*SFR* 000000A8H.3 DATA     BIT       ET1
*SFR* 000000A8H   DATA     BIT       EX0
*SFR* 000000A8H.2 DATA     BIT       EX1
      010015D9H   CODE     ---       exint1
*SFR* 000000D0H.5 DATA     BIT       F0
*SFR* 000000D0H.1 DATA     BIT       F1
      00000020H.2 BIT      BIT       flag_reverse
      0000001CH   DATA     BYTE      g_LongKeyCode
      0000001EH   DATA     BYTE      g_LongKeyCode_pre
      0000001DH   DATA     BYTE      g_ShortKeyCode
*SFR* 000000C3H   DATA     BYTE      IAP_ADDRH
*SFR* 000000C4H   DATA     BYTE      IAP_ADDRL
*SFR* 000000C5H   DATA     BYTE      IAP_CMD
*SFR* 000000C7H   DATA     BYTE      IAP_CONTR
*SFR* 000000C2H   DATA     BYTE      IAP_DATA
*SFR* 000000C6H   DATA     BYTE      IAP_TRIG
*SFR* 000000A8H   DATA     BYTE      IE
*SFR* 00000088H.1 DATA     BIT       IE0
*SFR* 00000088H.3 DATA     BIT       IE1
*SFR* 000000AFH   DATA     BYTE      IE2
      01001762H   CODE     ---       init_adc
      0100178DH   CODE     ---       init_beep_io
      0100176EH   CODE     ---       init_lock_para
      01001783H   CODE     ---       init_sync_object
      0100166BH   CODE     ---       init_system_tick
      010017F4H   CODE     ---       instant_effective_init
*SFR* 000000B0H.2 DATA     BIT       INT0
*SFR* 000000B0H.3 DATA     BIT       INT1
*SFR* 0000008FH   DATA     BYTE      INT_CLKO
      020000F2H   XDATA    BYTE      INT_PROC
*SFR* 000000B8H   DATA     BYTE      IP
*SFR* 000000B5H   DATA     BYTE      IP2
*SFR* 000000B7H   DATA     BYTE      IPH
*SFR* 000000B6H   DATA     BYTE      IPH2
*SFR* 000000C3H   DATA     BYTE      ISP_ADDRH
*SFR* 000000C4H   DATA     BYTE      ISP_ADDRL
*SFR* 000000C5H   DATA     BYTE      ISP_CMD
*SFR* 000000C7H   DATA     BYTE      ISP_CONTR
*SFR* 000000C2H   DATA     BYTE      ISP_DATA
*SFR* 000000C6H   DATA     BYTE      ISP_TRIG
*SFR* 00000088H   DATA     BIT       IT0
*SFR* 00000088H.2 DATA     BIT       IT1
      01000C2EH   CODE     ---       key_scan_task
      0000001AH   DATA     BYTE      key_status_off
      00000012H   DATA     BYTE      key_status_off_pre
      00000011H   DATA     BYTE      key_status_on
      00000017H   DATA     BYTE      key_status_on_pre
      01001391H   CODE     ---       key_task_duty
      0000003FH   IDATA    BYTE      key_task_interval
      010017B1H   CODE     ---       led_display_disable
      010016B6H   CODE     ---       led_display_stop
      010017FAH   CODE     ---       led_display_task
      020000E6H   XDATA    ---       led_flicker
      01000026H   CODE     ---       led_io_init
      0100120DH   CODE     ---       led_mode_changed
      020000D5H   XDATA    BYTE      led_mode_set
      020000B7H   XDATA    ---       lock_beep_count_down
      010017E8H   CODE     ---       lock_beep_count_down_callback
      020000BCH   XDATA    ---       lock_count_down
      0100110CH   CODE     ---       lock_count_down_callback
      00000020H.0 BIT      BIT       lock_fail_from_server
      00000021H   DATA     BYTE      lock_off_detect_signal
      00000024H   DATA     BYTE      lock_on_detect_signal
      01000886H   CODE     ---       main
LX51 LINKER/LOCATER V4.66.1.0                                                         01/17/2017  13:47:51  PAGE 14


      020000D6H   XDATA    ---       open_ack_count_down
      01001779H   CODE     ---       open_ack_count_down_callback
      020000DCH   XDATA    ---       open_ack_lock_count_down
      010012ABH   CODE     ---       open_ack_lock_count_down_calllback
      020000CBH   XDATA    ---       open_beep_count_down
      010017E2H   CODE     ---       open_beep_count_down_callback
      020000D0H   XDATA    ---       open_count_down
      010012F2H   CODE     ---       open_count_down_callback
      00000027H   DATA     BYTE      open_lock_ack_signal
*SFR* 000000D0H.2 DATA     BIT       OV
*SFR* 000000D0H   DATA     BIT       P
*SFR* 00000080H   DATA     BYTE      P0
*SFR* 00000080H   DATA     BIT       P00
*SFR* 00000080H.1 DATA     BIT       P01
*SFR* 00000080H.2 DATA     BIT       P02
*SFR* 00000080H.3 DATA     BIT       P03
*SFR* 00000080H.4 DATA     BIT       P04
*SFR* 00000080H.5 DATA     BIT       P05
*SFR* 00000080H.6 DATA     BIT       P06
*SFR* 00000080H.7 DATA     BIT       P07
*SFR* 00000094H   DATA     BYTE      P0M0
*SFR* 00000093H   DATA     BYTE      P0M1
*SFR* 00000090H   DATA     BYTE      P1
*SFR* 00000090H   DATA     BIT       P10
*SFR* 00000090H.1 DATA     BIT       P11
*SFR* 00000090H.2 DATA     BIT       P12
*SFR* 00000090H.3 DATA     BIT       P13
*SFR* 00000090H.4 DATA     BIT       P14
*SFR* 00000090H.5 DATA     BIT       P15
*SFR* 00000090H.6 DATA     BIT       P16
*SFR* 00000090H.7 DATA     BIT       P17
*SFR* 0000009DH   DATA     BYTE      P1ASF
*SFR* 00000092H   DATA     BYTE      P1M0
*SFR* 00000091H   DATA     BYTE      P1M1
*SFR* 000000A0H   DATA     BYTE      P2
*SFR* 000000A0H   DATA     BIT       P20
*SFR* 000000A0H.1 DATA     BIT       P21
*SFR* 000000A0H.2 DATA     BIT       P22
*SFR* 000000A0H.3 DATA     BIT       P23
*SFR* 000000A0H.4 DATA     BIT       P24
*SFR* 000000A0H.5 DATA     BIT       P25
*SFR* 000000A0H.6 DATA     BIT       P26
*SFR* 000000A0H.7 DATA     BIT       P27
*SFR* 00000096H   DATA     BYTE      P2M0
*SFR* 00000095H   DATA     BYTE      P2M1
*SFR* 000000B0H   DATA     BYTE      P3
*SFR* 000000B0H   DATA     BIT       P30
*SFR* 000000B0H.1 DATA     BIT       P31
*SFR* 000000B0H.2 DATA     BIT       P32
*SFR* 000000B0H.3 DATA     BIT       P33
*SFR* 000000B0H.4 DATA     BIT       P34
*SFR* 000000B0H.5 DATA     BIT       P35
*SFR* 000000B0H.6 DATA     BIT       P36
*SFR* 000000B0H.7 DATA     BIT       P37
*SFR* 000000B2H   DATA     BYTE      P3M0
*SFR* 000000B1H   DATA     BYTE      P3M1
*SFR* 000000C0H   DATA     BYTE      P4
*SFR* 000000C0H   DATA     BIT       P40
*SFR* 000000C0H.1 DATA     BIT       P41
*SFR* 000000C0H.2 DATA     BIT       P42
*SFR* 000000C0H.3 DATA     BIT       P43
*SFR* 000000C0H.4 DATA     BIT       P44
*SFR* 000000C0H.5 DATA     BIT       P45
*SFR* 000000C0H.6 DATA     BIT       P46
*SFR* 000000C0H.7 DATA     BIT       P47
LX51 LINKER/LOCATER V4.66.1.0                                                         01/17/2017  13:47:51  PAGE 15


*SFR* 000000B4H   DATA     BYTE      P4M0
*SFR* 000000B3H   DATA     BYTE      P4M1
*SFR* 000000C8H   DATA     BYTE      P5
*SFR* 000000C8H   DATA     BIT       P50
*SFR* 000000C8H.1 DATA     BIT       P51
*SFR* 000000C8H.2 DATA     BIT       P52
*SFR* 000000C8H.3 DATA     BIT       P53
*SFR* 000000C8H.4 DATA     BIT       P54
*SFR* 000000C8H.5 DATA     BIT       P55
*SFR* 000000C8H.6 DATA     BIT       P56
*SFR* 000000C8H.7 DATA     BIT       P57
*SFR* 000000CAH   DATA     BYTE      P5M0
*SFR* 000000C9H   DATA     BYTE      P5M1
*SFR* 000000E8H   DATA     BYTE      P6
*SFR* 000000E8H   DATA     BIT       P60
*SFR* 000000E8H.1 DATA     BIT       P61
*SFR* 000000E8H.2 DATA     BIT       P62
*SFR* 000000E8H.3 DATA     BIT       P63
*SFR* 000000E8H.4 DATA     BIT       P64
*SFR* 000000E8H.5 DATA     BIT       P65
*SFR* 000000E8H.6 DATA     BIT       P66
*SFR* 000000E8H.7 DATA     BIT       P67
*SFR* 000000CCH   DATA     BYTE      P6M0
*SFR* 000000CBH   DATA     BYTE      P6M1
*SFR* 000000F8H   DATA     BYTE      P7
*SFR* 000000F8H   DATA     BIT       P70
*SFR* 000000F8H.1 DATA     BIT       P71
*SFR* 000000F8H.2 DATA     BIT       P72
*SFR* 000000F8H.3 DATA     BIT       P73
*SFR* 000000F8H.4 DATA     BIT       P74
*SFR* 000000F8H.5 DATA     BIT       P75
*SFR* 000000F8H.6 DATA     BIT       P76
*SFR* 000000F8H.7 DATA     BIT       P77
*SFR* 000000E2H   DATA     BYTE      P7M0
*SFR* 000000E1H   DATA     BYTE      P7M1
*SFR* 000000A2H   DATA     BYTE      P_SW1
*SFR* 000000BAH   DATA     BYTE      P_SW2
*SFR* 000000B8H.5 DATA     BIT       PADC
      01000B05H   CODE     ---       pca_isr
      0000003DH   IDATA    WORD      pca_next_target
      0000003BH   IDATA    WORD      pca_param
*SFR* 000000F2H   DATA     BYTE      PCA_PWM0
*SFR* 000000F3H   DATA     BYTE      PCA_PWM1
*SFR* 000000F4H   DATA     BYTE      PCA_PWM2
*SFR* 00000087H   DATA     BYTE      PCON
*SFR* 00000097H   DATA     BYTE      PCON2
*SFR* 000000B8H.6 DATA     BIT       PLVD
      01001314H   CODE     ---       power_io_init
*SFR* 000000B8H.7 DATA     BIT       PPCA
*SFR* 000000B8H.4 DATA     BIT       PS
*SFR* 000000D0H   DATA     BYTE      PSW
*SFR* 000000B8H.1 DATA     BIT       PT0
*SFR* 000000B8H.3 DATA     BIT       PT1
*SFR* 000000F1H   DATA     BYTE      PWMCFG
*SFR* 000000F5H   DATA     BYTE      PWMCR
*SFR* 000000F7H   DATA     BYTE      PWMFDCR
*SFR* 000000F6H   DATA     BYTE      PWMIF
*SFR* 000000B8H   DATA     BIT       PX0
*SFR* 000000B8H.2 DATA     BIT       PX1
*SFR* 00000098H.2 DATA     BIT       RB8
*SFR* 000000B0H.7 DATA     BIT       RD
      00000013H   DATA     BYTE      read_index
      01000FACH   CODE     ---       read_lock_status
      00000010H   DATA     BYTE      read_status_signal
      010010D9H   CODE     ---       reload_alter_beep_count_down
LX51 LINKER/LOCATER V4.66.1.0                                                         01/17/2017  13:47:51  PAGE 16


*DEL*:00000000H   CODE     ---       reload_alter_sleep_count_down
      010017EEH   CODE     ---       reload_cnt_for_beep
      010016F7H   CODE     ---       reload_lock_beep_count_down
      010015C3H   CODE     ---       reload_lock_count_down
*DEL*:00000000H   CODE     ---       reload_lock_sleep_count_down
      01001732H   CODE     ---       reload_open_ack_count_down
      01001596H   CODE     ---       reload_open_ack_lock_count_down
      010016E8H   CODE     ---       reload_open_beep_count_down
      010015EFH   CODE     ---       reload_open_count_down
*DEL*:00000000H   CODE     ---       reload_open_sleep_count_down
      01000016H   CODE     ---       reload_schedule_sleep_count_down
      0100173EH   CODE     ---       reload_sleep_count_down
      01001706H   CODE     ---       reload_trace_beep_count_down
      010016D8H   CODE     ---       reload_trace_mute_count_down
      01001724H   CODE     ---       reload_uart_wakeup_count_down
*SFR* 00000098H.4 DATA     BIT       REN
*SFR* 00000098H   DATA     BIT       RI
*SFR* 000000D6H   DATA     BYTE      RL_T2H
*SFR* 000000D7H   DATA     BYTE      RL_T2L
*SFR* 000000D4H   DATA     BYTE      RL_T3H
*SFR* 000000D5H   DATA     BYTE      RL_T3L
*SFR* 000000D2H   DATA     BYTE      RL_T4H
*SFR* 000000D3H   DATA     BYTE      RL_T4L
*SFR* 0000008CH   DATA     BYTE      RL_TH0
*SFR* 0000008DH   DATA     BYTE      RL_TH1
*SFR* 0000008AH   DATA     BYTE      RL_TL0
*SFR* 0000008BH   DATA     BYTE      RL_TL1
*SFR* 000000D0H.3 DATA     BIT       RS0
*SFR* 000000D0H.4 DATA     BIT       RS1
*SFR* 000000B0H   DATA     BIT       RXD
*SFR* 00000090H   DATA     BIT       RXD2
*SFR* 0000009BH   DATA     BYTE      S2BUF
*SFR* 0000009AH   DATA     BYTE      S2CON
*SFR* 000000ADH   DATA     BYTE      S3BUF
*SFR* 000000ACH   DATA     BYTE      S3CON
*SFR* 00000085H   DATA     BYTE      S4BUF
*SFR* 00000084H   DATA     BYTE      S4CON
*SFR* 000000A9H   DATA     BYTE      SADDR
*SFR* 000000B9H   DATA     BYTE      SADEN
*SFR* 00000099H   DATA     BYTE      SBUF
      020000E1H   XDATA    ---       schedule_count_down
*SFR* 00000098H   DATA     BYTE      SCON
      0000001FH   DATA     BYTE      signal_lock_shake
      020000B2H   XDATA    ---       sleep_count_down
      01000003H   CODE     ---       sleep_count_down_call_back
*SFR* 00000098H.7 DATA     BIT       SM0
*SFR* 00000098H.6 DATA     BIT       SM1
*SFR* 00000098H.5 DATA     BIT       SM2
*SFR* 00000081H   DATA     BYTE      SP
*SFR* 000000CEH   DATA     BYTE      SPCTL
*SFR* 000000CFH   DATA     BYTE      SPDAT
      01001692H   CODE     ---       speak_alter_pca_init
      0100116AH   CODE     ---       speak_init_params
      00000033H   DATA     BYTE      speak_mode
*SFR* 00000090H.4 DATA     BIT       SPI_MISO
*SFR* 000000A0H.2 DATA     BIT       SPI_MISO_2
*SFR* 000000C0H.1 DATA     BIT       SPI_MISO_3
*SFR* 00000090H.3 DATA     BIT       SPI_MOSI
*SFR* 000000A0H.3 DATA     BIT       SPI_MOSI_2
*SFR* 000000C0H   DATA     BIT       SPI_MOSI_3
*SFR* 00000090H.5 DATA     BIT       SPI_SCLK
*SFR* 000000A0H.1 DATA     BIT       SPI_SCLK_2
*SFR* 000000C0H.3 DATA     BIT       SPI_SCLK_3
*SFR* 00000090H.2 DATA     BIT       SPI_SS
*SFR* 000000A0H.4 DATA     BIT       SPI_SS_2
LX51 LINKER/LOCATER V4.66.1.0                                                         01/17/2017  13:47:51  PAGE 17


*SFR* 000000C8H.4 DATA     BIT       SPI_SS_3
*SFR* 000000CDH   DATA     BYTE      SPSTAT
      00000034H   DATA     BYTE      status
      00000020H.1 BIT      BIT       status_in_sleep
      01001657H   CODE     ---       status_lock_detect
      010011BCH   CODE     ---       status_lock_off_detect
      01001193H   CODE     ---       status_lock_on_detect
*DEL*:00000000H   CODE     ---       sync_with_alert
*SFR* 000000B0H.4 DATA     BIT       T0
*SFR* 000000B0H.5 DATA     BIT       T1
*SFR* 000000D6H   DATA     BYTE      T2H
*SFR* 000000D7H   DATA     BYTE      T2L
*SFR* 000000D4H   DATA     BYTE      T3H
*SFR* 000000D5H   DATA     BYTE      T3L
*SFR* 000000D2H   DATA     BYTE      T4H
*SFR* 000000D3H   DATA     BYTE      T4L
*SFR* 000000D1H   DATA     BYTE      T4T3M
*SFR* 00000098H.3 DATA     BIT       TB8
*SFR* 00000088H   DATA     BYTE      TCON
*SFR* 00000088H.5 DATA     BIT       TF0
*SFR* 00000088H.7 DATA     BIT       TF1
*SFR* 0000008CH   DATA     BYTE      TH0
*SFR* 0000008DH   DATA     BYTE      TH1
*SFR* 000000D6H   DATA     BYTE      TH2
*SFR* 000000D4H   DATA     BYTE      TH3
*SFR* 000000D2H   DATA     BYTE      TH4
*SFR* 00000098H.1 DATA     BIT       TI
*SFR* 0000008AH   DATA     BYTE      TL0
*SFR* 0000008BH   DATA     BYTE      TL1
*SFR* 000000D7H   DATA     BYTE      TL2
*SFR* 000000D5H   DATA     BYTE      TL3
*SFR* 000000D3H   DATA     BYTE      TL4
      01001284H   CODE     ---       tm0_isr
*SFR* 00000089H   DATA     BYTE      TMOD
*SFR* 00000088H.4 DATA     BIT       TR0
*SFR* 00000088H.6 DATA     BIT       TR1
      020000A8H   XDATA    ---       trace_beep_count_down
      010015ADH   CODE     ---       trace_beep_count_down_callback
      020000C6H   XDATA    ---       trace_mute_count_down
      0100000EH   CODE     ---       trace_mute_count_down_callback
*SFR* 000000B0H.1 DATA     BIT       TXD
*SFR* 00000090H.1 DATA     BIT       TXD2
      01000CAAH   CODE     ---       UART1_int
      00000035H   DATA     BYTE      uart_id
      01000F21H   CODE     ---       uart_Init
      010013FDH   CODE     ---       uart_process_recieved
      01001506H   CODE     ---       uart_send_alarmpara_fail
      010014EEH   CODE     ---       uart_send_alarmpara_success
      010014BEH   CODE     ---       uart_send_beep_stop
      010014A6H   CODE     ---       uart_send_beep_success
      01001566H   CODE     ---       uart_send_diagnose_callback
      01001476H   CODE     ---       uart_send_lock_by_hand_fail
      0100145EH   CODE     ---       uart_send_lock_by_hand_success
      01001446H   CODE     ---       uart_send_open_fail
      0100142EH   CODE     ---       uart_send_open_success
      0100151EH   CODE     ---       uart_send_schedule_callback
      010012CFH   CODE     ---       uart_send_status_now
      01001536H   CODE     ---       uart_send_status_schedule_callback
      010014D6H   CODE     ---       uart_send_test_alarmpara
      0100148EH   CODE     ---       uart_send_test_beep_success
      01001416H   CODE     ---       uart_send_test_lock
*DEL*:00000000H   CODE     ---       uart_send_test_schedule_callback
      0100154EH   CODE     ---       uart_send_test_trace_callback
*DEL*:00000000H   CODE     ---       uart_send_trace_callback
*DEL*:00000000H   CODE     ---       uart_send_trace_fail_callback
LX51 LINKER/LOCATER V4.66.1.0                                                         01/17/2017  13:47:51  PAGE 18


      020000C1H   XDATA    ---       uart_wakeup_count_down
      01000FEBH   CODE     ---       uart_wakeup_count_down_callback
      010013C9H   CODE     ---       USART_Share_Timer2
*SFR* 0000008FH   DATA     BYTE      WAKE_CLKO
*SFR* 000000C1H   DATA     BYTE      WDT_CONTR
*SFR* 000000ABH   DATA     BYTE      WKTCH
*SFR* 000000AAH   DATA     BYTE      WKTCL
*SFR* 000000B0H.6 DATA     BIT       WR



SYMBOL TABLE OF MODULE:  lock (?C_STARTUP)

      VALUE       REP       CLASS    TYPE      SYMBOL NAME
      ====================================================
      ---         MODULE    ---      ---       ?C_STARTUP
      01000000H   PUBLIC    CODE     ---       ?C_STARTUP
      000000E0H   SYMBOL    DATA     ---       ACC
      000000F0H   SYMBOL    DATA     ---       B
      00000083H   SYMBOL    DATA     ---       DPH
      00000082H   SYMBOL    DATA     ---       DPL
      00000000H   SYMBOL    NUMBER   ---       IBPSTACK
      00000100H   SYMBOL    NUMBER   ---       IBPSTACKTOP
      00000080H   SYMBOL    NUMBER   ---       IDATALEN
      01000BA5H   SYMBOL    CODE     ---       IDATALOOP
      00000000H   SYMBOL    NUMBER   ---       PBPSTACK
      00000100H   SYMBOL    NUMBER   ---       PBPSTACKTOP
      00000000H   SYMBOL    NUMBER   ---       PDATALEN
      00000000H   SYMBOL    NUMBER   ---       PDATASTART
      00000000H   SYMBOL    NUMBER   ---       PPAGE
      00000000H   SYMBOL    NUMBER   ---       PPAGEENABLE
      000000A0H   SYMBOL    DATA     ---       PPAGE_SFR
      00000081H   SYMBOL    DATA     ---       SP
      01000BA2H   SYMBOL    CODE     ---       STARTUP1
      00000000H   SYMBOL    NUMBER   ---       XBPSTACK
      00000000H   SYMBOL    NUMBER   ---       XBPSTACKTOP
      00000000H   SYMBOL    NUMBER   ---       XDATALEN
      00000000H   SYMBOL    NUMBER   ---       XDATASTART
      01000000H   LINE      CODE     ---       #126
      01000BA2H   LINE      CODE     ---       #133
      01000BA4H   LINE      CODE     ---       #134
      01000BA5H   LINE      CODE     ---       #135
      01000BA6H   LINE      CODE     ---       #136
      01000BA8H   LINE      CODE     ---       #185
      01000BABH   LINE      CODE     ---       #196

      ---         MODULE    ---      ---       BEEP
      00000020H.1 PUBLIC    BIT      BIT       status_in_sleep
      0000003DH   PUBLIC    IDATA    WORD      pca_next_target
      00000020H.0 PUBLIC    BIT      BIT       lock_fail_from_server
      0000003BH   PUBLIC    IDATA    WORD      pca_param
      00000034H   PUBLIC    DATA     BYTE      status
      00000033H   PUBLIC    DATA     BYTE      speak_mode
      01000B05H   PUBLIC    CODE     ---       pca_isr
      0100116AH   PUBLIC    CODE     ---       speak_init_params
      0100178DH   PUBLIC    CODE     ---       init_beep_io
      01001692H   PUBLIC    CODE     ---       speak_alter_pca_init
      000000D8H.2 SFRSYM    DATA     BIT       CCF2
      000000E0H.7 SFRSYM    DATA     BIT       ACC7
      00000093H   SFRSYM    DATA     BYTE      P0M1
      00000092H   SFRSYM    DATA     BYTE      P1M0
      00000096H   SFRSYM    DATA     BYTE      P2M0
      00000091H   SFRSYM    DATA     BYTE      P1M1
      00000080H   SFRSYM    DATA     BYTE      P0
      000000B2H   SFRSYM    DATA     BYTE      P3M0
LX51 LINKER/LOCATER V4.66.1.0                                                         01/17/2017  13:47:51  PAGE 19


      00000095H   SFRSYM    DATA     BYTE      P2M1
      00000090H   SFRSYM    DATA     BYTE      P1
      000000B4H   SFRSYM    DATA     BYTE      P4M0
      000000B1H   SFRSYM    DATA     BYTE      P3M1
      000000A0H   SFRSYM    DATA     BYTE      P2
      000000CAH   SFRSYM    DATA     BYTE      P5M0
      000000B3H   SFRSYM    DATA     BYTE      P4M1
      000000B0H   SFRSYM    DATA     BYTE      P3
      000000ABH   SFRSYM    DATA     BYTE      WKTCH
      000000B0H.4 SFRSYM    DATA     BIT       T0
      000000D0H.6 SFRSYM    DATA     BIT       AC
      000000CCH   SFRSYM    DATA     BYTE      P6M0
      000000C9H   SFRSYM    DATA     BYTE      P5M1
      000000C0H   SFRSYM    DATA     BYTE      P4
      000000B0H.5 SFRSYM    DATA     BIT       CLKOUT0
      000000B0H.5 SFRSYM    DATA     BIT       T1
      000000F6H   SFRSYM    DATA     BYTE      PWMIF
      000000E2H   SFRSYM    DATA     BYTE      P7M0
      000000CBH   SFRSYM    DATA     BYTE      P6M1
      000000C8H   SFRSYM    DATA     BYTE      P5
      000000C6H   SFRSYM    DATA     BYTE      ISP_TRIG
      000000A8H.7 SFRSYM    DATA     BIT       EA
      000000B0H.4 SFRSYM    DATA     BIT       CLKOUT1
      000000A0H.4 SFRSYM    DATA     BIT       SPI_SS_2
      000000E8H   SFRSYM    DATA     BYTE      P6
      000000E1H   SFRSYM    DATA     BYTE      P7M1
      000000C8H.4 SFRSYM    DATA     BIT       SPI_SS_3
      00000090H.4 SFRSYM    DATA     BIT       SPI_MISO
      00000090H.3 SFRSYM    DATA     BIT       SPI_MOSI
      00000090H.1 SFRSYM    DATA     BIT       CCP0
      000000F8H   SFRSYM    DATA     BYTE      P7
      000000AAH   SFRSYM    DATA     BYTE      WKTCL
      00000090H   SFRSYM    DATA     BIT       CCP1
      000000CEH   SFRSYM    DATA     BYTE      SPCTL
      000000D8H.7 SFRSYM    DATA     BIT       CF
      000000B0H.7 SFRSYM    DATA     BIT       CCP2
      000000F9H   SFRSYM    DATA     BYTE      CH
      000000F5H   SFRSYM    DATA     BYTE      PWMCR
      000000A2H   SFRSYM    DATA     BYTE      P_SW1
      000000BAH   SFRSYM    DATA     BYTE      P_SW2
      000000A8H.5 SFRSYM    DATA     BIT       EADC
      000000A0H.1 SFRSYM    DATA     BIT       SPI_SCLK_2
      000000A8H   SFRSYM    DATA     BYTE      IE
      000000C0H.3 SFRSYM    DATA     BIT       SPI_SCLK_3
      000000E9H   SFRSYM    DATA     BYTE      CL
      000000C5H   SFRSYM    DATA     BYTE      IAP_CMD
      000000FAH   SFRSYM    DATA     BYTE      CCAP0H
      000000FBH   SFRSYM    DATA     BYTE      CCAP1H
      000000FCH   SFRSYM    DATA     BYTE      CCAP2H
      000000BDH   SFRSYM    DATA     BYTE      ADC_RES
      000000B6H   SFRSYM    DATA     BYTE      IPH2
      000000D8H.6 SFRSYM    DATA     BIT       CR
      000000EAH   SFRSYM    DATA     BYTE      CCAP0L
      000000B0H.7 SFRSYM    DATA     BIT       RD
      000000F7H   SFRSYM    DATA     BYTE      PWMFDCR
      000000EBH   SFRSYM    DATA     BYTE      CCAP1L
      000000DAH   SFRSYM    DATA     BYTE      CCAPM0
      000000ECH   SFRSYM    DATA     BYTE      CCAP2L
      000000DBH   SFRSYM    DATA     BYTE      CCAPM1
      000000A8H.4 SFRSYM    DATA     BIT       ES
      000000DCH   SFRSYM    DATA     BYTE      CCAPM2
      000000B8H.5 SFRSYM    DATA     BIT       PADC
      000000A0H.2 SFRSYM    DATA     BIT       SPI_MISO_2
      000000A0H.3 SFRSYM    DATA     BIT       SPI_MOSI_2
      000000B8H   SFRSYM    DATA     BYTE      IP
LX51 LINKER/LOCATER V4.66.1.0                                                         01/17/2017  13:47:51  PAGE 20


      000000C0H.1 SFRSYM    DATA     BIT       SPI_MISO_3
      000000C0H   SFRSYM    DATA     BIT       SPI_MOSI_3
      00000098H   SFRSYM    DATA     BIT       RI
      000000B0H.2 SFRSYM    DATA     BIT       INT0
      000000D0H.7 SFRSYM    DATA     BIT       CY
      00000098H.1 SFRSYM    DATA     BIT       TI
      000000B0H.3 SFRSYM    DATA     BIT       INT1
      00000097H   SFRSYM    DATA     BYTE      CLK_DIV
      000000C3H   SFRSYM    DATA     BYTE      IAP_ADDRH
      00000090H   SFRSYM    DATA     BIT       RXD2
      000000C5H   SFRSYM    DATA     BYTE      ISP_CMD
      000000B8H.4 SFRSYM    DATA     BIT       PS
      00000090H.1 SFRSYM    DATA     BIT       TXD2
      00000081H   SFRSYM    DATA     BYTE      SP
      000000D9H   SFRSYM    DATA     BYTE      CMOD
      000000D8H   SFRSYM    DATA     BYTE      CCON
      000000C4H   SFRSYM    DATA     BYTE      IAP_ADDRL
      000000B8H.7 SFRSYM    DATA     BIT       PPCA
      000000D0H.2 SFRSYM    DATA     BIT       OV
      000000E6H   SFRSYM    DATA     BYTE      CMPCR1
      000000B0H.6 SFRSYM    DATA     BIT       WR
      000000E7H   SFRSYM    DATA     BYTE      CMPCR2
      000000A8H.6 SFRSYM    DATA     BIT       ELVD
      00000080H   SFRSYM    DATA     BIT       P00
      00000090H   SFRSYM    DATA     BIT       P10
      00000080H.1 SFRSYM    DATA     BIT       P01
      000000BCH   SFRSYM    DATA     BYTE      ADC_CONTR
      00000099H   SFRSYM    DATA     BYTE      SBUF
      00000087H   SFRSYM    DATA     BYTE      PCON
      000000A0H   SFRSYM    DATA     BIT       P20
      00000090H.1 SFRSYM    DATA     BIT       P11
      00000080H.2 SFRSYM    DATA     BIT       P02
      000000C3H   SFRSYM    DATA     BYTE      ISP_ADDRH
      000000B0H   SFRSYM    DATA     BIT       P30
      000000A0H.1 SFRSYM    DATA     BIT       P21
      00000090H.2 SFRSYM    DATA     BIT       P12
      00000080H.3 SFRSYM    DATA     BIT       P03
      000000C0H   SFRSYM    DATA     BIT       P40
      000000B0H.1 SFRSYM    DATA     BIT       P31
      000000A0H.2 SFRSYM    DATA     BIT       P22
      00000090H.3 SFRSYM    DATA     BIT       P13
      00000080H.4 SFRSYM    DATA     BIT       P04
      00000098H   SFRSYM    DATA     BYTE      SCON
      0000008FH   SFRSYM    DATA     BYTE      WAKE_CLKO
      000000C8H   SFRSYM    DATA     BIT       P50
      000000C0H.1 SFRSYM    DATA     BIT       P41
      000000B0H.2 SFRSYM    DATA     BIT       P32
      000000A0H.3 SFRSYM    DATA     BIT       P23
      00000090H.4 SFRSYM    DATA     BIT       P14
      00000080H.5 SFRSYM    DATA     BIT       P05
      00000089H   SFRSYM    DATA     BYTE      TMOD
      00000088H   SFRSYM    DATA     BYTE      TCON
      000000E8H   SFRSYM    DATA     BIT       P60
      000000C8H.1 SFRSYM    DATA     BIT       P51
      000000C0H.2 SFRSYM    DATA     BIT       P42
      000000B0H.3 SFRSYM    DATA     BIT       P33
      000000A0H.4 SFRSYM    DATA     BIT       P24
      00000090H.5 SFRSYM    DATA     BIT       P15
      00000080H.6 SFRSYM    DATA     BIT       P06
      000000C4H   SFRSYM    DATA     BYTE      ISP_ADDRL
      000000B8H.6 SFRSYM    DATA     BIT       PLVD
      000000F8H   SFRSYM    DATA     BIT       P70
      000000E8H.1 SFRSYM    DATA     BIT       P61
      000000C8H.2 SFRSYM    DATA     BIT       P52
      000000C0H.3 SFRSYM    DATA     BIT       P43
LX51 LINKER/LOCATER V4.66.1.0                                                         01/17/2017  13:47:51  PAGE 21


      000000B0H.4 SFRSYM    DATA     BIT       P34
      000000A0H.5 SFRSYM    DATA     BIT       P25
      00000090H.6 SFRSYM    DATA     BIT       P16
      00000080H.7 SFRSYM    DATA     BIT       P07
      000000F8H.1 SFRSYM    DATA     BIT       P71
      000000E8H.2 SFRSYM    DATA     BIT       P62
      000000C8H.3 SFRSYM    DATA     BIT       P53
      000000C0H.4 SFRSYM    DATA     BIT       P44
      000000B0H.5 SFRSYM    DATA     BIT       P35
      000000A0H.6 SFRSYM    DATA     BIT       P26
      00000090H.7 SFRSYM    DATA     BIT       P17
      000000F8H.2 SFRSYM    DATA     BIT       P72
      000000E8H.3 SFRSYM    DATA     BIT       P63
      000000C8H.4 SFRSYM    DATA     BIT       P54
      000000C0H.5 SFRSYM    DATA     BIT       P45
      000000B0H.6 SFRSYM    DATA     BIT       P36
      000000A0H.7 SFRSYM    DATA     BIT       P27
      000000F8H.3 SFRSYM    DATA     BIT       P73
      000000E8H.4 SFRSYM    DATA     BIT       P64
      000000C8H.5 SFRSYM    DATA     BIT       P55
      000000C0H.6 SFRSYM    DATA     BIT       P46
      000000B0H.7 SFRSYM    DATA     BIT       P37
      000000F8H.4 SFRSYM    DATA     BIT       P74
      000000E8H.5 SFRSYM    DATA     BIT       P65
      000000C8H.6 SFRSYM    DATA     BIT       P56
      000000C0H.7 SFRSYM    DATA     BIT       P47
      000000F8H.5 SFRSYM    DATA     BIT       P75
      000000E8H.6 SFRSYM    DATA     BIT       P66
      000000C8H.7 SFRSYM    DATA     BIT       P57
      000000F8H.6 SFRSYM    DATA     BIT       P76
      000000E8H.7 SFRSYM    DATA     BIT       P67
      000000F8H.7 SFRSYM    DATA     BIT       P77
      00000088H.1 SFRSYM    DATA     BIT       IE0
      000000A1H   SFRSYM    DATA     BYTE      BUS_SPEED
      00000088H.3 SFRSYM    DATA     BIT       IE1
      000000AFH   SFRSYM    DATA     BYTE      IE2
      000000F0H   SFRSYM    DATA     BYTE      B
      0000008EH   SFRSYM    DATA     BYTE      AUXR
      000000C7H   SFRSYM    DATA     BYTE      IAP_CONTR
      000000F1H   SFRSYM    DATA     BYTE      PWMCFG
      000000E0H   SFRSYM    DATA     BYTE      ACC
      000000A8H.1 SFRSYM    DATA     BIT       ET0
      000000A8H.3 SFRSYM    DATA     BIT       ET1
      00000088H.5 SFRSYM    DATA     BIT       TF0
      00000088H.7 SFRSYM    DATA     BIT       TF1
      000000B5H   SFRSYM    DATA     BYTE      IP2
      0000008CH   SFRSYM    DATA     BYTE      RL_TH0
      00000098H.2 SFRSYM    DATA     BIT       RB8
      0000008DH   SFRSYM    DATA     BYTE      RL_TH1
      0000008CH   SFRSYM    DATA     BYTE      TH0
      000000A8H   SFRSYM    DATA     BIT       EX0
      00000088H   SFRSYM    DATA     BIT       IT0
      000000D6H   SFRSYM    DATA     BYTE      RL_T2H
      0000008DH   SFRSYM    DATA     BYTE      TH1
      000000A8H.2 SFRSYM    DATA     BIT       EX1
      00000098H.3 SFRSYM    DATA     BIT       TB8
      00000088H.2 SFRSYM    DATA     BIT       IT1
      000000D4H   SFRSYM    DATA     BYTE      RL_T3H
      000000D6H   SFRSYM    DATA     BYTE      TH2
      000000D6H   SFRSYM    DATA     BYTE      T2H
      000000D0H   SFRSYM    DATA     BIT       P
      000000D2H   SFRSYM    DATA     BYTE      RL_T4H
      000000D4H   SFRSYM    DATA     BYTE      TH3
      000000D4H   SFRSYM    DATA     BYTE      T3H
      0000008AH   SFRSYM    DATA     BYTE      RL_TL0
LX51 LINKER/LOCATER V4.66.1.0                                                         01/17/2017  13:47:51  PAGE 22


      00000098H.7 SFRSYM    DATA     BIT       SM0
      000000D2H   SFRSYM    DATA     BYTE      TH4
      000000D2H   SFRSYM    DATA     BYTE      T4H
      0000008BH   SFRSYM    DATA     BYTE      RL_TL1
      0000008AH   SFRSYM    DATA     BYTE      TL0
      00000098H.6 SFRSYM    DATA     BIT       SM1
      000000D7H   SFRSYM    DATA     BYTE      RL_T2L
      0000008BH   SFRSYM    DATA     BYTE      TL1
      00000098H.5 SFRSYM    DATA     BIT       SM2
      000000D5H   SFRSYM    DATA     BYTE      RL_T3L
      000000D7H   SFRSYM    DATA     BYTE      TL2
      000000D7H   SFRSYM    DATA     BYTE      T2L
      000000D3H   SFRSYM    DATA     BYTE      RL_T4L
      000000D5H   SFRSYM    DATA     BYTE      TL3
      000000D5H   SFRSYM    DATA     BYTE      T3L
      000000B8H.1 SFRSYM    DATA     BIT       PT0
      000000D3H   SFRSYM    DATA     BYTE      TL4
      000000D3H   SFRSYM    DATA     BYTE      T4L
      000000B8H.3 SFRSYM    DATA     BIT       PT1
      000000D0H.3 SFRSYM    DATA     BIT       RS0
      000000C7H   SFRSYM    DATA     BYTE      ISP_CONTR
      00000088H.4 SFRSYM    DATA     BIT       TR0
      000000D0H.4 SFRSYM    DATA     BIT       RS1
      000000C2H   SFRSYM    DATA     BYTE      IAP_DATA
      00000088H.6 SFRSYM    DATA     BIT       TR1
      000000B8H   SFRSYM    DATA     BIT       PX0
      000000C1H   SFRSYM    DATA     BYTE      WDT_CONTR
      000000B8H.2 SFRSYM    DATA     BIT       PX1
      000000F2H   SFRSYM    DATA     BYTE      PCA_PWM0
      000000F3H   SFRSYM    DATA     BYTE      PCA_PWM1
      000000F4H   SFRSYM    DATA     BYTE      PCA_PWM2
      0000009DH   SFRSYM    DATA     BYTE      P1ASF
      00000083H   SFRSYM    DATA     BYTE      DPH
      000000D1H   SFRSYM    DATA     BYTE      T4T3M
      000000BEH   SFRSYM    DATA     BYTE      ADC_RESL
      00000082H   SFRSYM    DATA     BYTE      DPL
      000000CDH   SFRSYM    DATA     BYTE      SPSTAT
      000000B7H   SFRSYM    DATA     BYTE      IPH
      0000009BH   SFRSYM    DATA     BYTE      S2BUF
      00000097H   SFRSYM    DATA     BYTE      PCON2
      000000ADH   SFRSYM    DATA     BYTE      S3BUF
      00000098H.4 SFRSYM    DATA     BIT       REN
      00000085H   SFRSYM    DATA     BYTE      S4BUF
      0000009AH   SFRSYM    DATA     BYTE      S2CON
      000000ACH   SFRSYM    DATA     BYTE      S3CON
      000000C2H   SFRSYM    DATA     BYTE      ISP_DATA
      00000084H   SFRSYM    DATA     BYTE      S4CON
      000000B9H   SFRSYM    DATA     BYTE      SADEN
      000000B0H   SFRSYM    DATA     BIT       RXD
      000000A9H   SFRSYM    DATA     BYTE      SADDR
      000000B0H.1 SFRSYM    DATA     BIT       TXD
      000000F0H   SFRSYM    DATA     BIT       B0
      000000F0H.1 SFRSYM    DATA     BIT       B1
      000000C6H   SFRSYM    DATA     BYTE      IAP_TRIG
      000000A2H   SFRSYM    DATA     BYTE      AUXR1
      000000F0H.2 SFRSYM    DATA     BIT       B2
      00000090H.2 SFRSYM    DATA     BIT       SPI_SS
      0000008FH   SFRSYM    DATA     BYTE      AUXR2
      000000F0H.3 SFRSYM    DATA     BIT       B3
      000000F0H.4 SFRSYM    DATA     BIT       B4
      000000D0H.5 SFRSYM    DATA     BIT       F0
      000000F0H.5 SFRSYM    DATA     BIT       B5
      000000D0H.1 SFRSYM    DATA     BIT       F1
      0000008FH   SFRSYM    DATA     BYTE      INT_CLKO
      000000F0H.6 SFRSYM    DATA     BIT       B6
LX51 LINKER/LOCATER V4.66.1.0                                                         01/17/2017  13:47:51  PAGE 23


      000000E0H   SFRSYM    DATA     BIT       ACC0
      000000F0H.7 SFRSYM    DATA     BIT       B7
      000000E0H.1 SFRSYM    DATA     BIT       ACC1
      000000E0H.2 SFRSYM    DATA     BIT       ACC2
      000000E0H.3 SFRSYM    DATA     BIT       ACC3
      000000D0H   SFRSYM    DATA     BYTE      PSW
      000000E0H.4 SFRSYM    DATA     BIT       ACC4
      00000090H.5 SFRSYM    DATA     BIT       SPI_SCLK
      000000D8H   SFRSYM    DATA     BIT       CCF0
      000000E0H.5 SFRSYM    DATA     BIT       ACC5
      000000D8H.1 SFRSYM    DATA     BIT       CCF1
      000000E0H.6 SFRSYM    DATA     BIT       ACC6
      000000CFH   SFRSYM    DATA     BYTE      SPDAT
      00000094H   SFRSYM    DATA     BYTE      P0M0
      01001817H   SYMBOL    CONST    ---       pca_next_param

      01001692H   BLOCK     CODE     ---       LVL=0
      01001692H   LINE      CODE     ---       #15
      01001692H   LINE      CODE     ---       #16
      01001692H   LINE      CODE     ---       #17
      010016A3H   LINE      CODE     ---       #18
      ---         BLOCKEND  ---      ---       LVL=0

      0100178DH   BLOCK     CODE     ---       LVL=0
      0100178DH   LINE      CODE     ---       #20
      0100178DH   LINE      CODE     ---       #21
      0100178DH   LINE      CODE     ---       #23
      01001793H   LINE      CODE     ---       #25
      01001795H   LINE      CODE     ---       #26
      ---         BLOCKEND  ---      ---       LVL=0

      0100116AH   BLOCK     CODE     ---       LVL=0
      0100116AH   LINE      CODE     ---       #30
      0100116AH   LINE      CODE     ---       #31
      0100116DH   LINE      CODE     ---       #35
      0100116FH   LINE      CODE     ---       #36
      01001171H   LINE      CODE     ---       #37
      01001181H   LINE      CODE     ---       #38
      01001187H   LINE      CODE     ---       #39
      0100118AH   LINE      CODE     ---       #40
      0100118DH   LINE      CODE     ---       #42
      01001190H   LINE      CODE     ---       #43
      01001192H   LINE      CODE     ---       #44
      ---         BLOCKEND  ---      ---       LVL=0

      01000B05H   BLOCK     CODE     ---       LVL=0
      01000B05H   LINE      CODE     ---       #48
      01000B12H   LINE      CODE     ---       #50
      01000B14H   LINE      CODE     ---       #51
      01000B18H   LINE      CODE     ---       #52
      01000B18H   LINE      CODE     ---       #53
      01000B18H   LINE      CODE     ---       #54
      01000B18H   LINE      CODE     ---       #55
      01000B20H   LINE      CODE     ---       #56
      01000B22H   LINE      CODE     ---       #57
      01000B30H   LINE      CODE     ---       #58
      01000B36H   LINE      CODE     ---       #59
      01000B39H   LINE      CODE     ---       #60
      01000B41H   LINE      CODE     ---       #61
      01000B56H   LINE      CODE     ---       #62
      01000B5DH   LINE      CODE     ---       #63
      01000B70H   LINE      CODE     ---       #64
      01000B72H   LINE      CODE     ---       #65
      01000B8EH   LINE      CODE     ---       #66
      01000B94H   LINE      CODE     ---       #67
LX51 LINKER/LOCATER V4.66.1.0                                                         01/17/2017  13:47:51  PAGE 24


      01000B97H   LINE      CODE     ---       #68
      01000B97H   LINE      CODE     ---       #69
      ---         BLOCKEND  ---      ---       LVL=0

      ---         MODULE    ---      ---       KEY
      00000020H.2 PUBLIC    BIT      BIT       flag_reverse
      020000E6H   PUBLIC    XDATA    ---       led_flicker
      020000E1H   PUBLIC    XDATA    ---       schedule_count_down
      020000DCH   PUBLIC    XDATA    ---       open_ack_lock_count_down
      020000D6H   PUBLIC    XDATA    ---       open_ack_count_down
      020000D5H   PUBLIC    XDATA    BYTE      led_mode_set
      00000029H   PUBLIC    DATA     BYTE      cnt_for_cycle
      020000D0H   PUBLIC    XDATA    ---       open_count_down
      020000CBH   PUBLIC    XDATA    ---       open_beep_count_down
      020000C6H   PUBLIC    XDATA    ---       trace_mute_count_down
      020000C1H   PUBLIC    XDATA    ---       uart_wakeup_count_down
      00000028H   PUBLIC    DATA     BYTE      cnt_for_cycle_trace
      020000BCH   PUBLIC    XDATA    ---       lock_count_down
      020000B7H   PUBLIC    XDATA    ---       lock_beep_count_down
      020000B2H   PUBLIC    XDATA    ---       sleep_count_down
      020000ADH   PUBLIC    XDATA    ---       alter_beep_count_down
      020000A8H   PUBLIC    XDATA    ---       trace_beep_count_down
      00000027H   PUBLIC    DATA     BYTE      open_lock_ack_signal
      00000025H   PUBLIC    DATA     WORD      alter_time
      00000024H   PUBLIC    DATA     BYTE      lock_on_detect_signal
      00000023H   PUBLIC    DATA     BYTE      alter_flag
      00000022H   PUBLIC    DATA     BYTE      cnt_for_cycle_schedule
      00000021H   PUBLIC    DATA     BYTE      lock_off_detect_signal
      010016B6H   PUBLIC    CODE     ---       led_display_stop
      010017FAH   PUBLIC    CODE     ---       led_display_task
      0100120DH   PUBLIC    CODE     ---       led_mode_changed
      01001604H   PUBLIC    CODE     ---       cycle_based_control
      01001783H   PUBLIC    CODE     ---       init_sync_object
      010016D8H   PUBLIC    CODE     ---       reload_trace_mute_count_down
      01001706H   PUBLIC    CODE     ---       reload_trace_beep_count_down
      010017EEH   PUBLIC    CODE     ---       reload_cnt_for_beep
      010017DBH   PUBLIC    CODE     ---       cancle_alter_count_down
      010017D4H   PUBLIC    CODE     ---       cancle_open_count_down
      010017CDH   PUBLIC    CODE     ---       cancle_lock_count_down
      010017C6H   PUBLIC    CODE     ---       cancle_sleep_count_down
      010017BFH   PUBLIC    CODE     ---       cancel_open_ack_lock_count_down
      010017B8H   PUBLIC    CODE     ---       cancel_open_ack_count_down
      01001724H   PUBLIC    CODE     ---       reload_uart_wakeup_count_down
      01000016H   PUBLIC    CODE     ---       reload_schedule_sleep_count_down
      0100173EH   PUBLIC    CODE     ---       reload_sleep_count_down
      010010D9H   PUBLIC    CODE     ---       reload_alter_beep_count_down
      010016F7H   PUBLIC    CODE     ---       reload_lock_beep_count_down
      010016E8H   PUBLIC    CODE     ---       reload_open_beep_count_down
      010015EFH   PUBLIC    CODE     ---       reload_open_count_down
      010015C3H   PUBLIC    CODE     ---       reload_lock_count_down
      01001596H   PUBLIC    CODE     ---       reload_open_ack_lock_count_down
      01001732H   PUBLIC    CODE     ---       reload_open_ack_count_down
      01000D24H   PUBLIC    CODE     ---       count_down_init_all_task
      01000ED4H   PUBLIC    CODE     ---       count_down_at_all_task
      010016C8H   PUBLIC    CODE     ---       _count_down_cancel
      01000E10H   PUBLIC    CODE     ---       _count_down_at
      01000F6BH   PUBLIC    CODE     ---       _count_down_reload
      01001375H   PUBLIC    CODE     ---       _count_down_init
      01000003H   PUBLIC    CODE     ---       sleep_count_down_call_back
      0100000EH   PUBLIC    CODE     ---       trace_mute_count_down_callback
      010015ADH   PUBLIC    CODE     ---       trace_beep_count_down_callback
      0100167FH   PUBLIC    CODE     ---       alter_beep_count_down_callback
      010017E8H   PUBLIC    CODE     ---       lock_beep_count_down_callback
      010017E2H   PUBLIC    CODE     ---       open_beep_count_down_callback
      010012ABH   PUBLIC    CODE     ---       open_ack_lock_count_down_calllback
LX51 LINKER/LOCATER V4.66.1.0                                                         01/17/2017  13:47:51  PAGE 25


      01001779H   PUBLIC    CODE     ---       open_ack_count_down_callback
      010012F2H   PUBLIC    CODE     ---       open_count_down_callback
      0100110CH   PUBLIC    CODE     ---       lock_count_down_callback
      01000FEBH   PUBLIC    CODE     ---       uart_wakeup_count_down_callback
      01000026H   PUBLIC    CODE     ---       led_io_init
      010017B1H   PUBLIC    CODE     ---       led_display_disable
      000000D8H.2 SFRSYM    DATA     BIT       CCF2
      000000E0H.7 SFRSYM    DATA     BIT       ACC7
      00000093H   SFRSYM    DATA     BYTE      P0M1
      00000092H   SFRSYM    DATA     BYTE      P1M0
      00000096H   SFRSYM    DATA     BYTE      P2M0
      00000091H   SFRSYM    DATA     BYTE      P1M1
      00000080H   SFRSYM    DATA     BYTE      P0
      000000B2H   SFRSYM    DATA     BYTE      P3M0
      00000095H   SFRSYM    DATA     BYTE      P2M1
      00000090H   SFRSYM    DATA     BYTE      P1
      000000B4H   SFRSYM    DATA     BYTE      P4M0
      000000B1H   SFRSYM    DATA     BYTE      P3M1
      000000A0H   SFRSYM    DATA     BYTE      P2
      000000CAH   SFRSYM    DATA     BYTE      P5M0
      000000B3H   SFRSYM    DATA     BYTE      P4M1
      000000B0H   SFRSYM    DATA     BYTE      P3
      000000ABH   SFRSYM    DATA     BYTE      WKTCH
      000000B0H.4 SFRSYM    DATA     BIT       T0
      000000D0H.6 SFRSYM    DATA     BIT       AC
      000000CCH   SFRSYM    DATA     BYTE      P6M0
      000000C9H   SFRSYM    DATA     BYTE      P5M1
      000000C0H   SFRSYM    DATA     BYTE      P4
      000000B0H.5 SFRSYM    DATA     BIT       CLKOUT0
      000000B0H.5 SFRSYM    DATA     BIT       T1
      000000F6H   SFRSYM    DATA     BYTE      PWMIF
      000000E2H   SFRSYM    DATA     BYTE      P7M0
      000000CBH   SFRSYM    DATA     BYTE      P6M1
      000000C8H   SFRSYM    DATA     BYTE      P5
      000000C6H   SFRSYM    DATA     BYTE      ISP_TRIG
      000000A8H.7 SFRSYM    DATA     BIT       EA
      000000B0H.4 SFRSYM    DATA     BIT       CLKOUT1
      000000A0H.4 SFRSYM    DATA     BIT       SPI_SS_2
      000000E8H   SFRSYM    DATA     BYTE      P6
      000000E1H   SFRSYM    DATA     BYTE      P7M1
      000000C8H.4 SFRSYM    DATA     BIT       SPI_SS_3
      00000090H.4 SFRSYM    DATA     BIT       SPI_MISO
      00000090H.3 SFRSYM    DATA     BIT       SPI_MOSI
      00000090H.1 SFRSYM    DATA     BIT       CCP0
      000000F8H   SFRSYM    DATA     BYTE      P7
      000000AAH   SFRSYM    DATA     BYTE      WKTCL
      00000090H   SFRSYM    DATA     BIT       CCP1
      000000CEH   SFRSYM    DATA     BYTE      SPCTL
      000000D8H.7 SFRSYM    DATA     BIT       CF
      000000B0H.7 SFRSYM    DATA     BIT       CCP2
      000000F9H   SFRSYM    DATA     BYTE      CH
      000000F5H   SFRSYM    DATA     BYTE      PWMCR
      000000A2H   SFRSYM    DATA     BYTE      P_SW1
      000000BAH   SFRSYM    DATA     BYTE      P_SW2
      000000A8H.5 SFRSYM    DATA     BIT       EADC
      000000A0H.1 SFRSYM    DATA     BIT       SPI_SCLK_2
      000000A8H   SFRSYM    DATA     BYTE      IE
      000000C0H.3 SFRSYM    DATA     BIT       SPI_SCLK_3
      000000E9H   SFRSYM    DATA     BYTE      CL
      000000C5H   SFRSYM    DATA     BYTE      IAP_CMD
      000000FAH   SFRSYM    DATA     BYTE      CCAP0H
      000000FBH   SFRSYM    DATA     BYTE      CCAP1H
      000000FCH   SFRSYM    DATA     BYTE      CCAP2H
      000000BDH   SFRSYM    DATA     BYTE      ADC_RES
      000000B6H   SFRSYM    DATA     BYTE      IPH2
LX51 LINKER/LOCATER V4.66.1.0                                                         01/17/2017  13:47:51  PAGE 26


      000000D8H.6 SFRSYM    DATA     BIT       CR
      000000EAH   SFRSYM    DATA     BYTE      CCAP0L
      000000B0H.7 SFRSYM    DATA     BIT       RD
      000000F7H   SFRSYM    DATA     BYTE      PWMFDCR
      000000EBH   SFRSYM    DATA     BYTE      CCAP1L
      000000DAH   SFRSYM    DATA     BYTE      CCAPM0
      000000ECH   SFRSYM    DATA     BYTE      CCAP2L
      000000DBH   SFRSYM    DATA     BYTE      CCAPM1
      000000A8H.4 SFRSYM    DATA     BIT       ES
      000000DCH   SFRSYM    DATA     BYTE      CCAPM2
      000000B8H.5 SFRSYM    DATA     BIT       PADC
      000000A0H.2 SFRSYM    DATA     BIT       SPI_MISO_2
      000000A0H.3 SFRSYM    DATA     BIT       SPI_MOSI_2
      000000B8H   SFRSYM    DATA     BYTE      IP
      000000C0H.1 SFRSYM    DATA     BIT       SPI_MISO_3
      000000C0H   SFRSYM    DATA     BIT       SPI_MOSI_3
      00000098H   SFRSYM    DATA     BIT       RI
      000000B0H.2 SFRSYM    DATA     BIT       INT0
      000000D0H.7 SFRSYM    DATA     BIT       CY
      00000098H.1 SFRSYM    DATA     BIT       TI
      000000B0H.3 SFRSYM    DATA     BIT       INT1
      00000097H   SFRSYM    DATA     BYTE      CLK_DIV
      000000C3H   SFRSYM    DATA     BYTE      IAP_ADDRH
      00000090H   SFRSYM    DATA     BIT       RXD2
      000000C5H   SFRSYM    DATA     BYTE      ISP_CMD
      000000B8H.4 SFRSYM    DATA     BIT       PS
      00000090H.1 SFRSYM    DATA     BIT       TXD2
      00000081H   SFRSYM    DATA     BYTE      SP
      000000D9H   SFRSYM    DATA     BYTE      CMOD
      000000D8H   SFRSYM    DATA     BYTE      CCON
      000000C4H   SFRSYM    DATA     BYTE      IAP_ADDRL
      000000B8H.7 SFRSYM    DATA     BIT       PPCA
      000000D0H.2 SFRSYM    DATA     BIT       OV
      000000E6H   SFRSYM    DATA     BYTE      CMPCR1
      000000B0H.6 SFRSYM    DATA     BIT       WR
      000000E7H   SFRSYM    DATA     BYTE      CMPCR2
      000000A8H.6 SFRSYM    DATA     BIT       ELVD
      00000080H   SFRSYM    DATA     BIT       P00
      00000090H   SFRSYM    DATA     BIT       P10
      00000080H.1 SFRSYM    DATA     BIT       P01
      000000BCH   SFRSYM    DATA     BYTE      ADC_CONTR
      00000099H   SFRSYM    DATA     BYTE      SBUF
      00000087H   SFRSYM    DATA     BYTE      PCON
      000000A0H   SFRSYM    DATA     BIT       P20
      00000090H.1 SFRSYM    DATA     BIT       P11
      00000080H.2 SFRSYM    DATA     BIT       P02
      000000C3H   SFRSYM    DATA     BYTE      ISP_ADDRH
      000000B0H   SFRSYM    DATA     BIT       P30
      000000A0H.1 SFRSYM    DATA     BIT       P21
      00000090H.2 SFRSYM    DATA     BIT       P12
      00000080H.3 SFRSYM    DATA     BIT       P03
      000000C0H   SFRSYM    DATA     BIT       P40
      000000B0H.1 SFRSYM    DATA     BIT       P31
      000000A0H.2 SFRSYM    DATA     BIT       P22
      00000090H.3 SFRSYM    DATA     BIT       P13
      00000080H.4 SFRSYM    DATA     BIT       P04
      00000098H   SFRSYM    DATA     BYTE      SCON
      0000008FH   SFRSYM    DATA     BYTE      WAKE_CLKO
      000000C8H   SFRSYM    DATA     BIT       P50
      000000C0H.1 SFRSYM    DATA     BIT       P41
      000000B0H.2 SFRSYM    DATA     BIT       P32
      000000A0H.3 SFRSYM    DATA     BIT       P23
      00000090H.4 SFRSYM    DATA     BIT       P14
      00000080H.5 SFRSYM    DATA     BIT       P05
      00000089H   SFRSYM    DATA     BYTE      TMOD
LX51 LINKER/LOCATER V4.66.1.0                                                         01/17/2017  13:47:51  PAGE 27


      00000088H   SFRSYM    DATA     BYTE      TCON
      000000E8H   SFRSYM    DATA     BIT       P60
      000000C8H.1 SFRSYM    DATA     BIT       P51
      000000C0H.2 SFRSYM    DATA     BIT       P42
      000000B0H.3 SFRSYM    DATA     BIT       P33
      000000A0H.4 SFRSYM    DATA     BIT       P24
      00000090H.5 SFRSYM    DATA     BIT       P15
      00000080H.6 SFRSYM    DATA     BIT       P06
      000000C4H   SFRSYM    DATA     BYTE      ISP_ADDRL
      000000B8H.6 SFRSYM    DATA     BIT       PLVD
      000000F8H   SFRSYM    DATA     BIT       P70
      000000E8H.1 SFRSYM    DATA     BIT       P61
      000000C8H.2 SFRSYM    DATA     BIT       P52
      000000C0H.3 SFRSYM    DATA     BIT       P43
      000000B0H.4 SFRSYM    DATA     BIT       P34
      000000A0H.5 SFRSYM    DATA     BIT       P25
      00000090H.6 SFRSYM    DATA     BIT       P16
      00000080H.7 SFRSYM    DATA     BIT       P07
      000000F8H.1 SFRSYM    DATA     BIT       P71
      000000E8H.2 SFRSYM    DATA     BIT       P62
      000000C8H.3 SFRSYM    DATA     BIT       P53
      000000C0H.4 SFRSYM    DATA     BIT       P44
      000000B0H.5 SFRSYM    DATA     BIT       P35
      000000A0H.6 SFRSYM    DATA     BIT       P26
      00000090H.7 SFRSYM    DATA     BIT       P17
      000000F8H.2 SFRSYM    DATA     BIT       P72
      000000E8H.3 SFRSYM    DATA     BIT       P63
      000000C8H.4 SFRSYM    DATA     BIT       P54
      000000C0H.5 SFRSYM    DATA     BIT       P45
      000000B0H.6 SFRSYM    DATA     BIT       P36
      000000A0H.7 SFRSYM    DATA     BIT       P27
      000000F8H.3 SFRSYM    DATA     BIT       P73
      000000E8H.4 SFRSYM    DATA     BIT       P64
      000000C8H.5 SFRSYM    DATA     BIT       P55
      000000C0H.6 SFRSYM    DATA     BIT       P46
      000000B0H.7 SFRSYM    DATA     BIT       P37
      000000F8H.4 SFRSYM    DATA     BIT       P74
      000000E8H.5 SFRSYM    DATA     BIT       P65
      000000C8H.6 SFRSYM    DATA     BIT       P56
      000000C0H.7 SFRSYM    DATA     BIT       P47
      000000F8H.5 SFRSYM    DATA     BIT       P75
      000000E8H.6 SFRSYM    DATA     BIT       P66
      000000C8H.7 SFRSYM    DATA     BIT       P57
      000000F8H.6 SFRSYM    DATA     BIT       P76
      000000E8H.7 SFRSYM    DATA     BIT       P67
      000000F8H.7 SFRSYM    DATA     BIT       P77
      00000088H.1 SFRSYM    DATA     BIT       IE0
      000000A1H   SFRSYM    DATA     BYTE      BUS_SPEED
      00000088H.3 SFRSYM    DATA     BIT       IE1
      000000AFH   SFRSYM    DATA     BYTE      IE2
      000000F0H   SFRSYM    DATA     BYTE      B
      0000008EH   SFRSYM    DATA     BYTE      AUXR
      000000C7H   SFRSYM    DATA     BYTE      IAP_CONTR
      000000F1H   SFRSYM    DATA     BYTE      PWMCFG
      000000E0H   SFRSYM    DATA     BYTE      ACC
      000000A8H.1 SFRSYM    DATA     BIT       ET0
      000000A8H.3 SFRSYM    DATA     BIT       ET1
      00000088H.5 SFRSYM    DATA     BIT       TF0
      00000088H.7 SFRSYM    DATA     BIT       TF1
      000000B5H   SFRSYM    DATA     BYTE      IP2
      0000008CH   SFRSYM    DATA     BYTE      RL_TH0
      00000098H.2 SFRSYM    DATA     BIT       RB8
      0000008DH   SFRSYM    DATA     BYTE      RL_TH1
      0000008CH   SFRSYM    DATA     BYTE      TH0
      000000A8H   SFRSYM    DATA     BIT       EX0
LX51 LINKER/LOCATER V4.66.1.0                                                         01/17/2017  13:47:51  PAGE 28


      00000088H   SFRSYM    DATA     BIT       IT0
      000000D6H   SFRSYM    DATA     BYTE      RL_T2H
      0000008DH   SFRSYM    DATA     BYTE      TH1
      000000A8H.2 SFRSYM    DATA     BIT       EX1
      00000098H.3 SFRSYM    DATA     BIT       TB8
      00000088H.2 SFRSYM    DATA     BIT       IT1
      000000D4H   SFRSYM    DATA     BYTE      RL_T3H
      000000D6H   SFRSYM    DATA     BYTE      TH2
      000000D6H   SFRSYM    DATA     BYTE      T2H
      000000D0H   SFRSYM    DATA     BIT       P
      000000D2H   SFRSYM    DATA     BYTE      RL_T4H
      000000D4H   SFRSYM    DATA     BYTE      TH3
      000000D4H   SFRSYM    DATA     BYTE      T3H
      0000008AH   SFRSYM    DATA     BYTE      RL_TL0
      00000098H.7 SFRSYM    DATA     BIT       SM0
      000000D2H   SFRSYM    DATA     BYTE      TH4
      000000D2H   SFRSYM    DATA     BYTE      T4H
      0000008BH   SFRSYM    DATA     BYTE      RL_TL1
      0000008AH   SFRSYM    DATA     BYTE      TL0
      00000098H.6 SFRSYM    DATA     BIT       SM1
      000000D7H   SFRSYM    DATA     BYTE      RL_T2L
      0000008BH   SFRSYM    DATA     BYTE      TL1
      00000098H.5 SFRSYM    DATA     BIT       SM2
      000000D5H   SFRSYM    DATA     BYTE      RL_T3L
      000000D7H   SFRSYM    DATA     BYTE      TL2
      000000D7H   SFRSYM    DATA     BYTE      T2L
      000000D3H   SFRSYM    DATA     BYTE      RL_T4L
      000000D5H   SFRSYM    DATA     BYTE      TL3
      000000D5H   SFRSYM    DATA     BYTE      T3L
      000000B8H.1 SFRSYM    DATA     BIT       PT0
      000000D3H   SFRSYM    DATA     BYTE      TL4
      000000D3H   SFRSYM    DATA     BYTE      T4L
      000000B8H.3 SFRSYM    DATA     BIT       PT1
      000000D0H.3 SFRSYM    DATA     BIT       RS0
      000000C7H   SFRSYM    DATA     BYTE      ISP_CONTR
      00000088H.4 SFRSYM    DATA     BIT       TR0
      000000D0H.4 SFRSYM    DATA     BIT       RS1
      000000C2H   SFRSYM    DATA     BYTE      IAP_DATA
      00000088H.6 SFRSYM    DATA     BIT       TR1
      000000B8H   SFRSYM    DATA     BIT       PX0
      000000C1H   SFRSYM    DATA     BYTE      WDT_CONTR
      000000B8H.2 SFRSYM    DATA     BIT       PX1
      000000F2H   SFRSYM    DATA     BYTE      PCA_PWM0
      000000F3H   SFRSYM    DATA     BYTE      PCA_PWM1
      000000F4H   SFRSYM    DATA     BYTE      PCA_PWM2
      0000009DH   SFRSYM    DATA     BYTE      P1ASF
      00000083H   SFRSYM    DATA     BYTE      DPH
      000000D1H   SFRSYM    DATA     BYTE      T4T3M
      000000BEH   SFRSYM    DATA     BYTE      ADC_RESL
      00000082H   SFRSYM    DATA     BYTE      DPL
      000000CDH   SFRSYM    DATA     BYTE      SPSTAT
      000000B7H   SFRSYM    DATA     BYTE      IPH
      0000009BH   SFRSYM    DATA     BYTE      S2BUF
      00000097H   SFRSYM    DATA     BYTE      PCON2
      000000ADH   SFRSYM    DATA     BYTE      S3BUF
      00000098H.4 SFRSYM    DATA     BIT       REN
      00000085H   SFRSYM    DATA     BYTE      S4BUF
      0000009AH   SFRSYM    DATA     BYTE      S2CON
      000000ACH   SFRSYM    DATA     BYTE      S3CON
      000000C2H   SFRSYM    DATA     BYTE      ISP_DATA
      00000084H   SFRSYM    DATA     BYTE      S4CON
      000000B9H   SFRSYM    DATA     BYTE      SADEN
      000000B0H   SFRSYM    DATA     BIT       RXD
      000000A9H   SFRSYM    DATA     BYTE      SADDR
      000000B0H.1 SFRSYM    DATA     BIT       TXD
LX51 LINKER/LOCATER V4.66.1.0                                                         01/17/2017  13:47:51  PAGE 29


      000000F0H   SFRSYM    DATA     BIT       B0
      000000F0H.1 SFRSYM    DATA     BIT       B1
      000000C6H   SFRSYM    DATA     BYTE      IAP_TRIG
      000000A2H   SFRSYM    DATA     BYTE      AUXR1
      000000F0H.2 SFRSYM    DATA     BIT       B2
      00000090H.2 SFRSYM    DATA     BIT       SPI_SS
      0000008FH   SFRSYM    DATA     BYTE      AUXR2
      000000F0H.3 SFRSYM    DATA     BIT       B3
      000000F0H.4 SFRSYM    DATA     BIT       B4
      000000D0H.5 SFRSYM    DATA     BIT       F0
      000000F0H.5 SFRSYM    DATA     BIT       B5
      000000D0H.1 SFRSYM    DATA     BIT       F1
      0000008FH   SFRSYM    DATA     BYTE      INT_CLKO
      000000F0H.6 SFRSYM    DATA     BIT       B6
      000000E0H   SFRSYM    DATA     BIT       ACC0
      000000F0H.7 SFRSYM    DATA     BIT       B7
      000000E0H.1 SFRSYM    DATA     BIT       ACC1
      000000E0H.2 SFRSYM    DATA     BIT       ACC2
      000000E0H.3 SFRSYM    DATA     BIT       ACC3
      000000D0H   SFRSYM    DATA     BYTE      PSW
      000000E0H.4 SFRSYM    DATA     BIT       ACC4
      00000090H.5 SFRSYM    DATA     BIT       SPI_SCLK
      000000D8H   SFRSYM    DATA     BIT       CCF0
      000000E0H.5 SFRSYM    DATA     BIT       ACC5
      000000D8H.1 SFRSYM    DATA     BIT       CCF1
      000000E0H.6 SFRSYM    DATA     BIT       ACC6
      000000CFH   SFRSYM    DATA     BYTE      SPDAT
      00000094H   SFRSYM    DATA     BYTE      P0M0
      00000036H   SYMBOL    IDATA    ---       cycle_param
      01001756H   SYMBOL    CODE     ---       trace_driver_init
      0100180DH   SYMBOL    CONST    ---       half_cycle_callback
      01001803H   SYMBOL    CONST    ---       driver_init
      01001796H   SYMBOL    CODE     ---       lock_driver_init
      01001029H   SYMBOL    CODE     ---       trace_half_cycle_reached
      010017FDH   SYMBOL    CODE     ---       led_display_off_driver_init
      0100179FH   SYMBOL    CODE     ---       open_driver_init
      01001065H   SYMBOL    CODE     ---       half_cycle_reached
      010016A4H   SYMBOL    CODE     ---       lock_half_cycle_reached
      01001643H   SYMBOL    CODE     ---       open_half_cycle_reached
      0100174AH   SYMBOL    CODE     ---       schedule_driver_init
      020000DBH   SYMBOL    XDATA    BYTE      cnt_for_beep
      010013E4H   SYMBOL    CODE     ---       schedule_half_cycle_reached
      010011E5H   SYMBOL    CODE     ---       led_cycle_based_adjust

      010017B1H   BLOCK     CODE     ---       LVL=0
      010017B1H   LINE      CODE     ---       #23
      010017B1H   LINE      CODE     ---       #24
      010017B1H   LINE      CODE     ---       #25
      010017B7H   LINE      CODE     ---       #26
      ---         BLOCKEND  ---      ---       LVL=0

      01000026H   BLOCK     CODE     ---       LVL=0
      01000026H   LINE      CODE     ---       #28
      01000026H   LINE      CODE     ---       #29
      01000026H   LINE      CODE     ---       #31
      0100002CH   LINE      CODE     ---       #33
      01000032H   LINE      CODE     ---       #35
      01000038H   LINE      CODE     ---       #37
      ---         BLOCKEND  ---      ---       LVL=0

      01000FEBH   BLOCK     CODE     ---       LVL=0
      01000FEBH   LINE      CODE     ---       #58
      01000FEBH   LINE      CODE     ---       #59
      01000FEDH   LINE      CODE     ---       #60
      01000FF1H   LINE      CODE     ---       #61
LX51 LINKER/LOCATER V4.66.1.0                                                         01/17/2017  13:47:51  PAGE 30


      01000FF4H   LINE      CODE     ---       #62
      01000FFBH   LINE      CODE     ---       #63
      01000FFEH   LINE      CODE     ---       #64
      01001005H   LINE      CODE     ---       #65
      01001008H   LINE      CODE     ---       #66
      0100100FH   LINE      CODE     ---       #67
      01001012H   LINE      CODE     ---       #68
      01001019H   LINE      CODE     ---       #69
      0100101CH   LINE      CODE     ---       #70
      01001023H   LINE      CODE     ---       #71
      01001026H   LINE      CODE     ---       #72
      01001026H   LINE      CODE     ---       #73
      ---         BLOCKEND  ---      ---       LVL=0

      0100110CH   BLOCK     CODE     ---       LVL=0
      0100110CH   LINE      CODE     ---       #76
      0100110CH   LINE      CODE     ---       #77
      0100110CH   LINE      CODE     ---       #79
      01001114H   LINE      CODE     ---       #80
      0100111EH   LINE      CODE     ---       #81
      01001120H   LINE      CODE     ---       #82
      01001123H   LINE      CODE     ---       #83
      01001126H   LINE      CODE     ---       #84
      01001129H   LINE      CODE     ---       #85
      0100112BH   LINE      CODE     ---       #86
      0100112DH   LINE      CODE     ---       #87
      01001130H   LINE      CODE     ---       #88
      01001133H   LINE      CODE     ---       #89
      01001136H   LINE      CODE     ---       #90
      01001136H   LINE      CODE     ---       #91
      01001139H   LINE      CODE     ---       #92
      0100113BH   LINE      CODE     ---       #93
      ---         BLOCKEND  ---      ---       LVL=0

      010012F2H   BLOCK     CODE     ---       LVL=0
      010012F2H   LINE      CODE     ---       #96
      010012F2H   LINE      CODE     ---       #97
      010012F2H   LINE      CODE     ---       #99
      010012FAH   LINE      CODE     ---       #100
      01001301H   LINE      CODE     ---       #102
      01001304H   LINE      CODE     ---       #103
      01001306H   LINE      CODE     ---       #104
      01001308H   LINE      CODE     ---       #105
      0100130BH   LINE      CODE     ---       #106
      0100130DH   LINE      CODE     ---       #112
      01001310H   LINE      CODE     ---       #113
      01001310H   LINE      CODE     ---       #114
      01001313H   LINE      CODE     ---       #115
      ---         BLOCKEND  ---      ---       LVL=0

      01001779H   BLOCK     CODE     ---       LVL=0
      01001779H   LINE      CODE     ---       #117
      01001779H   LINE      CODE     ---       #119
      0100177CH   LINE      CODE     ---       #120
      0100177EH   LINE      CODE     ---       #121
      01001780H   LINE      CODE     ---       #123
      ---         BLOCKEND  ---      ---       LVL=0

      010012ABH   BLOCK     CODE     ---       LVL=0
      010012ABH   LINE      CODE     ---       #127
      010012ABH   LINE      CODE     ---       #129
      010012B1H   LINE      CODE     ---       #131
      010012B3H   LINE      CODE     ---       #132
      010012B6H   LINE      CODE     ---       #133
      010012B6H   LINE      CODE     ---       #134
LX51 LINKER/LOCATER V4.66.1.0                                                         01/17/2017  13:47:51  PAGE 31


      010012B8H   LINE      CODE     ---       #136
      010012BBH   LINE      CODE     ---       #137
      010012BEH   LINE      CODE     ---       #138
      010012C1H   LINE      CODE     ---       #139
      010012C1H   LINE      CODE     ---       #140
      010012C3H   LINE      CODE     ---       #141
      010012CBH   LINE      CODE     ---       #142
      010012CEH   LINE      CODE     ---       #143
      ---         BLOCKEND  ---      ---       LVL=0

      010017E2H   BLOCK     CODE     ---       LVL=0
      010017E2H   LINE      CODE     ---       #146
      010017E2H   LINE      CODE     ---       #147
      010017E5H   LINE      CODE     ---       #148
      010017E7H   LINE      CODE     ---       #149
      ---         BLOCKEND  ---      ---       LVL=0

      010017E8H   BLOCK     CODE     ---       LVL=0
      010017E8H   LINE      CODE     ---       #151
      010017E8H   LINE      CODE     ---       #152
      010017EBH   LINE      CODE     ---       #153
      010017EDH   LINE      CODE     ---       #154
      ---         BLOCKEND  ---      ---       LVL=0

      0100167FH   BLOCK     CODE     ---       LVL=0
      0100167FH   LINE      CODE     ---       #156
      0100167FH   LINE      CODE     ---       #157
      0100167FH   LINE      CODE     ---       #158
      01001681H   LINE      CODE     ---       #159
      01001684H   LINE      CODE     ---       #160
      01001688H   LINE      CODE     ---       #161
      01001688H   LINE      CODE     ---       #162
      0100168BH   LINE      CODE     ---       #163
      0100168EH   LINE      CODE     ---       #164
      0100168EH   LINE      CODE     ---       #165
      01001691H   LINE      CODE     ---       #166
      01001691H   LINE      CODE     ---       #167
      ---         BLOCKEND  ---      ---       LVL=0

      010015ADH   BLOCK     CODE     ---       LVL=0
      010015ADH   LINE      CODE     ---       #169
      010015ADH   LINE      CODE     ---       #170
      010015ADH   LINE      CODE     ---       #171
      010015B3H   LINE      CODE     ---       #172
      010015B9H   LINE      CODE     ---       #173
      010015BBH   LINE      CODE     ---       #174
      010015BEH   LINE      CODE     ---       #176
      010015BFH   LINE      CODE     ---       #177
      010015C2H   LINE      CODE     ---       #178
      010015C2H   LINE      CODE     ---       #179
      ---         BLOCKEND  ---      ---       LVL=0

      0100000EH   BLOCK     CODE     ---       LVL=0
      0100000EH   LINE      CODE     ---       #182
      0100000EH   LINE      CODE     ---       #183
      0100000EH   LINE      CODE     ---       #184
      ---         BLOCKEND  ---      ---       LVL=0

      01000003H   BLOCK     CODE     ---       LVL=0
      01000003H   LINE      CODE     ---       #188
      01000003H   LINE      CODE     ---       #189
      01000003H   LINE      CODE     ---       #190
      0100000AH   LINE      CODE     ---       #191
      ---         BLOCKEND  ---      ---       LVL=0

LX51 LINKER/LOCATER V4.66.1.0                                                         01/17/2017  13:47:51  PAGE 32


      01001375H   BLOCK     CODE     ---       LVL=0
      00000006H   SYMBOL    DATA     ---       cnt
      00000004H   SYMBOL    DATA     ---       func
      01001375H   LINE      CODE     ---       #212
      01001375H   LINE      CODE     ---       #213
      0100137DH   LINE      CODE     ---       #214
      01001384H   LINE      CODE     ---       #215
      01001390H   LINE      CODE     ---       #216
      ---         BLOCKEND  ---      ---       LVL=0

      01000F6BH   BLOCK     CODE     ---       LVL=0
      0000002FH   SYMBOL    DATA     ---       cnt
      00000031H   SYMBOL    DATA     WORD      second
      00000003H   SYMBOL    DATA     BYTE      millisecond
      01000F6BH   LINE      CODE     ---       #218
      01000F73H   LINE      CODE     ---       #219
      01000F76H   LINE      CODE     ---       #220
      01000F89H   LINE      CODE     ---       #221
      01000F93H   LINE      CODE     ---       #222
      01000F94H   LINE      CODE     ---       #223
      01000FA1H   LINE      CODE     ---       #224
      01000FABH   LINE      CODE     ---       #225
      01000FABH   LINE      CODE     ---       #226
      ---         BLOCKEND  ---      ---       LVL=0

      01000E10H   BLOCK     CODE     ---       LVL=0
      0000002AH   SYMBOL    DATA     ---       cnt
      01000E10H   LINE      CODE     ---       #229
      01000E14H   LINE      CODE     ---       #230
      01000E2BH   LINE      CODE     ---       #231
      01000E2DH   LINE      CODE     ---       #233
      01000E3AH   LINE      CODE     ---       #234
      01000E3AH   LINE      CODE     ---       #235
      01000E3EH   LINE      CODE     ---       #236
      01000E4EH   LINE      CODE     ---       #237
      01000E61H   LINE      CODE     ---       #238
      01000E63H   LINE      CODE     ---       #239
      01000E63H   LINE      CODE     ---       #240
      01000E70H   LINE      CODE     ---       #241
      01000E7BH   LINE      CODE     ---       #242
      01000E7BH   LINE      CODE     ---       #243
      01000E7BH   LINE      CODE     ---       #245
      01000E7CH   LINE      CODE     ---       #246
      ---         BLOCKEND  ---      ---       LVL=0

      010016C8H   BLOCK     CODE     ---       LVL=0
      00000006H   SYMBOL    DATA     ---       cnt
      010016C8H   LINE      CODE     ---       #248
      010016C8H   LINE      CODE     ---       #249
      010016D0H   LINE      CODE     ---       #250
      010016D7H   LINE      CODE     ---       #252
      ---         BLOCKEND  ---      ---       LVL=0

      01000ED4H   BLOCK     CODE     ---       LVL=0
      01000ED4H   LINE      CODE     ---       #255
      01000ED4H   LINE      CODE     ---       #256
      01000ED4H   LINE      CODE     ---       #257
      01000EDBH   LINE      CODE     ---       #258
      01000EE2H   LINE      CODE     ---       #259
      01000EE9H   LINE      CODE     ---       #260
      01000EF0H   LINE      CODE     ---       #262
      01000EF7H   LINE      CODE     ---       #264
      01000EFEH   LINE      CODE     ---       #265
      01000F05H   LINE      CODE     ---       #266
      01000F0CH   LINE      CODE     ---       #267
LX51 LINKER/LOCATER V4.66.1.0                                                         01/17/2017  13:47:51  PAGE 33


      01000F13H   LINE      CODE     ---       #268
      01000F1AH   LINE      CODE     ---       #269
      ---         BLOCKEND  ---      ---       LVL=0

      01000D24H   BLOCK     CODE     ---       LVL=0
      01000D24H   LINE      CODE     ---       #273
      01000D24H   LINE      CODE     ---       #274
      01000D24H   LINE      CODE     ---       #275
      01000D2FH   LINE      CODE     ---       #276
      01000D3AH   LINE      CODE     ---       #277
      01000D45H   LINE      CODE     ---       #278
      01000D50H   LINE      CODE     ---       #280
      01000D5BH   LINE      CODE     ---       #282
      01000D66H   LINE      CODE     ---       #284
      01000D71H   LINE      CODE     ---       #286
      01000D7CH   LINE      CODE     ---       #288
      01000D87H   LINE      CODE     ---       #289
      01000D92H   LINE      CODE     ---       #290
      ---         BLOCKEND  ---      ---       LVL=0

      01001732H   BLOCK     CODE     ---       LVL=0
      01001732H   LINE      CODE     ---       #295
      01001732H   LINE      CODE     ---       #296
      ---         BLOCKEND  ---      ---       LVL=0

      01001596H   BLOCK     CODE     ---       LVL=0
      01001596H   LINE      CODE     ---       #299
      01001596H   LINE      CODE     ---       #300
      0100159EH   LINE      CODE     ---       #301
      010015A1H   LINE      CODE     ---       #302
      ---         BLOCKEND  ---      ---       LVL=0

      010015C3H   BLOCK     CODE     ---       LVL=0
      010015C3H   LINE      CODE     ---       #305
      010015C3H   LINE      CODE     ---       #306
      010015C3H   LINE      CODE     ---       #307
      010015CBH   LINE      CODE     ---       #308
      010015CEH   LINE      CODE     ---       #309
      ---         BLOCKEND  ---      ---       LVL=0

      010015EFH   BLOCK     CODE     ---       LVL=0
      010015EFH   LINE      CODE     ---       #313
      010015EFH   LINE      CODE     ---       #314
      010015EFH   LINE      CODE     ---       #315
      010015FBH   LINE      CODE     ---       #316
      01001603H   LINE      CODE     ---       #317
      ---         BLOCKEND  ---      ---       LVL=0

      010016E8H   BLOCK     CODE     ---       LVL=0
      010016E8H   LINE      CODE     ---       #319
      010016E8H   LINE      CODE     ---       #320
      010016E8H   LINE      CODE     ---       #321
      010016EBH   LINE      CODE     ---       #322
      ---         BLOCKEND  ---      ---       LVL=0

      010016F7H   BLOCK     CODE     ---       LVL=0
      010016F7H   LINE      CODE     ---       #325
      010016F7H   LINE      CODE     ---       #326
      010016F7H   LINE      CODE     ---       #327
      010016FAH   LINE      CODE     ---       #328
      ---         BLOCKEND  ---      ---       LVL=0

      010010D9H   BLOCK     CODE     ---       LVL=0
      010010D9H   LINE      CODE     ---       #331
      010010D9H   LINE      CODE     ---       #332
LX51 LINKER/LOCATER V4.66.1.0                                                         01/17/2017  13:47:51  PAGE 34


      010010D9H   LINE      CODE     ---       #334
      ---         BLOCKEND  ---      ---       LVL=0

      0100173EH   BLOCK     CODE     ---       LVL=0
      0100173EH   LINE      CODE     ---       #337
      0100173EH   LINE      CODE     ---       #338
      0100173EH   LINE      CODE     ---       #340
      ---         BLOCKEND  ---      ---       LVL=0

      01000016H   BLOCK     CODE     ---       LVL=0
      01000016H   LINE      CODE     ---       #360
      01000016H   LINE      CODE     ---       #361
      01000016H   LINE      CODE     ---       #362
      ---         BLOCKEND  ---      ---       LVL=0

      01001724H   BLOCK     CODE     ---       LVL=0
      01001724H   LINE      CODE     ---       #365
      01001724H   LINE      CODE     ---       #366
      01001724H   LINE      CODE     ---       #367
      01001726H   LINE      CODE     ---       #368
      ---         BLOCKEND  ---      ---       LVL=0

      010017B8H   BLOCK     CODE     ---       LVL=0
      010017B8H   LINE      CODE     ---       #371
      010017B8H   LINE      CODE     ---       #372
      ---         BLOCKEND  ---      ---       LVL=0

      010017BFH   BLOCK     CODE     ---       LVL=0
      010017BFH   LINE      CODE     ---       #375
      010017BFH   LINE      CODE     ---       #376
      ---         BLOCKEND  ---      ---       LVL=0

      010017C6H   BLOCK     CODE     ---       LVL=0
      010017C6H   LINE      CODE     ---       #380
      010017C6H   LINE      CODE     ---       #381
      010017C6H   LINE      CODE     ---       #382
      ---         BLOCKEND  ---      ---       LVL=0

      010017CDH   BLOCK     CODE     ---       LVL=0
      010017CDH   LINE      CODE     ---       #385
      010017CDH   LINE      CODE     ---       #386
      010017CDH   LINE      CODE     ---       #387
      ---         BLOCKEND  ---      ---       LVL=0

      010017D4H   BLOCK     CODE     ---       LVL=0
      010017D4H   LINE      CODE     ---       #390
      010017D4H   LINE      CODE     ---       #391
      010017D4H   LINE      CODE     ---       #392
      ---         BLOCKEND  ---      ---       LVL=0

      010017DBH   BLOCK     CODE     ---       LVL=0
      010017DBH   LINE      CODE     ---       #395
      010017DBH   LINE      CODE     ---       #396
      010017DBH   LINE      CODE     ---       #397
      ---         BLOCKEND  ---      ---       LVL=0

      010017EEH   BLOCK     CODE     ---       LVL=0
      010017EEH   LINE      CODE     ---       #401
      010017EEH   LINE      CODE     ---       #402
      010017EEH   LINE      CODE     ---       #403
      010017F3H   LINE      CODE     ---       #404
      ---         BLOCKEND  ---      ---       LVL=0

      01001706H   BLOCK     CODE     ---       LVL=0
      01001706H   LINE      CODE     ---       #406
LX51 LINKER/LOCATER V4.66.1.0                                                         01/17/2017  13:47:51  PAGE 35


      01001706H   LINE      CODE     ---       #407
      01001706H   LINE      CODE     ---       #408
      01001709H   LINE      CODE     ---       #409
      ---         BLOCKEND  ---      ---       LVL=0

      010016D8H   BLOCK     CODE     ---       LVL=0
      010016D8H   LINE      CODE     ---       #412
      010016D8H   LINE      CODE     ---       #413
      010016D8H   LINE      CODE     ---       #414
      010016DAH   LINE      CODE     ---       #415
      010016DDH   LINE      CODE     ---       #416
      ---         BLOCKEND  ---      ---       LVL=0

      01001783H   BLOCK     CODE     ---       LVL=0
      01001783H   LINE      CODE     ---       #426
      01001783H   LINE      CODE     ---       #427
      01001788H   LINE      CODE     ---       #428
      0100178CH   LINE      CODE     ---       #429
      ---         BLOCKEND  ---      ---       LVL=0

      01001604H   BLOCK     CODE     ---       LVL=0
      01001604H   LINE      CODE     ---       #469
      01001604H   LINE      CODE     ---       #471
      0100160AH   LINE      CODE     ---       #472
      01001618H   LINE      CODE     ---       #473
      01001618H   LINE      CODE     ---       #475
      ---         BLOCKEND  ---      ---       LVL=0

      01001065H   BLOCK     CODE     ---       LVL=0
      01001065H   LINE      CODE     ---       #478
      01001065H   LINE      CODE     ---       #479
      0100107DH   LINE      CODE     ---       #480
      01001098H   LINE      CODE     ---       #481
      0100109FH   LINE      CODE     ---       #482
      ---         BLOCKEND  ---      ---       LVL=0

      010011E5H   BLOCK     CODE     ---       LVL=0
      010011E5H   LINE      CODE     ---       #484
      010011E5H   LINE      CODE     ---       #485
      010011EBH   LINE      CODE     ---       #486
      01001202H   LINE      CODE     ---       #487
      01001205H   LINE      CODE     ---       #489
      01001205H   LINE      CODE     ---       #490
      0100120CH   LINE      CODE     ---       #491
      0100120CH   LINE      CODE     ---       #492
      ---         BLOCKEND  ---      ---       LVL=0

      0100120DH   BLOCK     CODE     ---       LVL=0
      0100120DH   BLOCK     CODE     NEAR LAB  LVL=1
      00000006H   SYMBOL    DATA     ---       led_mode_driver_init
      ---         BLOCKEND  ---      ---       LVL=1
      0100120DH   LINE      CODE     ---       #495
      0100120DH   LINE      CODE     ---       #496
      01001223H   LINE      CODE     ---       #497
      01001226H   LINE      CODE     ---       #498
      0100122DH   LINE      CODE     ---       #499
      01001234H   LINE      CODE     ---       #500
      ---         BLOCKEND  ---      ---       LVL=0

      010017FAH   BLOCK     CODE     ---       LVL=0
      010017FAH   LINE      CODE     ---       #506
      010017FAH   LINE      CODE     ---       #507
      010017FAH   LINE      CODE     ---       #508
      ---         BLOCKEND  ---      ---       LVL=0

LX51 LINKER/LOCATER V4.66.1.0                                                         01/17/2017  13:47:51  PAGE 36


      010017FDH   BLOCK     CODE     ---       LVL=0
      010017FDH   LINE      CODE     ---       #512
      010017FDH   LINE      CODE     ---       #513
      ---         BLOCKEND  ---      ---       LVL=0

      0100174AH   BLOCK     CODE     ---       LVL=0
      0100174AH   LINE      CODE     ---       #518
      0100174AH   LINE      CODE     ---       #519
      01001750H   LINE      CODE     ---       #520
      01001753H   LINE      CODE     ---       #521
      01001755H   LINE      CODE     ---       #522
      ---         BLOCKEND  ---      ---       LVL=0

      010013E4H   BLOCK     CODE     ---       LVL=0
      010013E4H   LINE      CODE     ---       #524
      010013E4H   LINE      CODE     ---       #525
      010013E6H   LINE      CODE     ---       #526
      010013EBH   LINE      CODE     ---       #527
      010013F1H   LINE      CODE     ---       #528
      010013F7H   LINE      CODE     ---       #529
      010013F9H   LINE      CODE     ---       #530
      010013FCH   LINE      CODE     ---       #531
      010013FCH   LINE      CODE     ---       #532
      ---         BLOCKEND  ---      ---       LVL=0

      01001756H   BLOCK     CODE     ---       LVL=0
      01001756H   LINE      CODE     ---       #535
      01001756H   LINE      CODE     ---       #536
      0100175CH   LINE      CODE     ---       #537
      0100175FH   LINE      CODE     ---       #538
      01001761H   LINE      CODE     ---       #539
      ---         BLOCKEND  ---      ---       LVL=0

      01001029H   BLOCK     CODE     ---       LVL=0
      01001029H   LINE      CODE     ---       #543
      01001029H   LINE      CODE     ---       #544
      0100102BH   LINE      CODE     ---       #545
      01001030H   LINE      CODE     ---       #546
      01001030H   LINE      CODE     ---       #547
      01001037H   LINE      CODE     ---       #548
      01001039H   LINE      CODE     ---       #549
      0100103FH   LINE      CODE     ---       #550
      01001045H   LINE      CODE     ---       #551
      0100104BH   LINE      CODE     ---       #552
      0100104DH   LINE      CODE     ---       #553
      01001053H   LINE      CODE     ---       #554
      01001058H   LINE      CODE     ---       #555
      0100105EH   LINE      CODE     ---       #556
      01001060H   LINE      CODE     ---       #557
      01001064H   LINE      CODE     ---       #558
      01001064H   LINE      CODE     ---       #560
      ---         BLOCKEND  ---      ---       LVL=0

      01001796H   BLOCK     CODE     ---       LVL=0
      01001796H   LINE      CODE     ---       #563
      01001796H   LINE      CODE     ---       #564
      0100179CH   LINE      CODE     ---       #565
      0100179EH   LINE      CODE     ---       #566
      ---         BLOCKEND  ---      ---       LVL=0

      010016A4H   BLOCK     CODE     ---       LVL=0
      010016A4H   LINE      CODE     ---       #568
      010016A4H   LINE      CODE     ---       #569
      010016A9H   LINE      CODE     ---       #570
      010016AFH   LINE      CODE     ---       #571
LX51 LINKER/LOCATER V4.66.1.0                                                         01/17/2017  13:47:51  PAGE 37


      010016B1H   LINE      CODE     ---       #572
      010016B5H   LINE      CODE     ---       #573
      ---         BLOCKEND  ---      ---       LVL=0

      0100179FH   BLOCK     CODE     ---       LVL=0
      0100179FH   LINE      CODE     ---       #576
      0100179FH   LINE      CODE     ---       #577
      010017A5H   LINE      CODE     ---       #578
      010017A7H   LINE      CODE     ---       #579
      ---         BLOCKEND  ---      ---       LVL=0

      01001643H   BLOCK     CODE     ---       LVL=0
      01001643H   LINE      CODE     ---       #581
      01001643H   LINE      CODE     ---       #582
      01001648H   LINE      CODE     ---       #583
      0100164EH   LINE      CODE     ---       #584
      01001650H   LINE      CODE     ---       #585
      01001654H   LINE      CODE     ---       #586
      ---         BLOCKEND  ---      ---       LVL=0

      010016B6H   BLOCK     CODE     ---       LVL=0
      010016B6H   LINE      CODE     ---       #591
      010016B6H   LINE      CODE     ---       #592
      010016B6H   LINE      CODE     ---       #593
      010016BBH   LINE      CODE     ---       #594
      010016C1H   LINE      CODE     ---       #595
      010016C3H   LINE      CODE     ---       #596
      010016C7H   LINE      CODE     ---       #597
      ---         BLOCKEND  ---      ---       LVL=0

      ---         MODULE    ---      ---       LM567
      00000035H   PUBLIC    DATA     BYTE      uart_id
      01000CAAH   PUBLIC    CODE     ---       UART1_int
      010013FDH   PUBLIC    CODE     ---       uart_process_recieved
      01000F21H   PUBLIC    CODE     ---       uart_Init
      010010A0H   PUBLIC    CODE     ---       _uart_cache_response
      01001566H   PUBLIC    CODE     ---       uart_send_diagnose_callback
      0100154EH   PUBLIC    CODE     ---       uart_send_test_trace_callback
      01001536H   PUBLIC    CODE     ---       uart_send_status_schedule_callback
      0100151EH   PUBLIC    CODE     ---       uart_send_schedule_callback
      01001506H   PUBLIC    CODE     ---       uart_send_alarmpara_fail
      010014EEH   PUBLIC    CODE     ---       uart_send_alarmpara_success
      010014D6H   PUBLIC    CODE     ---       uart_send_test_alarmpara
      010014BEH   PUBLIC    CODE     ---       uart_send_beep_stop
      010014A6H   PUBLIC    CODE     ---       uart_send_beep_success
      0100148EH   PUBLIC    CODE     ---       uart_send_test_beep_success
      010012CFH   PUBLIC    CODE     ---       uart_send_status_now
      01001476H   PUBLIC    CODE     ---       uart_send_lock_by_hand_fail
      0100145EH   PUBLIC    CODE     ---       uart_send_lock_by_hand_success
      01001446H   PUBLIC    CODE     ---       uart_send_open_fail
      0100142EH   PUBLIC    CODE     ---       uart_send_open_success
      01001416H   PUBLIC    CODE     ---       uart_send_test_lock
      01001235H   PUBLIC    CODE     ---       _send_at_command
      0100125DH   PUBLIC    CODE     ---       _TX1_write2buff
      000000D8H.2 SFRSYM    DATA     BIT       CCF2
      000000E0H.7 SFRSYM    DATA     BIT       ACC7
      00000093H   SFRSYM    DATA     BYTE      P0M1
      00000092H   SFRSYM    DATA     BYTE      P1M0
      00000096H   SFRSYM    DATA     BYTE      P2M0
      00000091H   SFRSYM    DATA     BYTE      P1M1
      00000080H   SFRSYM    DATA     BYTE      P0
      000000B2H   SFRSYM    DATA     BYTE      P3M0
      00000095H   SFRSYM    DATA     BYTE      P2M1
      00000090H   SFRSYM    DATA     BYTE      P1
      000000B4H   SFRSYM    DATA     BYTE      P4M0
LX51 LINKER/LOCATER V4.66.1.0                                                         01/17/2017  13:47:51  PAGE 38


      000000B1H   SFRSYM    DATA     BYTE      P3M1
      000000A0H   SFRSYM    DATA     BYTE      P2
      000000CAH   SFRSYM    DATA     BYTE      P5M0
      000000B3H   SFRSYM    DATA     BYTE      P4M1
      000000B0H   SFRSYM    DATA     BYTE      P3
      000000ABH   SFRSYM    DATA     BYTE      WKTCH
      000000B0H.4 SFRSYM    DATA     BIT       T0
      000000D0H.6 SFRSYM    DATA     BIT       AC
      000000CCH   SFRSYM    DATA     BYTE      P6M0
      000000C9H   SFRSYM    DATA     BYTE      P5M1
      000000C0H   SFRSYM    DATA     BYTE      P4
      000000B0H.5 SFRSYM    DATA     BIT       CLKOUT0
      000000B0H.5 SFRSYM    DATA     BIT       T1
      000000F6H   SFRSYM    DATA     BYTE      PWMIF
      000000E2H   SFRSYM    DATA     BYTE      P7M0
      000000CBH   SFRSYM    DATA     BYTE      P6M1
      000000C8H   SFRSYM    DATA     BYTE      P5
      000000C6H   SFRSYM    DATA     BYTE      ISP_TRIG
      000000A8H.7 SFRSYM    DATA     BIT       EA
      000000B0H.4 SFRSYM    DATA     BIT       CLKOUT1
      000000A0H.4 SFRSYM    DATA     BIT       SPI_SS_2
      000000E8H   SFRSYM    DATA     BYTE      P6
      000000E1H   SFRSYM    DATA     BYTE      P7M1
      000000C8H.4 SFRSYM    DATA     BIT       SPI_SS_3
      00000090H.4 SFRSYM    DATA     BIT       SPI_MISO
      00000090H.3 SFRSYM    DATA     BIT       SPI_MOSI
      00000090H.1 SFRSYM    DATA     BIT       CCP0
      000000F8H   SFRSYM    DATA     BYTE      P7
      000000AAH   SFRSYM    DATA     BYTE      WKTCL
      00000090H   SFRSYM    DATA     BIT       CCP1
      000000CEH   SFRSYM    DATA     BYTE      SPCTL
      000000D8H.7 SFRSYM    DATA     BIT       CF
      000000B0H.7 SFRSYM    DATA     BIT       CCP2
      000000F9H   SFRSYM    DATA     BYTE      CH
      000000F5H   SFRSYM    DATA     BYTE      PWMCR
      000000A2H   SFRSYM    DATA     BYTE      P_SW1
      000000BAH   SFRSYM    DATA     BYTE      P_SW2
      000000A8H.5 SFRSYM    DATA     BIT       EADC
      000000A0H.1 SFRSYM    DATA     BIT       SPI_SCLK_2
      000000A8H   SFRSYM    DATA     BYTE      IE
      000000C0H.3 SFRSYM    DATA     BIT       SPI_SCLK_3
      000000E9H   SFRSYM    DATA     BYTE      CL
      000000C5H   SFRSYM    DATA     BYTE      IAP_CMD
      000000FAH   SFRSYM    DATA     BYTE      CCAP0H
      000000FBH   SFRSYM    DATA     BYTE      CCAP1H
      000000FCH   SFRSYM    DATA     BYTE      CCAP2H
      000000BDH   SFRSYM    DATA     BYTE      ADC_RES
      000000B6H   SFRSYM    DATA     BYTE      IPH2
      000000D8H.6 SFRSYM    DATA     BIT       CR
      000000EAH   SFRSYM    DATA     BYTE      CCAP0L
      000000B0H.7 SFRSYM    DATA     BIT       RD
      000000F7H   SFRSYM    DATA     BYTE      PWMFDCR
      000000EBH   SFRSYM    DATA     BYTE      CCAP1L
      000000DAH   SFRSYM    DATA     BYTE      CCAPM0
      000000ECH   SFRSYM    DATA     BYTE      CCAP2L
      000000DBH   SFRSYM    DATA     BYTE      CCAPM1
      000000A8H.4 SFRSYM    DATA     BIT       ES
      000000DCH   SFRSYM    DATA     BYTE      CCAPM2
      000000B8H.5 SFRSYM    DATA     BIT       PADC
      000000A0H.2 SFRSYM    DATA     BIT       SPI_MISO_2
      000000A0H.3 SFRSYM    DATA     BIT       SPI_MOSI_2
      000000B8H   SFRSYM    DATA     BYTE      IP
      000000C0H.1 SFRSYM    DATA     BIT       SPI_MISO_3
      000000C0H   SFRSYM    DATA     BIT       SPI_MOSI_3
      00000098H   SFRSYM    DATA     BIT       RI
LX51 LINKER/LOCATER V4.66.1.0                                                         01/17/2017  13:47:51  PAGE 39


      000000B0H.2 SFRSYM    DATA     BIT       INT0
      000000D0H.7 SFRSYM    DATA     BIT       CY
      00000098H.1 SFRSYM    DATA     BIT       TI
      000000B0H.3 SFRSYM    DATA     BIT       INT1
      00000097H   SFRSYM    DATA     BYTE      CLK_DIV
      000000C3H   SFRSYM    DATA     BYTE      IAP_ADDRH
      00000090H   SFRSYM    DATA     BIT       RXD2
      000000C5H   SFRSYM    DATA     BYTE      ISP_CMD
      000000B8H.4 SFRSYM    DATA     BIT       PS
      00000090H.1 SFRSYM    DATA     BIT       TXD2
      00000081H   SFRSYM    DATA     BYTE      SP
      000000D9H   SFRSYM    DATA     BYTE      CMOD
      000000D8H   SFRSYM    DATA     BYTE      CCON
      000000C4H   SFRSYM    DATA     BYTE      IAP_ADDRL
      000000B8H.7 SFRSYM    DATA     BIT       PPCA
      000000D0H.2 SFRSYM    DATA     BIT       OV
      000000E6H   SFRSYM    DATA     BYTE      CMPCR1
      000000B0H.6 SFRSYM    DATA     BIT       WR
      000000E7H   SFRSYM    DATA     BYTE      CMPCR2
      000000A8H.6 SFRSYM    DATA     BIT       ELVD
      00000080H   SFRSYM    DATA     BIT       P00
      00000090H   SFRSYM    DATA     BIT       P10
      00000080H.1 SFRSYM    DATA     BIT       P01
      000000BCH   SFRSYM    DATA     BYTE      ADC_CONTR
      00000099H   SFRSYM    DATA     BYTE      SBUF
      00000087H   SFRSYM    DATA     BYTE      PCON
      000000A0H   SFRSYM    DATA     BIT       P20
      00000090H.1 SFRSYM    DATA     BIT       P11
      00000080H.2 SFRSYM    DATA     BIT       P02
      000000C3H   SFRSYM    DATA     BYTE      ISP_ADDRH
      000000B0H   SFRSYM    DATA     BIT       P30
      000000A0H.1 SFRSYM    DATA     BIT       P21
      00000090H.2 SFRSYM    DATA     BIT       P12
      00000080H.3 SFRSYM    DATA     BIT       P03
      000000C0H   SFRSYM    DATA     BIT       P40
      000000B0H.1 SFRSYM    DATA     BIT       P31
      000000A0H.2 SFRSYM    DATA     BIT       P22
      00000090H.3 SFRSYM    DATA     BIT       P13
      00000080H.4 SFRSYM    DATA     BIT       P04
      00000098H   SFRSYM    DATA     BYTE      SCON
      0000008FH   SFRSYM    DATA     BYTE      WAKE_CLKO
      000000C8H   SFRSYM    DATA     BIT       P50
      000000C0H.1 SFRSYM    DATA     BIT       P41
      000000B0H.2 SFRSYM    DATA     BIT       P32
      000000A0H.3 SFRSYM    DATA     BIT       P23
      00000090H.4 SFRSYM    DATA     BIT       P14
      00000080H.5 SFRSYM    DATA     BIT       P05
      00000089H   SFRSYM    DATA     BYTE      TMOD
      00000088H   SFRSYM    DATA     BYTE      TCON
      000000E8H   SFRSYM    DATA     BIT       P60
      000000C8H.1 SFRSYM    DATA     BIT       P51
      000000C0H.2 SFRSYM    DATA     BIT       P42
      000000B0H.3 SFRSYM    DATA     BIT       P33
      000000A0H.4 SFRSYM    DATA     BIT       P24
      00000090H.5 SFRSYM    DATA     BIT       P15
      00000080H.6 SFRSYM    DATA     BIT       P06
      000000C4H   SFRSYM    DATA     BYTE      ISP_ADDRL
      000000B8H.6 SFRSYM    DATA     BIT       PLVD
      000000F8H   SFRSYM    DATA     BIT       P70
      000000E8H.1 SFRSYM    DATA     BIT       P61
      000000C8H.2 SFRSYM    DATA     BIT       P52
      000000C0H.3 SFRSYM    DATA     BIT       P43
      000000B0H.4 SFRSYM    DATA     BIT       P34
      000000A0H.5 SFRSYM    DATA     BIT       P25
      00000090H.6 SFRSYM    DATA     BIT       P16
LX51 LINKER/LOCATER V4.66.1.0                                                         01/17/2017  13:47:51  PAGE 40


      00000080H.7 SFRSYM    DATA     BIT       P07
      000000F8H.1 SFRSYM    DATA     BIT       P71
      000000E8H.2 SFRSYM    DATA     BIT       P62
      000000C8H.3 SFRSYM    DATA     BIT       P53
      000000C0H.4 SFRSYM    DATA     BIT       P44
      000000B0H.5 SFRSYM    DATA     BIT       P35
      000000A0H.6 SFRSYM    DATA     BIT       P26
      00000090H.7 SFRSYM    DATA     BIT       P17
      000000F8H.2 SFRSYM    DATA     BIT       P72
      000000E8H.3 SFRSYM    DATA     BIT       P63
      000000C8H.4 SFRSYM    DATA     BIT       P54
      000000C0H.5 SFRSYM    DATA     BIT       P45
      000000B0H.6 SFRSYM    DATA     BIT       P36
      000000A0H.7 SFRSYM    DATA     BIT       P27
      000000F8H.3 SFRSYM    DATA     BIT       P73
      000000E8H.4 SFRSYM    DATA     BIT       P64
      000000C8H.5 SFRSYM    DATA     BIT       P55
      000000C0H.6 SFRSYM    DATA     BIT       P46
      000000B0H.7 SFRSYM    DATA     BIT       P37
      000000F8H.4 SFRSYM    DATA     BIT       P74
      000000E8H.5 SFRSYM    DATA     BIT       P65
      000000C8H.6 SFRSYM    DATA     BIT       P56
      000000C0H.7 SFRSYM    DATA     BIT       P47
      000000F8H.5 SFRSYM    DATA     BIT       P75
      000000E8H.6 SFRSYM    DATA     BIT       P66
      000000C8H.7 SFRSYM    DATA     BIT       P57
      000000F8H.6 SFRSYM    DATA     BIT       P76
      000000E8H.7 SFRSYM    DATA     BIT       P67
      000000F8H.7 SFRSYM    DATA     BIT       P77
      00000088H.1 SFRSYM    DATA     BIT       IE0
      000000A1H   SFRSYM    DATA     BYTE      BUS_SPEED
      00000088H.3 SFRSYM    DATA     BIT       IE1
      000000AFH   SFRSYM    DATA     BYTE      IE2
      000000F0H   SFRSYM    DATA     BYTE      B
      0000008EH   SFRSYM    DATA     BYTE      AUXR
      000000C7H   SFRSYM    DATA     BYTE      IAP_CONTR
      000000F1H   SFRSYM    DATA     BYTE      PWMCFG
      000000E0H   SFRSYM    DATA     BYTE      ACC
      000000A8H.1 SFRSYM    DATA     BIT       ET0
      000000A8H.3 SFRSYM    DATA     BIT       ET1
      00000088H.5 SFRSYM    DATA     BIT       TF0
      00000088H.7 SFRSYM    DATA     BIT       TF1
      000000B5H   SFRSYM    DATA     BYTE      IP2
      0000008CH   SFRSYM    DATA     BYTE      RL_TH0
      00000098H.2 SFRSYM    DATA     BIT       RB8
      0000008DH   SFRSYM    DATA     BYTE      RL_TH1
      0000008CH   SFRSYM    DATA     BYTE      TH0
      000000A8H   SFRSYM    DATA     BIT       EX0
      00000088H   SFRSYM    DATA     BIT       IT0
      000000D6H   SFRSYM    DATA     BYTE      RL_T2H
      0000008DH   SFRSYM    DATA     BYTE      TH1
      000000A8H.2 SFRSYM    DATA     BIT       EX1
      00000098H.3 SFRSYM    DATA     BIT       TB8
      00000088H.2 SFRSYM    DATA     BIT       IT1
      000000D4H   SFRSYM    DATA     BYTE      RL_T3H
      000000D6H   SFRSYM    DATA     BYTE      TH2
      000000D6H   SFRSYM    DATA     BYTE      T2H
      000000D0H   SFRSYM    DATA     BIT       P
      000000D2H   SFRSYM    DATA     BYTE      RL_T4H
      000000D4H   SFRSYM    DATA     BYTE      TH3
      000000D4H   SFRSYM    DATA     BYTE      T3H
      0000008AH   SFRSYM    DATA     BYTE      RL_TL0
      00000098H.7 SFRSYM    DATA     BIT       SM0
      000000D2H   SFRSYM    DATA     BYTE      TH4
      000000D2H   SFRSYM    DATA     BYTE      T4H
LX51 LINKER/LOCATER V4.66.1.0                                                         01/17/2017  13:47:51  PAGE 41


      0000008BH   SFRSYM    DATA     BYTE      RL_TL1
      0000008AH   SFRSYM    DATA     BYTE      TL0
      00000098H.6 SFRSYM    DATA     BIT       SM1
      000000D7H   SFRSYM    DATA     BYTE      RL_T2L
      0000008BH   SFRSYM    DATA     BYTE      TL1
      00000098H.5 SFRSYM    DATA     BIT       SM2
      000000D5H   SFRSYM    DATA     BYTE      RL_T3L
      000000D7H   SFRSYM    DATA     BYTE      TL2
      000000D7H   SFRSYM    DATA     BYTE      T2L
      000000D3H   SFRSYM    DATA     BYTE      RL_T4L
      000000D5H   SFRSYM    DATA     BYTE      TL3
      000000D5H   SFRSYM    DATA     BYTE      T3L
      000000B8H.1 SFRSYM    DATA     BIT       PT0
      000000D3H   SFRSYM    DATA     BYTE      TL4
      000000D3H   SFRSYM    DATA     BYTE      T4L
      000000B8H.3 SFRSYM    DATA     BIT       PT1
      000000D0H.3 SFRSYM    DATA     BIT       RS0
      000000C7H   SFRSYM    DATA     BYTE      ISP_CONTR
      00000088H.4 SFRSYM    DATA     BIT       TR0
      000000D0H.4 SFRSYM    DATA     BIT       RS1
      000000C2H   SFRSYM    DATA     BYTE      IAP_DATA
      00000088H.6 SFRSYM    DATA     BIT       TR1
      000000B8H   SFRSYM    DATA     BIT       PX0
      000000C1H   SFRSYM    DATA     BYTE      WDT_CONTR
      000000B8H.2 SFRSYM    DATA     BIT       PX1
      000000F2H   SFRSYM    DATA     BYTE      PCA_PWM0
      000000F3H   SFRSYM    DATA     BYTE      PCA_PWM1
      000000F4H   SFRSYM    DATA     BYTE      PCA_PWM2
      0000009DH   SFRSYM    DATA     BYTE      P1ASF
      00000083H   SFRSYM    DATA     BYTE      DPH
      000000D1H   SFRSYM    DATA     BYTE      T4T3M
      000000BEH   SFRSYM    DATA     BYTE      ADC_RESL
      00000082H   SFRSYM    DATA     BYTE      DPL
      000000CDH   SFRSYM    DATA     BYTE      SPSTAT
      000000B7H   SFRSYM    DATA     BYTE      IPH
      0000009BH   SFRSYM    DATA     BYTE      S2BUF
      00000097H   SFRSYM    DATA     BYTE      PCON2
      000000ADH   SFRSYM    DATA     BYTE      S3BUF
      00000098H.4 SFRSYM    DATA     BIT       REN
      00000085H   SFRSYM    DATA     BYTE      S4BUF
      0000009AH   SFRSYM    DATA     BYTE      S2CON
      000000ACH   SFRSYM    DATA     BYTE      S3CON
      000000C2H   SFRSYM    DATA     BYTE      ISP_DATA
      00000084H   SFRSYM    DATA     BYTE      S4CON
      000000B9H   SFRSYM    DATA     BYTE      SADEN
      000000B0H   SFRSYM    DATA     BIT       RXD
      000000A9H   SFRSYM    DATA     BYTE      SADDR
      000000B0H.1 SFRSYM    DATA     BIT       TXD
      000000F0H   SFRSYM    DATA     BIT       B0
      000000F0H.1 SFRSYM    DATA     BIT       B1
      000000C6H   SFRSYM    DATA     BYTE      IAP_TRIG
      000000A2H   SFRSYM    DATA     BYTE      AUXR1
      000000F0H.2 SFRSYM    DATA     BIT       B2
      00000090H.2 SFRSYM    DATA     BIT       SPI_SS
      0000008FH   SFRSYM    DATA     BYTE      AUXR2
      000000F0H.3 SFRSYM    DATA     BIT       B3
      000000F0H.4 SFRSYM    DATA     BIT       B4
      000000D0H.5 SFRSYM    DATA     BIT       F0
      000000F0H.5 SFRSYM    DATA     BIT       B5
      000000D0H.1 SFRSYM    DATA     BIT       F1
      0000008FH   SFRSYM    DATA     BYTE      INT_CLKO
      000000F0H.6 SFRSYM    DATA     BIT       B6
      000000E0H   SFRSYM    DATA     BIT       ACC0
      000000F0H.7 SFRSYM    DATA     BIT       B7
      000000E0H.1 SFRSYM    DATA     BIT       ACC1
LX51 LINKER/LOCATER V4.66.1.0                                                         01/17/2017  13:47:51  PAGE 42


      000000E0H.2 SFRSYM    DATA     BIT       ACC2
      000000E0H.3 SFRSYM    DATA     BIT       ACC3
      000000D0H   SFRSYM    DATA     BYTE      PSW
      000000E0H.4 SFRSYM    DATA     BIT       ACC4
      00000090H.5 SFRSYM    DATA     BIT       SPI_SCLK
      000000D8H   SFRSYM    DATA     BIT       CCF0
      000000E0H.5 SFRSYM    DATA     BIT       ACC5
      000000D8H.1 SFRSYM    DATA     BIT       CCF1
      000000E0H.6 SFRSYM    DATA     BIT       ACC6
      000000CFH   SFRSYM    DATA     BYTE      SPDAT
      00000094H   SFRSYM    DATA     BYTE      P0M0
      010004F4H   SYMBOL    CODE     ---       _uart_dispatch_cmd
      02000000H   SYMBOL    XDATA    ---       RX1_Buffer
      02000040H   SYMBOL    XDATA    ---       TX1_Buffer
      02000054H   SYMBOL    XDATA    ---       cached_response_line
      02000094H   SYMBOL    XDATA    ---       command

      0100125DH   BLOCK     CODE     ---       LVL=0
      00000007H   SYMBOL    DATA     CHAR      dat
      0100125DH   LINE      CODE     ---       #24
      0100125DH   LINE      CODE     ---       #25
      0100125DH   LINE      CODE     ---       #26
      0100126CH   LINE      CODE     ---       #27
      01001277H   LINE      CODE     ---       #28
      01001279H   LINE      CODE     ---       #31
      0100127FH   LINE      CODE     ---       #32
      0100127FH   LINE      CODE     ---       #33
      01001281H   LINE      CODE     ---       #34
      01001283H   LINE      CODE     ---       #35
      01001283H   LINE      CODE     ---       #36
      ---         BLOCKEND  ---      ---       LVL=0
      00000004H   SYMBOL    DATA     INT       i

      01001235H   BLOCK     CODE     ---       LVL=0
      0000002FH   SYMBOL    DATA     ---       r
      0100123BH   BLOCK     CODE     NEAR LAB  LVL=1
      00000005H   SYMBOL    DATA     BYTE      i
      00000006H   SYMBOL    DATA     BYTE      len
      ---         BLOCKEND  ---      ---       LVL=1
      01001235H   LINE      CODE     ---       #47
      0100123BH   LINE      CODE     ---       #48
      0100123BH   LINE      CODE     ---       #50
      01001240H   LINE      CODE     ---       #51
      01001247H   LINE      CODE     ---       #52
      0100125CH   LINE      CODE     ---       #53
      ---         BLOCKEND  ---      ---       LVL=0

      01001416H   BLOCK     CODE     ---       LVL=0
      01001416H   LINE      CODE     ---       #57
      01001416H   LINE      CODE     ---       #58
      01001416H   LINE      CODE     ---       #59
      01001425H   LINE      CODE     ---       #60
      ---         BLOCKEND  ---      ---       LVL=0

      0100142EH   BLOCK     CODE     ---       LVL=0
      0100142EH   LINE      CODE     ---       #63
      0100142EH   LINE      CODE     ---       #64
      0100142EH   LINE      CODE     ---       #65
      0100143DH   LINE      CODE     ---       #66
      ---         BLOCKEND  ---      ---       LVL=0

      01001446H   BLOCK     CODE     ---       LVL=0
      01001446H   LINE      CODE     ---       #70
      01001446H   LINE      CODE     ---       #71
      01001446H   LINE      CODE     ---       #72
LX51 LINKER/LOCATER V4.66.1.0                                                         01/17/2017  13:47:51  PAGE 43


      01001455H   LINE      CODE     ---       #73
      ---         BLOCKEND  ---      ---       LVL=0

      0100145EH   BLOCK     CODE     ---       LVL=0
      0100145EH   LINE      CODE     ---       #77
      0100145EH   LINE      CODE     ---       #78
      0100145EH   LINE      CODE     ---       #79
      0100146DH   LINE      CODE     ---       #80
      ---         BLOCKEND  ---      ---       LVL=0

      01001476H   BLOCK     CODE     ---       LVL=0
      01001476H   LINE      CODE     ---       #83
      01001476H   LINE      CODE     ---       #84
      01001476H   LINE      CODE     ---       #85
      01001485H   LINE      CODE     ---       #86
      ---         BLOCKEND  ---      ---       LVL=0

      010012CFH   BLOCK     CODE     ---       LVL=0
      010012CFH   LINE      CODE     ---       #89
      010012CFH   LINE      CODE     ---       #90
      010012CFH   LINE      CODE     ---       #92
      010012DCH   LINE      CODE     ---       #93
      010012E2H   LINE      CODE     ---       #95
      010012E9H   LINE      CODE     ---       #96
      ---         BLOCKEND  ---      ---       LVL=0

      0100148EH   BLOCK     CODE     ---       LVL=0
      0100148EH   LINE      CODE     ---       #101
      0100148EH   LINE      CODE     ---       #102
      0100148EH   LINE      CODE     ---       #103
      0100149DH   LINE      CODE     ---       #104
      ---         BLOCKEND  ---      ---       LVL=0

      010014A6H   BLOCK     CODE     ---       LVL=0
      010014A6H   LINE      CODE     ---       #108
      010014A6H   LINE      CODE     ---       #109
      010014A6H   LINE      CODE     ---       #110
      010014B5H   LINE      CODE     ---       #111
      ---         BLOCKEND  ---      ---       LVL=0

      010014BEH   BLOCK     CODE     ---       LVL=0
      010014BEH   LINE      CODE     ---       #115
      010014BEH   LINE      CODE     ---       #116
      010014CDH   LINE      CODE     ---       #117
      ---         BLOCKEND  ---      ---       LVL=0

      010014D6H   BLOCK     CODE     ---       LVL=0
      010014D6H   LINE      CODE     ---       #122
      010014D6H   LINE      CODE     ---       #123
      010014D6H   LINE      CODE     ---       #124
      010014E5H   LINE      CODE     ---       #125
      ---         BLOCKEND  ---      ---       LVL=0

      010014EEH   BLOCK     CODE     ---       LVL=0
      010014EEH   LINE      CODE     ---       #129
      010014EEH   LINE      CODE     ---       #130
      010014EEH   LINE      CODE     ---       #131
      010014FDH   LINE      CODE     ---       #132
      ---         BLOCKEND  ---      ---       LVL=0

      01001506H   BLOCK     CODE     ---       LVL=0
      01001506H   LINE      CODE     ---       #135
      01001506H   LINE      CODE     ---       #136
      01001515H   LINE      CODE     ---       #137
      ---         BLOCKEND  ---      ---       LVL=0
LX51 LINKER/LOCATER V4.66.1.0                                                         01/17/2017  13:47:51  PAGE 44



      0100151EH   BLOCK     CODE     ---       LVL=0
      0100151EH   LINE      CODE     ---       #148
      0100151EH   LINE      CODE     ---       #149
      0100151EH   LINE      CODE     ---       #150
      0100152DH   LINE      CODE     ---       #151
      ---         BLOCKEND  ---      ---       LVL=0

      01001536H   BLOCK     CODE     ---       LVL=0
      01001536H   LINE      CODE     ---       #154
      01001536H   LINE      CODE     ---       #155
      01001536H   LINE      CODE     ---       #156
      01001545H   LINE      CODE     ---       #157
      ---         BLOCKEND  ---      ---       LVL=0

      0100154EH   BLOCK     CODE     ---       LVL=0
      0100154EH   LINE      CODE     ---       #162
      0100154EH   LINE      CODE     ---       #163
      0100154EH   LINE      CODE     ---       #164
      0100155DH   LINE      CODE     ---       #165
      ---         BLOCKEND  ---      ---       LVL=0

      01001566H   BLOCK     CODE     ---       LVL=0
      01001566H   LINE      CODE     ---       #181
      01001566H   LINE      CODE     ---       #182
      01001575H   LINE      CODE     ---       #183
      ---         BLOCKEND  ---      ---       LVL=0

      010004F4H   BLOCK     CODE     ---       LVL=0
      0000002CH   SYMBOL    DATA     ---       cmd
      010004F4H   LINE      CODE     ---       #196
      010004FAH   LINE      CODE     ---       #197
      01000513H   LINE      CODE     ---       #198
      0100052BH   LINE      CODE     ---       #201
      0100052EH   LINE      CODE     ---       #202
      0100052EH   LINE      CODE     ---       #203
      01000549H   LINE      CODE     ---       #207
      0100054CH   LINE      CODE     ---       #208
      0100054FH   LINE      CODE     ---       #209
      01000551H   LINE      CODE     ---       #210
      01000554H   LINE      CODE     ---       #211
      01000557H   LINE      CODE     ---       #212
      0100055AH   LINE      CODE     ---       #213
      0100055FH   LINE      CODE     ---       #214
      0100055FH   LINE      CODE     ---       #215
      0100057AH   LINE      CODE     ---       #219
      0100057DH   LINE      CODE     ---       #220
      0100057DH   LINE      CODE     ---       #221
      0100058EH   LINE      CODE     ---       #225
      01000590H   LINE      CODE     ---       #226
      01000593H   LINE      CODE     ---       #228
      01000593H   LINE      CODE     ---       #229
      01000593H   LINE      CODE     ---       #230
      01000593H   LINE      CODE     ---       #232
      010005ABH   LINE      CODE     ---       #233
      010005BAH   LINE      CODE     ---       #236
      010005BDH   LINE      CODE     ---       #237
      010005CCH   LINE      CODE     ---       #241
      010005CFH   LINE      CODE     ---       #242
      010005D2H   LINE      CODE     ---       #243
      010005D5H   LINE      CODE     ---       #244
      010005D8H   LINE      CODE     ---       #245
      010005E7H   LINE      CODE     ---       #248
      010005EAH   LINE      CODE     ---       #249
      010005EDH   LINE      CODE     ---       #250
LX51 LINKER/LOCATER V4.66.1.0                                                         01/17/2017  13:47:51  PAGE 45


      010005EFH   LINE      CODE     ---       #251
      010005F2H   LINE      CODE     ---       #252
      010005F2H   LINE      CODE     ---       #253
      010005F5H   LINE      CODE     ---       #254
      010005F5H   LINE      CODE     ---       #255
      010005F5H   LINE      CODE     ---       #256
      01000611H   LINE      CODE     ---       #257
      01000620H   LINE      CODE     ---       #260
      01000623H   LINE      CODE     ---       #261
      01000623H   LINE      CODE     ---       #263
      01000643H   LINE      CODE     ---       #264
      010006CCH   LINE      CODE     ---       #265
      010006D5H   LINE      CODE     ---       #266
      010006D5H   LINE      CODE     ---       #267
      010006F8H   LINE      CODE     ---       #268
      010007A7H   LINE      CODE     ---       #269
      010007B7H   LINE      CODE     ---       #270
      010007BAH   LINE      CODE     ---       #271
      010007BAH   LINE      CODE     ---       #273
      010007BDH   LINE      CODE     ---       #274
      010007BDH   LINE      CODE     ---       #275
      010007BDH   LINE      CODE     ---       #277
      010007BDH   LINE      CODE     ---       #278
      010007D6H   LINE      CODE     ---       #279
      010007E5H   LINE      CODE     ---       #281
      010007E8H   LINE      CODE     ---       #282
      010007F7H   LINE      CODE     ---       #287
      010007FAH   LINE      CODE     ---       #288
      010007FDH   LINE      CODE     ---       #289
      01000803H   LINE      CODE     ---       #290
      01000806H   LINE      CODE     ---       #291
      01000806H   LINE      CODE     ---       #292
      01000806H   LINE      CODE     ---       #293
      01000806H   LINE      CODE     ---       #294
      0100081EH   LINE      CODE     ---       #295
      0100082DH   LINE      CODE     ---       #298
      01000830H   LINE      CODE     ---       #299
      0100083FH   LINE      CODE     ---       #303
      01000842H   LINE      CODE     ---       #304
      01000848H   LINE      CODE     ---       #305
      0100084BH   LINE      CODE     ---       #306
      0100084BH   LINE      CODE     ---       #307
      0100085CH   LINE      CODE     ---       #311
      0100085FH   LINE      CODE     ---       #312
      01000862H   LINE      CODE     ---       #313
      01000865H   LINE      CODE     ---       #314
      01000865H   LINE      CODE     ---       #315
      01000865H   LINE      CODE     ---       #316
      01000865H   LINE      CODE     ---       #317
      01000867H   LINE      CODE     ---       #319
      0100087DH   LINE      CODE     ---       #320
      01000880H   LINE      CODE     ---       #321
      01000880H   LINE      CODE     ---       #322
      01000882H   LINE      CODE     ---       #323
      01000882H   LINE      CODE     ---       #324
      01000885H   LINE      CODE     ---       #325
      01000885H   LINE      CODE     ---       #326
      ---         BLOCKEND  ---      ---       LVL=0

      010010A0H   BLOCK     CODE     ---       LVL=0
      0000002AH   SYMBOL    DATA     ---       r
      010010A4H   BLOCK     CODE     NEAR LAB  LVL=1
      00000001H   SYMBOL    DATA     ---       token
      ---         BLOCKEND  ---      ---       LVL=1
      010010A0H   LINE      CODE     ---       #329
LX51 LINKER/LOCATER V4.66.1.0                                                         01/17/2017  13:47:51  PAGE 46


      010010A4H   LINE      CODE     ---       #330
      010010A4H   LINE      CODE     ---       #332
      010010B3H   LINE      CODE     ---       #333
      010010C2H   LINE      CODE     ---       #334
      010010CDH   LINE      CODE     ---       #335
      010010D2H   LINE      CODE     ---       #336
      010010D5H   LINE      CODE     ---       #338
      010010D8H   LINE      CODE     ---       #339
      ---         BLOCKEND  ---      ---       LVL=0
      00000001H   SYMBOL    DATA     ---       puts

      01000F21H   BLOCK     CODE     ---       LVL=0
      01000F21H   LINE      CODE     ---       #347
      01000F21H   LINE      CODE     ---       #348
      01000F30H   LINE      CODE     ---       #349
      01000F3FH   LINE      CODE     ---       #350
      01000F46H   LINE      CODE     ---       #353
      01000F4EH   LINE      CODE     ---       #354
      01000F51H   LINE      CODE     ---       #355
      01000F53H   LINE      CODE     ---       #356
      01000F56H   LINE      CODE     ---       #358
      01000F59H   LINE      CODE     ---       #359
      01000F5FH   LINE      CODE     ---       #360
      01000F65H   LINE      CODE     ---       #362
      01000F68H   LINE      CODE     ---       #365
      ---         BLOCKEND  ---      ---       LVL=0

      010013FDH   BLOCK     CODE     ---       LVL=0
      010013FDH   LINE      CODE     ---       #369
      010013FDH   LINE      CODE     ---       #371
      01001405H   LINE      CODE     ---       #372
      01001408H   LINE      CODE     ---       #373
      0100140FH   LINE      CODE     ---       #374
      ---         BLOCKEND  ---      ---       LVL=0

      01000CAAH   BLOCK     CODE     ---       LVL=0
      01000CAAH   LINE      CODE     ---       #379
      01000CB7H   LINE      CODE     ---       #381
      01000CBAH   LINE      CODE     ---       #382
      01000CBAH   LINE      CODE     ---       #383
      01000CBCH   LINE      CODE     ---       #386
      01000CC2H   LINE      CODE     ---       #387
      01000CC2H   LINE      CODE     ---       #388
      01000CCBH   LINE      CODE     ---       #389
      01000CCDH   LINE      CODE     ---       #390
      01000CE1H   LINE      CODE     ---       #391
      01000CE7H   LINE      CODE     ---       #392
      01000CE7H   LINE      CODE     ---       #395
      01000CE7H   LINE      CODE     ---       #398
      01000CEAH   LINE      CODE     ---       #399
      01000CEAH   LINE      CODE     ---       #400
      01000CECH   LINE      CODE     ---       #401
      01000CF8H   LINE      CODE     ---       #402
      01000CF8H   LINE      CODE     ---       #403
      01000D05H   LINE      CODE     ---       #404
      01000D10H   LINE      CODE     ---       #405
      01000D12H   LINE      CODE     ---       #406
      01000D14H   LINE      CODE     ---       #408
      01000D19H   LINE      CODE     ---       #409
      01000D19H   LINE      CODE     ---       #410
      ---         BLOCKEND  ---      ---       LVL=0

      ---         MODULE    ---      ---       MAIN
      01000886H   PUBLIC    CODE     ---       main
      010017F4H   PUBLIC    CODE     ---       instant_effective_init
LX51 LINKER/LOCATER V4.66.1.0                                                         01/17/2017  13:47:51  PAGE 47


      01001715H   PUBLIC    CODE     ---       Delay1000ms
      000000D8H.2 SFRSYM    DATA     BIT       CCF2
      000000E0H.7 SFRSYM    DATA     BIT       ACC7
      00000093H   SFRSYM    DATA     BYTE      P0M1
      00000092H   SFRSYM    DATA     BYTE      P1M0
      00000096H   SFRSYM    DATA     BYTE      P2M0
      00000091H   SFRSYM    DATA     BYTE      P1M1
      00000080H   SFRSYM    DATA     BYTE      P0
      000000B2H   SFRSYM    DATA     BYTE      P3M0
      00000095H   SFRSYM    DATA     BYTE      P2M1
      00000090H   SFRSYM    DATA     BYTE      P1
      000000B4H   SFRSYM    DATA     BYTE      P4M0
      000000B1H   SFRSYM    DATA     BYTE      P3M1
      000000A0H   SFRSYM    DATA     BYTE      P2
      000000CAH   SFRSYM    DATA     BYTE      P5M0
      000000B3H   SFRSYM    DATA     BYTE      P4M1
      000000B0H   SFRSYM    DATA     BYTE      P3
      000000ABH   SFRSYM    DATA     BYTE      WKTCH
      000000B0H.4 SFRSYM    DATA     BIT       T0
      000000D0H.6 SFRSYM    DATA     BIT       AC
      000000CCH   SFRSYM    DATA     BYTE      P6M0
      000000C9H   SFRSYM    DATA     BYTE      P5M1
      000000C0H   SFRSYM    DATA     BYTE      P4
      000000B0H.5 SFRSYM    DATA     BIT       CLKOUT0
      000000B0H.5 SFRSYM    DATA     BIT       T1
      000000F6H   SFRSYM    DATA     BYTE      PWMIF
      000000E2H   SFRSYM    DATA     BYTE      P7M0
      000000CBH   SFRSYM    DATA     BYTE      P6M1
      000000C8H   SFRSYM    DATA     BYTE      P5
      000000C6H   SFRSYM    DATA     BYTE      ISP_TRIG
      000000A8H.7 SFRSYM    DATA     BIT       EA
      000000B0H.4 SFRSYM    DATA     BIT       CLKOUT1
      000000A0H.4 SFRSYM    DATA     BIT       SPI_SS_2
      000000E8H   SFRSYM    DATA     BYTE      P6
      000000E1H   SFRSYM    DATA     BYTE      P7M1
      000000C8H.4 SFRSYM    DATA     BIT       SPI_SS_3
      00000090H.4 SFRSYM    DATA     BIT       SPI_MISO
      00000090H.3 SFRSYM    DATA     BIT       SPI_MOSI
      00000090H.1 SFRSYM    DATA     BIT       CCP0
      000000F8H   SFRSYM    DATA     BYTE      P7
      000000AAH   SFRSYM    DATA     BYTE      WKTCL
      00000090H   SFRSYM    DATA     BIT       CCP1
      000000CEH   SFRSYM    DATA     BYTE      SPCTL
      000000D8H.7 SFRSYM    DATA     BIT       CF
      000000B0H.7 SFRSYM    DATA     BIT       CCP2
      000000F9H   SFRSYM    DATA     BYTE      CH
      000000F5H   SFRSYM    DATA     BYTE      PWMCR
      000000A2H   SFRSYM    DATA     BYTE      P_SW1
      000000BAH   SFRSYM    DATA     BYTE      P_SW2
      000000A8H.5 SFRSYM    DATA     BIT       EADC
      000000A0H.1 SFRSYM    DATA     BIT       SPI_SCLK_2
      000000A8H   SFRSYM    DATA     BYTE      IE
      000000C0H.3 SFRSYM    DATA     BIT       SPI_SCLK_3
      000000E9H   SFRSYM    DATA     BYTE      CL
      000000C5H   SFRSYM    DATA     BYTE      IAP_CMD
      000000FAH   SFRSYM    DATA     BYTE      CCAP0H
      000000FBH   SFRSYM    DATA     BYTE      CCAP1H
      000000FCH   SFRSYM    DATA     BYTE      CCAP2H
      000000BDH   SFRSYM    DATA     BYTE      ADC_RES
      000000B6H   SFRSYM    DATA     BYTE      IPH2
      000000D8H.6 SFRSYM    DATA     BIT       CR
      000000EAH   SFRSYM    DATA     BYTE      CCAP0L
      000000B0H.7 SFRSYM    DATA     BIT       RD
      000000F7H   SFRSYM    DATA     BYTE      PWMFDCR
      000000EBH   SFRSYM    DATA     BYTE      CCAP1L
LX51 LINKER/LOCATER V4.66.1.0                                                         01/17/2017  13:47:51  PAGE 48


      000000DAH   SFRSYM    DATA     BYTE      CCAPM0
      000000ECH   SFRSYM    DATA     BYTE      CCAP2L
      000000DBH   SFRSYM    DATA     BYTE      CCAPM1
      000000A8H.4 SFRSYM    DATA     BIT       ES
      000000DCH   SFRSYM    DATA     BYTE      CCAPM2
      000000B8H.5 SFRSYM    DATA     BIT       PADC
      000000A0H.2 SFRSYM    DATA     BIT       SPI_MISO_2
      000000A0H.3 SFRSYM    DATA     BIT       SPI_MOSI_2
      000000B8H   SFRSYM    DATA     BYTE      IP
      000000C0H.1 SFRSYM    DATA     BIT       SPI_MISO_3
      000000C0H   SFRSYM    DATA     BIT       SPI_MOSI_3
      00000098H   SFRSYM    DATA     BIT       RI
      000000B0H.2 SFRSYM    DATA     BIT       INT0
      000000D0H.7 SFRSYM    DATA     BIT       CY
      00000098H.1 SFRSYM    DATA     BIT       TI
      000000B0H.3 SFRSYM    DATA     BIT       INT1
      00000097H   SFRSYM    DATA     BYTE      CLK_DIV
      000000C3H   SFRSYM    DATA     BYTE      IAP_ADDRH
      00000090H   SFRSYM    DATA     BIT       RXD2
      000000C5H   SFRSYM    DATA     BYTE      ISP_CMD
      000000B8H.4 SFRSYM    DATA     BIT       PS
      00000090H.1 SFRSYM    DATA     BIT       TXD2
      00000081H   SFRSYM    DATA     BYTE      SP
      000000D9H   SFRSYM    DATA     BYTE      CMOD
      000000D8H   SFRSYM    DATA     BYTE      CCON
      000000C4H   SFRSYM    DATA     BYTE      IAP_ADDRL
      000000B8H.7 SFRSYM    DATA     BIT       PPCA
      000000D0H.2 SFRSYM    DATA     BIT       OV
      000000E6H   SFRSYM    DATA     BYTE      CMPCR1
      000000B0H.6 SFRSYM    DATA     BIT       WR
      000000E7H   SFRSYM    DATA     BYTE      CMPCR2
      000000A8H.6 SFRSYM    DATA     BIT       ELVD
      00000080H   SFRSYM    DATA     BIT       P00
      00000090H   SFRSYM    DATA     BIT       P10
      00000080H.1 SFRSYM    DATA     BIT       P01
      000000BCH   SFRSYM    DATA     BYTE      ADC_CONTR
      00000099H   SFRSYM    DATA     BYTE      SBUF
      00000087H   SFRSYM    DATA     BYTE      PCON
      000000A0H   SFRSYM    DATA     BIT       P20
      00000090H.1 SFRSYM    DATA     BIT       P11
      00000080H.2 SFRSYM    DATA     BIT       P02
      000000C3H   SFRSYM    DATA     BYTE      ISP_ADDRH
      000000B0H   SFRSYM    DATA     BIT       P30
      000000A0H.1 SFRSYM    DATA     BIT       P21
      00000090H.2 SFRSYM    DATA     BIT       P12
      00000080H.3 SFRSYM    DATA     BIT       P03
      000000C0H   SFRSYM    DATA     BIT       P40
      000000B0H.1 SFRSYM    DATA     BIT       P31
      000000A0H.2 SFRSYM    DATA     BIT       P22
      00000090H.3 SFRSYM    DATA     BIT       P13
      00000080H.4 SFRSYM    DATA     BIT       P04
      00000098H   SFRSYM    DATA     BYTE      SCON
      0000008FH   SFRSYM    DATA     BYTE      WAKE_CLKO
      000000C8H   SFRSYM    DATA     BIT       P50
      000000C0H.1 SFRSYM    DATA     BIT       P41
      000000B0H.2 SFRSYM    DATA     BIT       P32
      000000A0H.3 SFRSYM    DATA     BIT       P23
      00000090H.4 SFRSYM    DATA     BIT       P14
      00000080H.5 SFRSYM    DATA     BIT       P05
      00000089H   SFRSYM    DATA     BYTE      TMOD
      00000088H   SFRSYM    DATA     BYTE      TCON
      000000E8H   SFRSYM    DATA     BIT       P60
      000000C8H.1 SFRSYM    DATA     BIT       P51
      000000C0H.2 SFRSYM    DATA     BIT       P42
      000000B0H.3 SFRSYM    DATA     BIT       P33
LX51 LINKER/LOCATER V4.66.1.0                                                         01/17/2017  13:47:51  PAGE 49


      000000A0H.4 SFRSYM    DATA     BIT       P24
      00000090H.5 SFRSYM    DATA     BIT       P15
      00000080H.6 SFRSYM    DATA     BIT       P06
      000000C4H   SFRSYM    DATA     BYTE      ISP_ADDRL
      000000B8H.6 SFRSYM    DATA     BIT       PLVD
      000000F8H   SFRSYM    DATA     BIT       P70
      000000E8H.1 SFRSYM    DATA     BIT       P61
      000000C8H.2 SFRSYM    DATA     BIT       P52
      000000C0H.3 SFRSYM    DATA     BIT       P43
      000000B0H.4 SFRSYM    DATA     BIT       P34
      000000A0H.5 SFRSYM    DATA     BIT       P25
      00000090H.6 SFRSYM    DATA     BIT       P16
      00000080H.7 SFRSYM    DATA     BIT       P07
      000000F8H.1 SFRSYM    DATA     BIT       P71
      000000E8H.2 SFRSYM    DATA     BIT       P62
      000000C8H.3 SFRSYM    DATA     BIT       P53
      000000C0H.4 SFRSYM    DATA     BIT       P44
      000000B0H.5 SFRSYM    DATA     BIT       P35
      000000A0H.6 SFRSYM    DATA     BIT       P26
      00000090H.7 SFRSYM    DATA     BIT       P17
      000000F8H.2 SFRSYM    DATA     BIT       P72
      000000E8H.3 SFRSYM    DATA     BIT       P63
      000000C8H.4 SFRSYM    DATA     BIT       P54
      000000C0H.5 SFRSYM    DATA     BIT       P45
      000000B0H.6 SFRSYM    DATA     BIT       P36
      000000A0H.7 SFRSYM    DATA     BIT       P27
      000000F8H.3 SFRSYM    DATA     BIT       P73
      000000E8H.4 SFRSYM    DATA     BIT       P64
      000000C8H.5 SFRSYM    DATA     BIT       P55
      000000C0H.6 SFRSYM    DATA     BIT       P46
      000000B0H.7 SFRSYM    DATA     BIT       P37
      000000F8H.4 SFRSYM    DATA     BIT       P74
      000000E8H.5 SFRSYM    DATA     BIT       P65
      000000C8H.6 SFRSYM    DATA     BIT       P56
      000000C0H.7 SFRSYM    DATA     BIT       P47
      000000F8H.5 SFRSYM    DATA     BIT       P75
      000000E8H.6 SFRSYM    DATA     BIT       P66
      000000C8H.7 SFRSYM    DATA     BIT       P57
      000000F8H.6 SFRSYM    DATA     BIT       P76
      000000E8H.7 SFRSYM    DATA     BIT       P67
      000000F8H.7 SFRSYM    DATA     BIT       P77
      00000088H.1 SFRSYM    DATA     BIT       IE0
      000000A1H   SFRSYM    DATA     BYTE      BUS_SPEED
      00000088H.3 SFRSYM    DATA     BIT       IE1
      000000AFH   SFRSYM    DATA     BYTE      IE2
      000000F0H   SFRSYM    DATA     BYTE      B
      0000008EH   SFRSYM    DATA     BYTE      AUXR
      000000C7H   SFRSYM    DATA     BYTE      IAP_CONTR
      000000F1H   SFRSYM    DATA     BYTE      PWMCFG
      000000E0H   SFRSYM    DATA     BYTE      ACC
      000000A8H.1 SFRSYM    DATA     BIT       ET0
      000000A8H.3 SFRSYM    DATA     BIT       ET1
      00000088H.5 SFRSYM    DATA     BIT       TF0
      00000088H.7 SFRSYM    DATA     BIT       TF1
      000000B5H   SFRSYM    DATA     BYTE      IP2
      0000008CH   SFRSYM    DATA     BYTE      RL_TH0
      00000098H.2 SFRSYM    DATA     BIT       RB8
      0000008DH   SFRSYM    DATA     BYTE      RL_TH1
      0000008CH   SFRSYM    DATA     BYTE      TH0
      000000A8H   SFRSYM    DATA     BIT       EX0
      00000088H   SFRSYM    DATA     BIT       IT0
      000000D6H   SFRSYM    DATA     BYTE      RL_T2H
      0000008DH   SFRSYM    DATA     BYTE      TH1
      000000A8H.2 SFRSYM    DATA     BIT       EX1
      00000098H.3 SFRSYM    DATA     BIT       TB8
LX51 LINKER/LOCATER V4.66.1.0                                                         01/17/2017  13:47:51  PAGE 50


      00000088H.2 SFRSYM    DATA     BIT       IT1
      000000D4H   SFRSYM    DATA     BYTE      RL_T3H
      000000D6H   SFRSYM    DATA     BYTE      TH2
      000000D6H   SFRSYM    DATA     BYTE      T2H
      000000D0H   SFRSYM    DATA     BIT       P
      000000D2H   SFRSYM    DATA     BYTE      RL_T4H
      000000D4H   SFRSYM    DATA     BYTE      TH3
      000000D4H   SFRSYM    DATA     BYTE      T3H
      0000008AH   SFRSYM    DATA     BYTE      RL_TL0
      00000098H.7 SFRSYM    DATA     BIT       SM0
      000000D2H   SFRSYM    DATA     BYTE      TH4
      000000D2H   SFRSYM    DATA     BYTE      T4H
      0000008BH   SFRSYM    DATA     BYTE      RL_TL1
      0000008AH   SFRSYM    DATA     BYTE      TL0
      00000098H.6 SFRSYM    DATA     BIT       SM1
      000000D7H   SFRSYM    DATA     BYTE      RL_T2L
      0000008BH   SFRSYM    DATA     BYTE      TL1
      00000098H.5 SFRSYM    DATA     BIT       SM2
      000000D5H   SFRSYM    DATA     BYTE      RL_T3L
      000000D7H   SFRSYM    DATA     BYTE      TL2
      000000D7H   SFRSYM    DATA     BYTE      T2L
      000000D3H   SFRSYM    DATA     BYTE      RL_T4L
      000000D5H   SFRSYM    DATA     BYTE      TL3
      000000D5H   SFRSYM    DATA     BYTE      T3L
      000000B8H.1 SFRSYM    DATA     BIT       PT0
      000000D3H   SFRSYM    DATA     BYTE      TL4
      000000D3H   SFRSYM    DATA     BYTE      T4L
      000000B8H.3 SFRSYM    DATA     BIT       PT1
      000000D0H.3 SFRSYM    DATA     BIT       RS0
      000000C7H   SFRSYM    DATA     BYTE      ISP_CONTR
      00000088H.4 SFRSYM    DATA     BIT       TR0
      000000D0H.4 SFRSYM    DATA     BIT       RS1
      000000C2H   SFRSYM    DATA     BYTE      IAP_DATA
      00000088H.6 SFRSYM    DATA     BIT       TR1
      000000B8H   SFRSYM    DATA     BIT       PX0
      000000C1H   SFRSYM    DATA     BYTE      WDT_CONTR
      000000B8H.2 SFRSYM    DATA     BIT       PX1
      000000F2H   SFRSYM    DATA     BYTE      PCA_PWM0
      000000F3H   SFRSYM    DATA     BYTE      PCA_PWM1
      000000F4H   SFRSYM    DATA     BYTE      PCA_PWM2
      0000009DH   SFRSYM    DATA     BYTE      P1ASF
      00000083H   SFRSYM    DATA     BYTE      DPH
      000000D1H   SFRSYM    DATA     BYTE      T4T3M
      000000BEH   SFRSYM    DATA     BYTE      ADC_RESL
      00000082H   SFRSYM    DATA     BYTE      DPL
      000000CDH   SFRSYM    DATA     BYTE      SPSTAT
      000000B7H   SFRSYM    DATA     BYTE      IPH
      0000009BH   SFRSYM    DATA     BYTE      S2BUF
      00000097H   SFRSYM    DATA     BYTE      PCON2
      000000ADH   SFRSYM    DATA     BYTE      S3BUF
      00000098H.4 SFRSYM    DATA     BIT       REN
      00000085H   SFRSYM    DATA     BYTE      S4BUF
      0000009AH   SFRSYM    DATA     BYTE      S2CON
      000000ACH   SFRSYM    DATA     BYTE      S3CON
      000000C2H   SFRSYM    DATA     BYTE      ISP_DATA
      00000084H   SFRSYM    DATA     BYTE      S4CON
      000000B9H   SFRSYM    DATA     BYTE      SADEN
      000000B0H   SFRSYM    DATA     BIT       RXD
      000000A9H   SFRSYM    DATA     BYTE      SADDR
      000000B0H.1 SFRSYM    DATA     BIT       TXD
      000000F0H   SFRSYM    DATA     BIT       B0
      000000F0H.1 SFRSYM    DATA     BIT       B1
      000000C6H   SFRSYM    DATA     BYTE      IAP_TRIG
      000000A2H   SFRSYM    DATA     BYTE      AUXR1
      000000F0H.2 SFRSYM    DATA     BIT       B2
LX51 LINKER/LOCATER V4.66.1.0                                                         01/17/2017  13:47:51  PAGE 51


      00000090H.2 SFRSYM    DATA     BIT       SPI_SS
      0000008FH   SFRSYM    DATA     BYTE      AUXR2
      000000F0H.3 SFRSYM    DATA     BIT       B3
      000000F0H.4 SFRSYM    DATA     BIT       B4
      000000D0H.5 SFRSYM    DATA     BIT       F0
      000000F0H.5 SFRSYM    DATA     BIT       B5
      000000D0H.1 SFRSYM    DATA     BIT       F1
      0000008FH   SFRSYM    DATA     BYTE      INT_CLKO
      000000F0H.6 SFRSYM    DATA     BIT       B6
      000000E0H   SFRSYM    DATA     BIT       ACC0
      000000F0H.7 SFRSYM    DATA     BIT       B7
      000000E0H.1 SFRSYM    DATA     BIT       ACC1
      000000E0H.2 SFRSYM    DATA     BIT       ACC2
      000000E0H.3 SFRSYM    DATA     BIT       ACC3
      000000D0H   SFRSYM    DATA     BYTE      PSW
      000000E0H.4 SFRSYM    DATA     BIT       ACC4
      00000090H.5 SFRSYM    DATA     BIT       SPI_SCLK
      000000D8H   SFRSYM    DATA     BIT       CCF0
      000000E0H.5 SFRSYM    DATA     BIT       ACC5
      000000D8H.1 SFRSYM    DATA     BIT       CCF1
      000000E0H.6 SFRSYM    DATA     BIT       ACC6
      000000CFH   SFRSYM    DATA     BYTE      SPDAT
      00000094H   SFRSYM    DATA     BYTE      P0M0
      01001800H   SYMBOL    CODE     ---       init_logic_params
      0100157EH   SYMBOL    CODE     ---       init_system_component

      01001715H   BLOCK     CODE     ---       LVL=0
      01001715H   BLOCK     CODE     NEAR LAB  LVL=1
      00000007H   SYMBOL    DATA     BYTE      i
      00000006H   SYMBOL    DATA     BYTE      j
      00000005H   SYMBOL    DATA     BYTE      k
      ---         BLOCKEND  ---      ---       LVL=1
      01001715H   LINE      CODE     ---       #29
      01001715H   LINE      CODE     ---       #30
      01001715H   LINE      CODE     ---       #33
      01001716H   LINE      CODE     ---       #34
      01001717H   LINE      CODE     ---       #35
      01001719H   LINE      CODE     ---       #36
      0100171BH   LINE      CODE     ---       #37
      0100171DH   LINE      CODE     ---       #39
      0100171DH   LINE      CODE     ---       #41
      0100171DH   LINE      CODE     ---       #42
      0100171FH   LINE      CODE     ---       #43
      01001721H   LINE      CODE     ---       #44
      01001723H   LINE      CODE     ---       #45
      ---         BLOCKEND  ---      ---       LVL=0

      010017F4H   BLOCK     CODE     ---       LVL=0
      010017F4H   LINE      CODE     ---       #48
      010017F4H   LINE      CODE     ---       #49
      010017F7H   LINE      CODE     ---       #50
      ---         BLOCKEND  ---      ---       LVL=0

      01000886H   BLOCK     CODE     ---       LVL=0
      01000886H   LINE      CODE     ---       #55
      01000886H   LINE      CODE     ---       #56
      01000886H   LINE      CODE     ---       #58
      01000888H   LINE      CODE     ---       #60
      0100088BH   LINE      CODE     ---       #61
      0100088EH   LINE      CODE     ---       #62
      01000891H   LINE      CODE     ---       #65
      01000893H   LINE      CODE     ---       #67
      01000895H   LINE      CODE     ---       #69
      01000897H   LINE      CODE     ---       #71
      0100089DH   LINE      CODE     ---       #73
LX51 LINKER/LOCATER V4.66.1.0                                                         01/17/2017  13:47:51  PAGE 52


      0100089DH   LINE      CODE     ---       #75
      010008A3H   LINE      CODE     ---       #77
      010008AAH   LINE      CODE     ---       #78
      010008AAH   LINE      CODE     ---       #79
      010008ADH   LINE      CODE     ---       #80
      010008B1H   LINE      CODE     ---       #81
      010008B4H   LINE      CODE     ---       #82
      010008B8H   LINE      CODE     ---       #83
      010008BBH   LINE      CODE     ---       #84
      010008BBH   LINE      CODE     ---       #85
      010008C2H   LINE      CODE     ---       #86
      010008C4H   LINE      CODE     ---       #87
      010008C4H   LINE      CODE     ---       #89
      010008CBH   LINE      CODE     ---       #90
      010008CBH   LINE      CODE     ---       #91
      010008CEH   LINE      CODE     ---       #92
      010008D5H   LINE      CODE     ---       #93
      010008D7H   LINE      CODE     ---       #94
      010008D7H   LINE      CODE     ---       #98
      010008E1H   LINE      CODE     ---       #99
      010008E1H   LINE      CODE     ---       #100
      010008EAH   LINE      CODE     ---       #101
      010008F1H   LINE      CODE     ---       #102
      010008F5H   LINE      CODE     ---       #103
      010008FEH   LINE      CODE     ---       #104
      01000906H   LINE      CODE     ---       #105
      01000909H   LINE      CODE     ---       #106
      0100090CH   LINE      CODE     ---       #108
      0100090FH   LINE      CODE     ---       #109
      01000911H   LINE      CODE     ---       #110
      01000914H   LINE      CODE     ---       #111
      01000917H   LINE      CODE     ---       #112
      0100091AH   LINE      CODE     ---       #113
      0100091AH   LINE      CODE     ---       #114
      0100091DH   LINE      CODE     ---       #115
      01000920H   LINE      CODE     ---       #116
      01000922H   LINE      CODE     ---       #117
      01000922H   LINE      CODE     ---       #118
      01000922H   LINE      CODE     ---       #119
      01000926H   LINE      CODE     ---       #120
      0100092FH   LINE      CODE     ---       #121
      01000932H   LINE      CODE     ---       #122
      01000936H   LINE      CODE     ---       #125
      01000939H   LINE      CODE     ---       #126
      0100093CH   LINE      CODE     ---       #127
      0100093EH   LINE      CODE     ---       #130
      01000941H   LINE      CODE     ---       #132
      01000944H   LINE      CODE     ---       #133
      01000944H   LINE      CODE     ---       #134
      01000947H   LINE      CODE     ---       #135
      0100094AH   LINE      CODE     ---       #136
      01000952H   LINE      CODE     ---       #137
      01000954H   LINE      CODE     ---       #138
      01000956H   LINE      CODE     ---       #139
      01000959H   LINE      CODE     ---       #140
      01000959H   LINE      CODE     ---       #142
      01000959H   LINE      CODE     ---       #143
      0100095CH   LINE      CODE     ---       #144
      0100095FH   LINE      CODE     ---       #145
      01000966H   LINE      CODE     ---       #146
      01000969H   LINE      CODE     ---       #147
      01000969H   LINE      CODE     ---       #149
      01000970H   LINE      CODE     ---       #150
      01000973H   LINE      CODE     ---       #151
      01000976H   LINE      CODE     ---       #152
LX51 LINKER/LOCATER V4.66.1.0                                                         01/17/2017  13:47:51  PAGE 53


      0100097DH   LINE      CODE     ---       #153
      01000980H   LINE      CODE     ---       #154
      01000980H   LINE      CODE     ---       #157
      01000987H   LINE      CODE     ---       #158
      01000987H   LINE      CODE     ---       #159
      0100098AH   LINE      CODE     ---       #160
      0100098CH   LINE      CODE     ---       #161
      01000990H   LINE      CODE     ---       #162
      01000993H   LINE      CODE     ---       #163
      01000995H   LINE      CODE     ---       #164
      01000997H   LINE      CODE     ---       #165
      0100099EH   LINE      CODE     ---       #166
      010009A1H   LINE      CODE     ---       #167
      010009A4H   LINE      CODE     ---       #168
      010009A4H   LINE      CODE     ---       #170
      010009ABH   LINE      CODE     ---       #171
      010009ABH   LINE      CODE     ---       #172
      010009AEH   LINE      CODE     ---       #173
      010009B1H   LINE      CODE     ---       #174
      010009B4H   LINE      CODE     ---       #175
      010009B7H   LINE      CODE     ---       #176
      010009BAH   LINE      CODE     ---       #177
      010009BDH   LINE      CODE     ---       #178
      010009BFH   LINE      CODE     ---       #179
      010009C2H   LINE      CODE     ---       #180
      010009C4H   LINE      CODE     ---       #181
      010009CAH   LINE      CODE     ---       #182
      010009CDH   LINE      CODE     ---       #183
      010009D4H   LINE      CODE     ---       #184
      010009D7H   LINE      CODE     ---       #185
      010009D7H   LINE      CODE     ---       #187
      010009E1H   LINE      CODE     ---       #188
      010009E1H   LINE      CODE     ---       #189
      010009E4H   LINE      CODE     ---       #190
      010009E7H   LINE      CODE     ---       #191
      010009ECH   LINE      CODE     ---       #192
      010009F2H   LINE      CODE     ---       #193
      010009F5H   LINE      CODE     ---       #194
      010009F8H   LINE      CODE     ---       #195
      010009FBH   LINE      CODE     ---       #196
      010009FDH   LINE      CODE     ---       #197
      01000A04H   LINE      CODE     ---       #198
      ---         BLOCKEND  ---      ---       LVL=0

      0100157EH   BLOCK     CODE     ---       LVL=0
      0100157EH   LINE      CODE     ---       #204
      0100157EH   LINE      CODE     ---       #206
      01001581H   LINE      CODE     ---       #210
      01001584H   LINE      CODE     ---       #212
      01001587H   LINE      CODE     ---       #214
      0100158AH   LINE      CODE     ---       #216
      0100158DH   LINE      CODE     ---       #218
      01001590H   LINE      CODE     ---       #220
      01001593H   LINE      CODE     ---       #222
      ---         BLOCKEND  ---      ---       LVL=0

      01001800H   BLOCK     CODE     ---       LVL=0
      01001800H   LINE      CODE     ---       #227
      01001800H   LINE      CODE     ---       #228
      ---         BLOCKEND  ---      ---       LVL=0

      ---         MODULE    ---      ---       POWER
      0000001AH   PUBLIC    DATA     BYTE      key_status_off
      00000019H   PUBLIC    DATA     BYTE      detect_key_time_start
      00000018H   PUBLIC    DATA     BYTE      cnt_on_time_plus
LX51 LINKER/LOCATER V4.66.1.0                                                         01/17/2017  13:47:51  PAGE 54


      00000017H   PUBLIC    DATA     BYTE      key_status_on_pre
      00000015H   PUBLIC    DATA     WORD      adc_value
      00000014H   PUBLIC    DATA     BYTE      cnt_off_time_plus
      00000013H   PUBLIC    DATA     BYTE      read_index
      00000012H   PUBLIC    DATA     BYTE      key_status_off_pre
      00000011H   PUBLIC    DATA     BYTE      key_status_on
      00000010H   PUBLIC    DATA     BYTE      read_status_signal
      010015D9H   PUBLIC    CODE     ---       exint1
      010011BCH   PUBLIC    CODE     ---       status_lock_off_detect
      01001193H   PUBLIC    CODE     ---       status_lock_on_detect
      01000FACH   PUBLIC    CODE     ---       read_lock_status
      0100176EH   PUBLIC    CODE     ---       init_lock_para
      01001657H   PUBLIC    CODE     ---       status_lock_detect
      01001335H   PUBLIC    CODE     ---       alter_beep_protect
      01001762H   PUBLIC    CODE     ---       init_adc
      01001314H   PUBLIC    CODE     ---       power_io_init
      000000D8H.2 SFRSYM    DATA     BIT       CCF2
      000000E0H.7 SFRSYM    DATA     BIT       ACC7
      00000093H   SFRSYM    DATA     BYTE      P0M1
      00000092H   SFRSYM    DATA     BYTE      P1M0
      00000096H   SFRSYM    DATA     BYTE      P2M0
      00000091H   SFRSYM    DATA     BYTE      P1M1
      00000080H   SFRSYM    DATA     BYTE      P0
      000000B2H   SFRSYM    DATA     BYTE      P3M0
      00000095H   SFRSYM    DATA     BYTE      P2M1
      00000090H   SFRSYM    DATA     BYTE      P1
      000000B4H   SFRSYM    DATA     BYTE      P4M0
      000000B1H   SFRSYM    DATA     BYTE      P3M1
      000000A0H   SFRSYM    DATA     BYTE      P2
      000000CAH   SFRSYM    DATA     BYTE      P5M0
      000000B3H   SFRSYM    DATA     BYTE      P4M1
      000000B0H   SFRSYM    DATA     BYTE      P3
      000000ABH   SFRSYM    DATA     BYTE      WKTCH
      000000B0H.4 SFRSYM    DATA     BIT       T0
      000000D0H.6 SFRSYM    DATA     BIT       AC
      000000CCH   SFRSYM    DATA     BYTE      P6M0
      000000C9H   SFRSYM    DATA     BYTE      P5M1
      000000C0H   SFRSYM    DATA     BYTE      P4
      000000B0H.5 SFRSYM    DATA     BIT       CLKOUT0
      000000B0H.5 SFRSYM    DATA     BIT       T1
      000000F6H   SFRSYM    DATA     BYTE      PWMIF
      000000E2H   SFRSYM    DATA     BYTE      P7M0
      000000CBH   SFRSYM    DATA     BYTE      P6M1
      000000C8H   SFRSYM    DATA     BYTE      P5
      000000C6H   SFRSYM    DATA     BYTE      ISP_TRIG
      000000A8H.7 SFRSYM    DATA     BIT       EA
      000000B0H.4 SFRSYM    DATA     BIT       CLKOUT1
      000000A0H.4 SFRSYM    DATA     BIT       SPI_SS_2
      000000E8H   SFRSYM    DATA     BYTE      P6
      000000E1H   SFRSYM    DATA     BYTE      P7M1
      000000C8H.4 SFRSYM    DATA     BIT       SPI_SS_3
      00000090H.4 SFRSYM    DATA     BIT       SPI_MISO
      00000090H.3 SFRSYM    DATA     BIT       SPI_MOSI
      00000090H.1 SFRSYM    DATA     BIT       CCP0
      000000F8H   SFRSYM    DATA     BYTE      P7
      000000AAH   SFRSYM    DATA     BYTE      WKTCL
      00000090H   SFRSYM    DATA     BIT       CCP1
      000000CEH   SFRSYM    DATA     BYTE      SPCTL
      000000D8H.7 SFRSYM    DATA     BIT       CF
      000000B0H.7 SFRSYM    DATA     BIT       CCP2
      000000F9H   SFRSYM    DATA     BYTE      CH
      000000F5H   SFRSYM    DATA     BYTE      PWMCR
      000000A2H   SFRSYM    DATA     BYTE      P_SW1
      000000BAH   SFRSYM    DATA     BYTE      P_SW2
      000000A8H.5 SFRSYM    DATA     BIT       EADC
LX51 LINKER/LOCATER V4.66.1.0                                                         01/17/2017  13:47:51  PAGE 55


      000000A0H.1 SFRSYM    DATA     BIT       SPI_SCLK_2
      000000A8H   SFRSYM    DATA     BYTE      IE
      000000C0H.3 SFRSYM    DATA     BIT       SPI_SCLK_3
      000000E9H   SFRSYM    DATA     BYTE      CL
      000000C5H   SFRSYM    DATA     BYTE      IAP_CMD
      000000FAH   SFRSYM    DATA     BYTE      CCAP0H
      000000FBH   SFRSYM    DATA     BYTE      CCAP1H
      000000FCH   SFRSYM    DATA     BYTE      CCAP2H
      000000BDH   SFRSYM    DATA     BYTE      ADC_RES
      000000B6H   SFRSYM    DATA     BYTE      IPH2
      000000D8H.6 SFRSYM    DATA     BIT       CR
      000000EAH   SFRSYM    DATA     BYTE      CCAP0L
      000000B0H.7 SFRSYM    DATA     BIT       RD
      000000F7H   SFRSYM    DATA     BYTE      PWMFDCR
      000000EBH   SFRSYM    DATA     BYTE      CCAP1L
      000000DAH   SFRSYM    DATA     BYTE      CCAPM0
      000000ECH   SFRSYM    DATA     BYTE      CCAP2L
      000000DBH   SFRSYM    DATA     BYTE      CCAPM1
      000000A8H.4 SFRSYM    DATA     BIT       ES
      000000DCH   SFRSYM    DATA     BYTE      CCAPM2
      000000B8H.5 SFRSYM    DATA     BIT       PADC
      000000A0H.2 SFRSYM    DATA     BIT       SPI_MISO_2
      000000A0H.3 SFRSYM    DATA     BIT       SPI_MOSI_2
      000000B8H   SFRSYM    DATA     BYTE      IP
      000000C0H.1 SFRSYM    DATA     BIT       SPI_MISO_3
      000000C0H   SFRSYM    DATA     BIT       SPI_MOSI_3
      00000098H   SFRSYM    DATA     BIT       RI
      000000B0H.2 SFRSYM    DATA     BIT       INT0
      000000D0H.7 SFRSYM    DATA     BIT       CY
      00000098H.1 SFRSYM    DATA     BIT       TI
      000000B0H.3 SFRSYM    DATA     BIT       INT1
      00000097H   SFRSYM    DATA     BYTE      CLK_DIV
      000000C3H   SFRSYM    DATA     BYTE      IAP_ADDRH
      00000090H   SFRSYM    DATA     BIT       RXD2
      000000C5H   SFRSYM    DATA     BYTE      ISP_CMD
      000000B8H.4 SFRSYM    DATA     BIT       PS
      00000090H.1 SFRSYM    DATA     BIT       TXD2
      00000081H   SFRSYM    DATA     BYTE      SP
      000000D9H   SFRSYM    DATA     BYTE      CMOD
      000000D8H   SFRSYM    DATA     BYTE      CCON
      000000C4H   SFRSYM    DATA     BYTE      IAP_ADDRL
      000000B8H.7 SFRSYM    DATA     BIT       PPCA
      000000D0H.2 SFRSYM    DATA     BIT       OV
      000000E6H   SFRSYM    DATA     BYTE      CMPCR1
      000000B0H.6 SFRSYM    DATA     BIT       WR
      000000E7H   SFRSYM    DATA     BYTE      CMPCR2
      000000A8H.6 SFRSYM    DATA     BIT       ELVD
      00000080H   SFRSYM    DATA     BIT       P00
      00000090H   SFRSYM    DATA     BIT       P10
      00000080H.1 SFRSYM    DATA     BIT       P01
      000000BCH   SFRSYM    DATA     BYTE      ADC_CONTR
      00000099H   SFRSYM    DATA     BYTE      SBUF
      00000087H   SFRSYM    DATA     BYTE      PCON
      000000A0H   SFRSYM    DATA     BIT       P20
      00000090H.1 SFRSYM    DATA     BIT       P11
      00000080H.2 SFRSYM    DATA     BIT       P02
      000000C3H   SFRSYM    DATA     BYTE      ISP_ADDRH
      000000B0H   SFRSYM    DATA     BIT       P30
      000000A0H.1 SFRSYM    DATA     BIT       P21
      00000090H.2 SFRSYM    DATA     BIT       P12
      00000080H.3 SFRSYM    DATA     BIT       P03
      000000C0H   SFRSYM    DATA     BIT       P40
      000000B0H.1 SFRSYM    DATA     BIT       P31
      000000A0H.2 SFRSYM    DATA     BIT       P22
      00000090H.3 SFRSYM    DATA     BIT       P13
LX51 LINKER/LOCATER V4.66.1.0                                                         01/17/2017  13:47:51  PAGE 56


      00000080H.4 SFRSYM    DATA     BIT       P04
      00000098H   SFRSYM    DATA     BYTE      SCON
      0000008FH   SFRSYM    DATA     BYTE      WAKE_CLKO
      000000C8H   SFRSYM    DATA     BIT       P50
      000000C0H.1 SFRSYM    DATA     BIT       P41
      000000B0H.2 SFRSYM    DATA     BIT       P32
      000000A0H.3 SFRSYM    DATA     BIT       P23
      00000090H.4 SFRSYM    DATA     BIT       P14
      00000080H.5 SFRSYM    DATA     BIT       P05
      00000089H   SFRSYM    DATA     BYTE      TMOD
      00000088H   SFRSYM    DATA     BYTE      TCON
      000000E8H   SFRSYM    DATA     BIT       P60
      000000C8H.1 SFRSYM    DATA     BIT       P51
      000000C0H.2 SFRSYM    DATA     BIT       P42
      000000B0H.3 SFRSYM    DATA     BIT       P33
      000000A0H.4 SFRSYM    DATA     BIT       P24
      00000090H.5 SFRSYM    DATA     BIT       P15
      00000080H.6 SFRSYM    DATA     BIT       P06
      000000C4H   SFRSYM    DATA     BYTE      ISP_ADDRL
      000000B8H.6 SFRSYM    DATA     BIT       PLVD
      000000F8H   SFRSYM    DATA     BIT       P70
      000000E8H.1 SFRSYM    DATA     BIT       P61
      000000C8H.2 SFRSYM    DATA     BIT       P52
      000000C0H.3 SFRSYM    DATA     BIT       P43
      000000B0H.4 SFRSYM    DATA     BIT       P34
      000000A0H.5 SFRSYM    DATA     BIT       P25
      00000090H.6 SFRSYM    DATA     BIT       P16
      00000080H.7 SFRSYM    DATA     BIT       P07
      000000F8H.1 SFRSYM    DATA     BIT       P71
      000000E8H.2 SFRSYM    DATA     BIT       P62
      000000C8H.3 SFRSYM    DATA     BIT       P53
      000000C0H.4 SFRSYM    DATA     BIT       P44
      000000B0H.5 SFRSYM    DATA     BIT       P35
      000000A0H.6 SFRSYM    DATA     BIT       P26
      00000090H.7 SFRSYM    DATA     BIT       P17
      000000F8H.2 SFRSYM    DATA     BIT       P72
      000000E8H.3 SFRSYM    DATA     BIT       P63
      000000C8H.4 SFRSYM    DATA     BIT       P54
      000000C0H.5 SFRSYM    DATA     BIT       P45
      000000B0H.6 SFRSYM    DATA     BIT       P36
      000000A0H.7 SFRSYM    DATA     BIT       P27
      000000F8H.3 SFRSYM    DATA     BIT       P73
      000000E8H.4 SFRSYM    DATA     BIT       P64
      000000C8H.5 SFRSYM    DATA     BIT       P55
      000000C0H.6 SFRSYM    DATA     BIT       P46
      000000B0H.7 SFRSYM    DATA     BIT       P37
      000000F8H.4 SFRSYM    DATA     BIT       P74
      000000E8H.5 SFRSYM    DATA     BIT       P65
      000000C8H.6 SFRSYM    DATA     BIT       P56
      000000C0H.7 SFRSYM    DATA     BIT       P47
      000000F8H.5 SFRSYM    DATA     BIT       P75
      000000E8H.6 SFRSYM    DATA     BIT       P66
      000000C8H.7 SFRSYM    DATA     BIT       P57
      000000F8H.6 SFRSYM    DATA     BIT       P76
      000000E8H.7 SFRSYM    DATA     BIT       P67
      000000F8H.7 SFRSYM    DATA     BIT       P77
      00000088H.1 SFRSYM    DATA     BIT       IE0
      000000A1H   SFRSYM    DATA     BYTE      BUS_SPEED
      00000088H.3 SFRSYM    DATA     BIT       IE1
      000000AFH   SFRSYM    DATA     BYTE      IE2
      000000F0H   SFRSYM    DATA     BYTE      B
      0000008EH   SFRSYM    DATA     BYTE      AUXR
      000000C7H   SFRSYM    DATA     BYTE      IAP_CONTR
      000000F1H   SFRSYM    DATA     BYTE      PWMCFG
      000000E0H   SFRSYM    DATA     BYTE      ACC
LX51 LINKER/LOCATER V4.66.1.0                                                         01/17/2017  13:47:51  PAGE 57


      000000A8H.1 SFRSYM    DATA     BIT       ET0
      000000A8H.3 SFRSYM    DATA     BIT       ET1
      00000088H.5 SFRSYM    DATA     BIT       TF0
      00000088H.7 SFRSYM    DATA     BIT       TF1
      000000B5H   SFRSYM    DATA     BYTE      IP2
      0000008CH   SFRSYM    DATA     BYTE      RL_TH0
      00000098H.2 SFRSYM    DATA     BIT       RB8
      0000008DH   SFRSYM    DATA     BYTE      RL_TH1
      0000008CH   SFRSYM    DATA     BYTE      TH0
      000000A8H   SFRSYM    DATA     BIT       EX0
      00000088H   SFRSYM    DATA     BIT       IT0
      000000D6H   SFRSYM    DATA     BYTE      RL_T2H
      0000008DH   SFRSYM    DATA     BYTE      TH1
      000000A8H.2 SFRSYM    DATA     BIT       EX1
      00000098H.3 SFRSYM    DATA     BIT       TB8
      00000088H.2 SFRSYM    DATA     BIT       IT1
      000000D4H   SFRSYM    DATA     BYTE      RL_T3H
      000000D6H   SFRSYM    DATA     BYTE      TH2
      000000D6H   SFRSYM    DATA     BYTE      T2H
      000000D0H   SFRSYM    DATA     BIT       P
      000000D2H   SFRSYM    DATA     BYTE      RL_T4H
      000000D4H   SFRSYM    DATA     BYTE      TH3
      000000D4H   SFRSYM    DATA     BYTE      T3H
      0000008AH   SFRSYM    DATA     BYTE      RL_TL0
      00000098H.7 SFRSYM    DATA     BIT       SM0
      000000D2H   SFRSYM    DATA     BYTE      TH4
      000000D2H   SFRSYM    DATA     BYTE      T4H
      0000008BH   SFRSYM    DATA     BYTE      RL_TL1
      0000008AH   SFRSYM    DATA     BYTE      TL0
      00000098H.6 SFRSYM    DATA     BIT       SM1
      000000D7H   SFRSYM    DATA     BYTE      RL_T2L
      0000008BH   SFRSYM    DATA     BYTE      TL1
      00000098H.5 SFRSYM    DATA     BIT       SM2
      000000D5H   SFRSYM    DATA     BYTE      RL_T3L
      000000D7H   SFRSYM    DATA     BYTE      TL2
      000000D7H   SFRSYM    DATA     BYTE      T2L
      000000D3H   SFRSYM    DATA     BYTE      RL_T4L
      000000D5H   SFRSYM    DATA     BYTE      TL3
      000000D5H   SFRSYM    DATA     BYTE      T3L
      000000B8H.1 SFRSYM    DATA     BIT       PT0
      000000D3H   SFRSYM    DATA     BYTE      TL4
      000000D3H   SFRSYM    DATA     BYTE      T4L
      000000B8H.3 SFRSYM    DATA     BIT       PT1
      000000D0H.3 SFRSYM    DATA     BIT       RS0
      000000C7H   SFRSYM    DATA     BYTE      ISP_CONTR
      00000088H.4 SFRSYM    DATA     BIT       TR0
      000000D0H.4 SFRSYM    DATA     BIT       RS1
      000000C2H   SFRSYM    DATA     BYTE      IAP_DATA
      00000088H.6 SFRSYM    DATA     BIT       TR1
      000000B8H   SFRSYM    DATA     BIT       PX0
      000000C1H   SFRSYM    DATA     BYTE      WDT_CONTR
      000000B8H.2 SFRSYM    DATA     BIT       PX1
      000000F2H   SFRSYM    DATA     BYTE      PCA_PWM0
      000000F3H   SFRSYM    DATA     BYTE      PCA_PWM1
      000000F4H   SFRSYM    DATA     BYTE      PCA_PWM2
      0000009DH   SFRSYM    DATA     BYTE      P1ASF
      00000083H   SFRSYM    DATA     BYTE      DPH
      000000D1H   SFRSYM    DATA     BYTE      T4T3M
      000000BEH   SFRSYM    DATA     BYTE      ADC_RESL
      00000082H   SFRSYM    DATA     BYTE      DPL
      000000CDH   SFRSYM    DATA     BYTE      SPSTAT
      000000B7H   SFRSYM    DATA     BYTE      IPH
      0000009BH   SFRSYM    DATA     BYTE      S2BUF
      00000097H   SFRSYM    DATA     BYTE      PCON2
      000000ADH   SFRSYM    DATA     BYTE      S3BUF
LX51 LINKER/LOCATER V4.66.1.0                                                         01/17/2017  13:47:51  PAGE 58


      00000098H.4 SFRSYM    DATA     BIT       REN
      00000085H   SFRSYM    DATA     BYTE      S4BUF
      0000009AH   SFRSYM    DATA     BYTE      S2CON
      000000ACH   SFRSYM    DATA     BYTE      S3CON
      000000C2H   SFRSYM    DATA     BYTE      ISP_DATA
      00000084H   SFRSYM    DATA     BYTE      S4CON
      000000B9H   SFRSYM    DATA     BYTE      SADEN
      000000B0H   SFRSYM    DATA     BIT       RXD
      000000A9H   SFRSYM    DATA     BYTE      SADDR
      000000B0H.1 SFRSYM    DATA     BIT       TXD
      000000F0H   SFRSYM    DATA     BIT       B0
      000000F0H.1 SFRSYM    DATA     BIT       B1
      000000C6H   SFRSYM    DATA     BYTE      IAP_TRIG
      000000A2H   SFRSYM    DATA     BYTE      AUXR1
      000000F0H.2 SFRSYM    DATA     BIT       B2
      00000090H.2 SFRSYM    DATA     BIT       SPI_SS
      0000008FH   SFRSYM    DATA     BYTE      AUXR2
      000000F0H.3 SFRSYM    DATA     BIT       B3
      000000F0H.4 SFRSYM    DATA     BIT       B4
      000000D0H.5 SFRSYM    DATA     BIT       F0
      000000F0H.5 SFRSYM    DATA     BIT       B5
      000000D0H.1 SFRSYM    DATA     BIT       F1
      0000008FH   SFRSYM    DATA     BYTE      INT_CLKO
      000000F0H.6 SFRSYM    DATA     BIT       B6
      000000E0H   SFRSYM    DATA     BIT       ACC0
      000000F0H.7 SFRSYM    DATA     BIT       B7
      000000E0H.1 SFRSYM    DATA     BIT       ACC1
      000000E0H.2 SFRSYM    DATA     BIT       ACC2
      000000E0H.3 SFRSYM    DATA     BIT       ACC3
      000000D0H   SFRSYM    DATA     BYTE      PSW
      000000E0H.4 SFRSYM    DATA     BIT       ACC4
      00000090H.5 SFRSYM    DATA     BIT       SPI_SCLK
      000000D8H   SFRSYM    DATA     BIT       CCF0
      000000E0H.5 SFRSYM    DATA     BIT       ACC5
      000000D8H.1 SFRSYM    DATA     BIT       CCF1
      000000E0H.6 SFRSYM    DATA     BIT       ACC6
      000000CFH   SFRSYM    DATA     BYTE      SPDAT
      00000094H   SFRSYM    DATA     BYTE      P0M0
      01001356H   SYMBOL    CODE     ---       GetADCResult

      01001314H   BLOCK     CODE     ---       LVL=0
      01001314H   LINE      CODE     ---       #10
      01001314H   LINE      CODE     ---       #12
      0100131AH   LINE      CODE     ---       #13
      01001320H   LINE      CODE     ---       #15
      01001326H   LINE      CODE     ---       #16
      0100132CH   LINE      CODE     ---       #18
      01001334H   LINE      CODE     ---       #20
      ---         BLOCKEND  ---      ---       LVL=0

      01001762H   BLOCK     CODE     ---       LVL=0
      01001762H   LINE      CODE     ---       #28
      01001762H   LINE      CODE     ---       #29
      01001762H   LINE      CODE     ---       #30
      01001765H   LINE      CODE     ---       #31
      01001768H   LINE      CODE     ---       #32
      0100176AH   LINE      CODE     ---       #33
      0100176DH   LINE      CODE     ---       #34
      ---         BLOCKEND  ---      ---       LVL=0

      01001356H   BLOCK     CODE     ---       LVL=0
      01001356H   LINE      CODE     ---       #36
      01001356H   LINE      CODE     ---       #37
      01001356H   LINE      CODE     ---       #38
      01001359H   LINE      CODE     ---       #39
LX51 LINKER/LOCATER V4.66.1.0                                                         01/17/2017  13:47:51  PAGE 59


      0100135AH   LINE      CODE     ---       #40
      0100135BH   LINE      CODE     ---       #41
      0100135CH   LINE      CODE     ---       #42
      0100135DH   LINE      CODE     ---       #43
      01001362H   LINE      CODE     ---       #44
      01001365H   LINE      CODE     ---       #46
      01001374H   LINE      CODE     ---       #47
      ---         BLOCKEND  ---      ---       LVL=0

      01001335H   BLOCK     CODE     ---       LVL=0
      01001335H   LINE      CODE     ---       #52
      01001335H   LINE      CODE     ---       #53
      01001335H   LINE      CODE     ---       #55
      0100133BH   LINE      CODE     ---       #58
      01001341H   LINE      CODE     ---       #61
      01001347H   LINE      CODE     ---       #64
      0100134DH   LINE      CODE     ---       #66
      0100134FH   LINE      CODE     ---       #69
      01001351H   LINE      CODE     ---       #71
      01001353H   LINE      CODE     ---       #72
      01001355H   LINE      CODE     ---       #73
      ---         BLOCKEND  ---      ---       LVL=0

      01001657H   BLOCK     CODE     ---       LVL=0
      01001657H   BLOCK     CODE     NEAR LAB  LVL=1
      00000006H   SYMBOL    DATA     WORD      key_adc_value
      ---         BLOCKEND  ---      ---       LVL=1
      01001657H   LINE      CODE     ---       #75
      01001657H   LINE      CODE     ---       #76
      01001657H   LINE      CODE     ---       #77
      0100165AH   LINE      CODE     ---       #79
      0100165DH   LINE      CODE     ---       #82
      01001668H   LINE      CODE     ---       #83
      0100166AH   LINE      CODE     ---       #84
      0100166AH   LINE      CODE     ---       #85
      0100166AH   LINE      CODE     ---       #86
      0100166AH   LINE      CODE     ---       #87
      ---         BLOCKEND  ---      ---       LVL=0

      0100176EH   BLOCK     CODE     ---       LVL=0
      0100176EH   LINE      CODE     ---       #92
      0100176EH   LINE      CODE     ---       #93
      01001771H   LINE      CODE     ---       #94
      01001775H   LINE      CODE     ---       #95
      01001778H   LINE      CODE     ---       #96
      ---         BLOCKEND  ---      ---       LVL=0

      01000FACH   BLOCK     CODE     ---       LVL=0
      01000FACH   LINE      CODE     ---       #99
      01000FACH   LINE      CODE     ---       #100
      01000FB1H   LINE      CODE     ---       #101
      01000FC8H   LINE      CODE     ---       #102
      01000FCBH   LINE      CODE     ---       #103
      01000FCDH   LINE      CODE     ---       #104
      01000FD0H   LINE      CODE     ---       #105
      01000FD0H   LINE      CODE     ---       #106
      01000FD3H   LINE      CODE     ---       #107
      01000FD5H   LINE      CODE     ---       #108
      01000FD8H   LINE      CODE     ---       #109
      01000FDBH   LINE      CODE     ---       #110
      01000FDBH   LINE      CODE     ---       #111
      01000FE8H   LINE      CODE     ---       #112
      01000FEAH   LINE      CODE     ---       #113
      ---         BLOCKEND  ---      ---       LVL=0

LX51 LINKER/LOCATER V4.66.1.0                                                         01/17/2017  13:47:51  PAGE 60


      01001193H   BLOCK     CODE     ---       LVL=0
      01001193H   BLOCK     CODE     NEAR LAB  LVL=1
      00000006H   SYMBOL    DATA     WORD      key_adc_value
      ---         BLOCKEND  ---      ---       LVL=1
      01001193H   LINE      CODE     ---       #122
      01001193H   LINE      CODE     ---       #123
      01001193H   LINE      CODE     ---       #124
      01001196H   LINE      CODE     ---       #129
      0100119FH   LINE      CODE     ---       #130
      010011A4H   LINE      CODE     ---       #132
      010011A7H   LINE      CODE     ---       #133
      010011AFH   LINE      CODE     ---       #134
      010011B1H   LINE      CODE     ---       #135
      010011B3H   LINE      CODE     ---       #136
      010011B6H   LINE      CODE     ---       #137
      010011B6H   LINE      CODE     ---       #138
      010011B9H   LINE      CODE     ---       #139
      010011BBH   LINE      CODE     ---       #140
      ---         BLOCKEND  ---      ---       LVL=0

      010011BCH   BLOCK     CODE     ---       LVL=0
      010011BCH   BLOCK     CODE     NEAR LAB  LVL=1
      00000006H   SYMBOL    DATA     WORD      key_adc_value
      ---         BLOCKEND  ---      ---       LVL=1
      010011BCH   LINE      CODE     ---       #145
      010011BCH   LINE      CODE     ---       #146
      010011BCH   LINE      CODE     ---       #147
      010011BFH   LINE      CODE     ---       #148
      010011C8H   LINE      CODE     ---       #149
      010011CDH   LINE      CODE     ---       #151
      010011D0H   LINE      CODE     ---       #153
      010011D8H   LINE      CODE     ---       #154
      010011DAH   LINE      CODE     ---       #155
      010011DCH   LINE      CODE     ---       #156
      010011DFH   LINE      CODE     ---       #157
      010011DFH   LINE      CODE     ---       #158
      010011E2H   LINE      CODE     ---       #159
      010011E4H   LINE      CODE     ---       #160
      ---         BLOCKEND  ---      ---       LVL=0

      010015D9H   BLOCK     CODE     ---       LVL=0
      010015D9H   LINE      CODE     ---       #163
      010015DFH   LINE      CODE     ---       #165
      010015E1H   LINE      CODE     ---       #166
      010015E8H   LINE      CODE     ---       #167
      ---         BLOCKEND  ---      ---       LVL=0

      ---         MODULE    ---      ---       SYNC
      0000003FH   PUBLIC    IDATA    BYTE      key_task_interval
      01001284H   PUBLIC    CODE     ---       tm0_isr
      0100166BH   PUBLIC    CODE     ---       init_system_tick
      000000D8H.2 SFRSYM    DATA     BIT       CCF2
      000000E0H.7 SFRSYM    DATA     BIT       ACC7
      00000093H   SFRSYM    DATA     BYTE      P0M1
      00000092H   SFRSYM    DATA     BYTE      P1M0
      00000096H   SFRSYM    DATA     BYTE      P2M0
      00000091H   SFRSYM    DATA     BYTE      P1M1
      00000080H   SFRSYM    DATA     BYTE      P0
      000000B2H   SFRSYM    DATA     BYTE      P3M0
      00000095H   SFRSYM    DATA     BYTE      P2M1
      00000090H   SFRSYM    DATA     BYTE      P1
      000000B4H   SFRSYM    DATA     BYTE      P4M0
      000000B1H   SFRSYM    DATA     BYTE      P3M1
      000000A0H   SFRSYM    DATA     BYTE      P2
      000000CAH   SFRSYM    DATA     BYTE      P5M0
LX51 LINKER/LOCATER V4.66.1.0                                                         01/17/2017  13:47:51  PAGE 61


      000000B3H   SFRSYM    DATA     BYTE      P4M1
      000000B0H   SFRSYM    DATA     BYTE      P3
      000000ABH   SFRSYM    DATA     BYTE      WKTCH
      000000B0H.4 SFRSYM    DATA     BIT       T0
      000000D0H.6 SFRSYM    DATA     BIT       AC
      000000CCH   SFRSYM    DATA     BYTE      P6M0
      000000C9H   SFRSYM    DATA     BYTE      P5M1
      000000C0H   SFRSYM    DATA     BYTE      P4
      000000B0H.5 SFRSYM    DATA     BIT       CLKOUT0
      000000B0H.5 SFRSYM    DATA     BIT       T1
      000000F6H   SFRSYM    DATA     BYTE      PWMIF
      000000E2H   SFRSYM    DATA     BYTE      P7M0
      000000CBH   SFRSYM    DATA     BYTE      P6M1
      000000C8H   SFRSYM    DATA     BYTE      P5
      000000C6H   SFRSYM    DATA     BYTE      ISP_TRIG
      000000A8H.7 SFRSYM    DATA     BIT       EA
      000000B0H.4 SFRSYM    DATA     BIT       CLKOUT1
      000000A0H.4 SFRSYM    DATA     BIT       SPI_SS_2
      000000E8H   SFRSYM    DATA     BYTE      P6
      000000E1H   SFRSYM    DATA     BYTE      P7M1
      000000C8H.4 SFRSYM    DATA     BIT       SPI_SS_3
      00000090H.4 SFRSYM    DATA     BIT       SPI_MISO
      00000090H.3 SFRSYM    DATA     BIT       SPI_MOSI
      00000090H.1 SFRSYM    DATA     BIT       CCP0
      000000F8H   SFRSYM    DATA     BYTE      P7
      000000AAH   SFRSYM    DATA     BYTE      WKTCL
      00000090H   SFRSYM    DATA     BIT       CCP1
      000000CEH   SFRSYM    DATA     BYTE      SPCTL
      000000D8H.7 SFRSYM    DATA     BIT       CF
      000000B0H.7 SFRSYM    DATA     BIT       CCP2
      000000F9H   SFRSYM    DATA     BYTE      CH
      000000F5H   SFRSYM    DATA     BYTE      PWMCR
      000000A2H   SFRSYM    DATA     BYTE      P_SW1
      000000BAH   SFRSYM    DATA     BYTE      P_SW2
      000000A8H.5 SFRSYM    DATA     BIT       EADC
      000000A0H.1 SFRSYM    DATA     BIT       SPI_SCLK_2
      000000A8H   SFRSYM    DATA     BYTE      IE
      000000C0H.3 SFRSYM    DATA     BIT       SPI_SCLK_3
      000000E9H   SFRSYM    DATA     BYTE      CL
      000000C5H   SFRSYM    DATA     BYTE      IAP_CMD
      000000FAH   SFRSYM    DATA     BYTE      CCAP0H
      000000FBH   SFRSYM    DATA     BYTE      CCAP1H
      000000FCH   SFRSYM    DATA     BYTE      CCAP2H
      000000BDH   SFRSYM    DATA     BYTE      ADC_RES
      000000B6H   SFRSYM    DATA     BYTE      IPH2
      000000D8H.6 SFRSYM    DATA     BIT       CR
      000000EAH   SFRSYM    DATA     BYTE      CCAP0L
      000000B0H.7 SFRSYM    DATA     BIT       RD
      000000F7H   SFRSYM    DATA     BYTE      PWMFDCR
      000000EBH   SFRSYM    DATA     BYTE      CCAP1L
      000000DAH   SFRSYM    DATA     BYTE      CCAPM0
      000000ECH   SFRSYM    DATA     BYTE      CCAP2L
      000000DBH   SFRSYM    DATA     BYTE      CCAPM1
      000000A8H.4 SFRSYM    DATA     BIT       ES
      000000DCH   SFRSYM    DATA     BYTE      CCAPM2
      000000B8H.5 SFRSYM    DATA     BIT       PADC
      000000A0H.2 SFRSYM    DATA     BIT       SPI_MISO_2
      000000A0H.3 SFRSYM    DATA     BIT       SPI_MOSI_2
      000000B8H   SFRSYM    DATA     BYTE      IP
      000000C0H.1 SFRSYM    DATA     BIT       SPI_MISO_3
      000000C0H   SFRSYM    DATA     BIT       SPI_MOSI_3
      00000098H   SFRSYM    DATA     BIT       RI
      000000B0H.2 SFRSYM    DATA     BIT       INT0
      000000D0H.7 SFRSYM    DATA     BIT       CY
      00000098H.1 SFRSYM    DATA     BIT       TI
LX51 LINKER/LOCATER V4.66.1.0                                                         01/17/2017  13:47:51  PAGE 62


      000000B0H.3 SFRSYM    DATA     BIT       INT1
      00000097H   SFRSYM    DATA     BYTE      CLK_DIV
      000000C3H   SFRSYM    DATA     BYTE      IAP_ADDRH
      00000090H   SFRSYM    DATA     BIT       RXD2
      000000C5H   SFRSYM    DATA     BYTE      ISP_CMD
      000000B8H.4 SFRSYM    DATA     BIT       PS
      00000090H.1 SFRSYM    DATA     BIT       TXD2
      00000081H   SFRSYM    DATA     BYTE      SP
      000000D9H   SFRSYM    DATA     BYTE      CMOD
      000000D8H   SFRSYM    DATA     BYTE      CCON
      000000C4H   SFRSYM    DATA     BYTE      IAP_ADDRL
      000000B8H.7 SFRSYM    DATA     BIT       PPCA
      000000D0H.2 SFRSYM    DATA     BIT       OV
      000000E6H   SFRSYM    DATA     BYTE      CMPCR1
      000000B0H.6 SFRSYM    DATA     BIT       WR
      000000E7H   SFRSYM    DATA     BYTE      CMPCR2
      000000A8H.6 SFRSYM    DATA     BIT       ELVD
      00000080H   SFRSYM    DATA     BIT       P00
      00000090H   SFRSYM    DATA     BIT       P10
      00000080H.1 SFRSYM    DATA     BIT       P01
      000000BCH   SFRSYM    DATA     BYTE      ADC_CONTR
      00000099H   SFRSYM    DATA     BYTE      SBUF
      00000087H   SFRSYM    DATA     BYTE      PCON
      000000A0H   SFRSYM    DATA     BIT       P20
      00000090H.1 SFRSYM    DATA     BIT       P11
      00000080H.2 SFRSYM    DATA     BIT       P02
      000000C3H   SFRSYM    DATA     BYTE      ISP_ADDRH
      000000B0H   SFRSYM    DATA     BIT       P30
      000000A0H.1 SFRSYM    DATA     BIT       P21
      00000090H.2 SFRSYM    DATA     BIT       P12
      00000080H.3 SFRSYM    DATA     BIT       P03
      000000C0H   SFRSYM    DATA     BIT       P40
      000000B0H.1 SFRSYM    DATA     BIT       P31
      000000A0H.2 SFRSYM    DATA     BIT       P22
      00000090H.3 SFRSYM    DATA     BIT       P13
      00000080H.4 SFRSYM    DATA     BIT       P04
      00000098H   SFRSYM    DATA     BYTE      SCON
      0000008FH   SFRSYM    DATA     BYTE      WAKE_CLKO
      000000C8H   SFRSYM    DATA     BIT       P50
      000000C0H.1 SFRSYM    DATA     BIT       P41
      000000B0H.2 SFRSYM    DATA     BIT       P32
      000000A0H.3 SFRSYM    DATA     BIT       P23
      00000090H.4 SFRSYM    DATA     BIT       P14
      00000080H.5 SFRSYM    DATA     BIT       P05
      00000089H   SFRSYM    DATA     BYTE      TMOD
      00000088H   SFRSYM    DATA     BYTE      TCON
      000000E8H   SFRSYM    DATA     BIT       P60
      000000C8H.1 SFRSYM    DATA     BIT       P51
      000000C0H.2 SFRSYM    DATA     BIT       P42
      000000B0H.3 SFRSYM    DATA     BIT       P33
      000000A0H.4 SFRSYM    DATA     BIT       P24
      00000090H.5 SFRSYM    DATA     BIT       P15
      00000080H.6 SFRSYM    DATA     BIT       P06
      000000C4H   SFRSYM    DATA     BYTE      ISP_ADDRL
      000000B8H.6 SFRSYM    DATA     BIT       PLVD
      000000F8H   SFRSYM    DATA     BIT       P70
      000000E8H.1 SFRSYM    DATA     BIT       P61
      000000C8H.2 SFRSYM    DATA     BIT       P52
      000000C0H.3 SFRSYM    DATA     BIT       P43
      000000B0H.4 SFRSYM    DATA     BIT       P34
      000000A0H.5 SFRSYM    DATA     BIT       P25
      00000090H.6 SFRSYM    DATA     BIT       P16
      00000080H.7 SFRSYM    DATA     BIT       P07
      000000F8H.1 SFRSYM    DATA     BIT       P71
      000000E8H.2 SFRSYM    DATA     BIT       P62
LX51 LINKER/LOCATER V4.66.1.0                                                         01/17/2017  13:47:51  PAGE 63


      000000C8H.3 SFRSYM    DATA     BIT       P53
      000000C0H.4 SFRSYM    DATA     BIT       P44
      000000B0H.5 SFRSYM    DATA     BIT       P35
      000000A0H.6 SFRSYM    DATA     BIT       P26
      00000090H.7 SFRSYM    DATA     BIT       P17
      000000F8H.2 SFRSYM    DATA     BIT       P72
      000000E8H.3 SFRSYM    DATA     BIT       P63
      000000C8H.4 SFRSYM    DATA     BIT       P54
      000000C0H.5 SFRSYM    DATA     BIT       P45
      000000B0H.6 SFRSYM    DATA     BIT       P36
      000000A0H.7 SFRSYM    DATA     BIT       P27
      000000F8H.3 SFRSYM    DATA     BIT       P73
      000000E8H.4 SFRSYM    DATA     BIT       P64
      000000C8H.5 SFRSYM    DATA     BIT       P55
      000000C0H.6 SFRSYM    DATA     BIT       P46
      000000B0H.7 SFRSYM    DATA     BIT       P37
      000000F8H.4 SFRSYM    DATA     BIT       P74
      000000E8H.5 SFRSYM    DATA     BIT       P65
      000000C8H.6 SFRSYM    DATA     BIT       P56
      000000C0H.7 SFRSYM    DATA     BIT       P47
      000000F8H.5 SFRSYM    DATA     BIT       P75
      000000E8H.6 SFRSYM    DATA     BIT       P66
      000000C8H.7 SFRSYM    DATA     BIT       P57
      000000F8H.6 SFRSYM    DATA     BIT       P76
      000000E8H.7 SFRSYM    DATA     BIT       P67
      000000F8H.7 SFRSYM    DATA     BIT       P77
      00000088H.1 SFRSYM    DATA     BIT       IE0
      000000A1H   SFRSYM    DATA     BYTE      BUS_SPEED
      00000088H.3 SFRSYM    DATA     BIT       IE1
      000000AFH   SFRSYM    DATA     BYTE      IE2
      000000F0H   SFRSYM    DATA     BYTE      B
      0000008EH   SFRSYM    DATA     BYTE      AUXR
      000000C7H   SFRSYM    DATA     BYTE      IAP_CONTR
      000000F1H   SFRSYM    DATA     BYTE      PWMCFG
      000000E0H   SFRSYM    DATA     BYTE      ACC
      000000A8H.1 SFRSYM    DATA     BIT       ET0
      000000A8H.3 SFRSYM    DATA     BIT       ET1
      00000088H.5 SFRSYM    DATA     BIT       TF0
      00000088H.7 SFRSYM    DATA     BIT       TF1
      000000B5H   SFRSYM    DATA     BYTE      IP2
      0000008CH   SFRSYM    DATA     BYTE      RL_TH0
      00000098H.2 SFRSYM    DATA     BIT       RB8
      0000008DH   SFRSYM    DATA     BYTE      RL_TH1
      0000008CH   SFRSYM    DATA     BYTE      TH0
      000000A8H   SFRSYM    DATA     BIT       EX0
      00000088H   SFRSYM    DATA     BIT       IT0
      000000D6H   SFRSYM    DATA     BYTE      RL_T2H
      0000008DH   SFRSYM    DATA     BYTE      TH1
      000000A8H.2 SFRSYM    DATA     BIT       EX1
      00000098H.3 SFRSYM    DATA     BIT       TB8
      00000088H.2 SFRSYM    DATA     BIT       IT1
      000000D4H   SFRSYM    DATA     BYTE      RL_T3H
      000000D6H   SFRSYM    DATA     BYTE      TH2
      000000D6H   SFRSYM    DATA     BYTE      T2H
      000000D0H   SFRSYM    DATA     BIT       P
      000000D2H   SFRSYM    DATA     BYTE      RL_T4H
      000000D4H   SFRSYM    DATA     BYTE      TH3
      000000D4H   SFRSYM    DATA     BYTE      T3H
      0000008AH   SFRSYM    DATA     BYTE      RL_TL0
      00000098H.7 SFRSYM    DATA     BIT       SM0
      000000D2H   SFRSYM    DATA     BYTE      TH4
      000000D2H   SFRSYM    DATA     BYTE      T4H
      0000008BH   SFRSYM    DATA     BYTE      RL_TL1
      0000008AH   SFRSYM    DATA     BYTE      TL0
      00000098H.6 SFRSYM    DATA     BIT       SM1
LX51 LINKER/LOCATER V4.66.1.0                                                         01/17/2017  13:47:51  PAGE 64


      000000D7H   SFRSYM    DATA     BYTE      RL_T2L
      0000008BH   SFRSYM    DATA     BYTE      TL1
      00000098H.5 SFRSYM    DATA     BIT       SM2
      000000D5H   SFRSYM    DATA     BYTE      RL_T3L
      000000D7H   SFRSYM    DATA     BYTE      TL2
      000000D7H   SFRSYM    DATA     BYTE      T2L
      000000D3H   SFRSYM    DATA     BYTE      RL_T4L
      000000D5H   SFRSYM    DATA     BYTE      TL3
      000000D5H   SFRSYM    DATA     BYTE      T3L
      000000B8H.1 SFRSYM    DATA     BIT       PT0
      000000D3H   SFRSYM    DATA     BYTE      TL4
      000000D3H   SFRSYM    DATA     BYTE      T4L
      000000B8H.3 SFRSYM    DATA     BIT       PT1
      000000D0H.3 SFRSYM    DATA     BIT       RS0
      000000C7H   SFRSYM    DATA     BYTE      ISP_CONTR
      00000088H.4 SFRSYM    DATA     BIT       TR0
      000000D0H.4 SFRSYM    DATA     BIT       RS1
      000000C2H   SFRSYM    DATA     BYTE      IAP_DATA
      00000088H.6 SFRSYM    DATA     BIT       TR1
      000000B8H   SFRSYM    DATA     BIT       PX0
      000000C1H   SFRSYM    DATA     BYTE      WDT_CONTR
      000000B8H.2 SFRSYM    DATA     BIT       PX1
      000000F2H   SFRSYM    DATA     BYTE      PCA_PWM0
      000000F3H   SFRSYM    DATA     BYTE      PCA_PWM1
      000000F4H   SFRSYM    DATA     BYTE      PCA_PWM2
      0000009DH   SFRSYM    DATA     BYTE      P1ASF
      00000083H   SFRSYM    DATA     BYTE      DPH
      000000D1H   SFRSYM    DATA     BYTE      T4T3M
      000000BEH   SFRSYM    DATA     BYTE      ADC_RESL
      00000082H   SFRSYM    DATA     BYTE      DPL
      000000CDH   SFRSYM    DATA     BYTE      SPSTAT
      000000B7H   SFRSYM    DATA     BYTE      IPH
      0000009BH   SFRSYM    DATA     BYTE      S2BUF
      00000097H   SFRSYM    DATA     BYTE      PCON2
      000000ADH   SFRSYM    DATA     BYTE      S3BUF
      00000098H.4 SFRSYM    DATA     BIT       REN
      00000085H   SFRSYM    DATA     BYTE      S4BUF
      0000009AH   SFRSYM    DATA     BYTE      S2CON
      000000ACH   SFRSYM    DATA     BYTE      S3CON
      000000C2H   SFRSYM    DATA     BYTE      ISP_DATA
      00000084H   SFRSYM    DATA     BYTE      S4CON
      000000B9H   SFRSYM    DATA     BYTE      SADEN
      000000B0H   SFRSYM    DATA     BIT       RXD
      000000A9H   SFRSYM    DATA     BYTE      SADDR
      000000B0H.1 SFRSYM    DATA     BIT       TXD
      000000F0H   SFRSYM    DATA     BIT       B0
      000000F0H.1 SFRSYM    DATA     BIT       B1
      000000C6H   SFRSYM    DATA     BYTE      IAP_TRIG
      000000A2H   SFRSYM    DATA     BYTE      AUXR1
      000000F0H.2 SFRSYM    DATA     BIT       B2
      00000090H.2 SFRSYM    DATA     BIT       SPI_SS
      0000008FH   SFRSYM    DATA     BYTE      AUXR2
      000000F0H.3 SFRSYM    DATA     BIT       B3
      000000F0H.4 SFRSYM    DATA     BIT       B4
      000000D0H.5 SFRSYM    DATA     BIT       F0
      000000F0H.5 SFRSYM    DATA     BIT       B5
      000000D0H.1 SFRSYM    DATA     BIT       F1
      0000008FH   SFRSYM    DATA     BYTE      INT_CLKO
      000000F0H.6 SFRSYM    DATA     BIT       B6
      000000E0H   SFRSYM    DATA     BIT       ACC0
      000000F0H.7 SFRSYM    DATA     BIT       B7
      000000E0H.1 SFRSYM    DATA     BIT       ACC1
      000000E0H.2 SFRSYM    DATA     BIT       ACC2
      000000E0H.3 SFRSYM    DATA     BIT       ACC3
      000000D0H   SFRSYM    DATA     BYTE      PSW
LX51 LINKER/LOCATER V4.66.1.0                                                         01/17/2017  13:47:51  PAGE 65


      000000E0H.4 SFRSYM    DATA     BIT       ACC4
      00000090H.5 SFRSYM    DATA     BIT       SPI_SCLK
      000000D8H   SFRSYM    DATA     BIT       CCF0
      000000E0H.5 SFRSYM    DATA     BIT       ACC5
      000000D8H.1 SFRSYM    DATA     BIT       CCF1
      000000E0H.6 SFRSYM    DATA     BIT       ACC6
      000000CFH   SFRSYM    DATA     BYTE      SPDAT
      00000094H   SFRSYM    DATA     BYTE      P0M0

      0100166BH   BLOCK     CODE     ---       LVL=0
      0100166BH   LINE      CODE     ---       #9
      0100166BH   LINE      CODE     ---       #10
      0100166EH   LINE      CODE     ---       #11
      01001671H   LINE      CODE     ---       #12
      01001674H   LINE      CODE     ---       #14
      0100167AH   LINE      CODE     ---       #15
      0100167CH   LINE      CODE     ---       #16
      0100167EH   LINE      CODE     ---       #17
      ---         BLOCKEND  ---      ---       LVL=0
      00000007H   SYMBOL    DATA     BYTE      i
      00000006H   SYMBOL    DATA     BYTE      j

      01001284H   BLOCK     CODE     ---       LVL=0
      01001284H   LINE      CODE     ---       #33
      0100128FH   LINE      CODE     ---       #35
      01001296H   LINE      CODE     ---       #36
      0100129CH   LINE      CODE     ---       #37
      010012A0H   LINE      CODE     ---       #38
      010012A2H   LINE      CODE     ---       #39
      010012A2H   LINE      CODE     ---       #40
      ---         BLOCKEND  ---      ---       LVL=0

      ---         MODULE    ---      ---       TASK
      020000F2H   PUBLIC    XDATA    BYTE      INT_PROC
      000000D8H.2 SFRSYM    DATA     BIT       CCF2
      000000E0H.7 SFRSYM    DATA     BIT       ACC7
      00000093H   SFRSYM    DATA     BYTE      P0M1
      00000092H   SFRSYM    DATA     BYTE      P1M0
      00000096H   SFRSYM    DATA     BYTE      P2M0
      00000091H   SFRSYM    DATA     BYTE      P1M1
      00000080H   SFRSYM    DATA     BYTE      P0
      000000B2H   SFRSYM    DATA     BYTE      P3M0
      00000095H   SFRSYM    DATA     BYTE      P2M1
      00000090H   SFRSYM    DATA     BYTE      P1
      000000B4H   SFRSYM    DATA     BYTE      P4M0
      000000B1H   SFRSYM    DATA     BYTE      P3M1
      000000A0H   SFRSYM    DATA     BYTE      P2
      000000CAH   SFRSYM    DATA     BYTE      P5M0
      000000B3H   SFRSYM    DATA     BYTE      P4M1
      000000B0H   SFRSYM    DATA     BYTE      P3
      000000ABH   SFRSYM    DATA     BYTE      WKTCH
      000000B0H.4 SFRSYM    DATA     BIT       T0
      000000D0H.6 SFRSYM    DATA     BIT       AC
      000000CCH   SFRSYM    DATA     BYTE      P6M0
      000000C9H   SFRSYM    DATA     BYTE      P5M1
      000000C0H   SFRSYM    DATA     BYTE      P4
      000000B0H.5 SFRSYM    DATA     BIT       CLKOUT0
      000000B0H.5 SFRSYM    DATA     BIT       T1
      000000F6H   SFRSYM    DATA     BYTE      PWMIF
      000000E2H   SFRSYM    DATA     BYTE      P7M0
      000000CBH   SFRSYM    DATA     BYTE      P6M1
      000000C8H   SFRSYM    DATA     BYTE      P5
      000000C6H   SFRSYM    DATA     BYTE      ISP_TRIG
      000000A8H.7 SFRSYM    DATA     BIT       EA
      000000B0H.4 SFRSYM    DATA     BIT       CLKOUT1
LX51 LINKER/LOCATER V4.66.1.0                                                         01/17/2017  13:47:51  PAGE 66


      000000A0H.4 SFRSYM    DATA     BIT       SPI_SS_2
      000000E8H   SFRSYM    DATA     BYTE      P6
      000000E1H   SFRSYM    DATA     BYTE      P7M1
      000000C8H.4 SFRSYM    DATA     BIT       SPI_SS_3
      00000090H.4 SFRSYM    DATA     BIT       SPI_MISO
      00000090H.3 SFRSYM    DATA     BIT       SPI_MOSI
      00000090H.1 SFRSYM    DATA     BIT       CCP0
      000000F8H   SFRSYM    DATA     BYTE      P7
      000000AAH   SFRSYM    DATA     BYTE      WKTCL
      00000090H   SFRSYM    DATA     BIT       CCP1
      000000CEH   SFRSYM    DATA     BYTE      SPCTL
      000000D8H.7 SFRSYM    DATA     BIT       CF
      000000B0H.7 SFRSYM    DATA     BIT       CCP2
      000000F9H   SFRSYM    DATA     BYTE      CH
      000000F5H   SFRSYM    DATA     BYTE      PWMCR
      000000A2H   SFRSYM    DATA     BYTE      P_SW1
      000000BAH   SFRSYM    DATA     BYTE      P_SW2
      000000A8H.5 SFRSYM    DATA     BIT       EADC
      000000A0H.1 SFRSYM    DATA     BIT       SPI_SCLK_2
      000000A8H   SFRSYM    DATA     BYTE      IE
      000000C0H.3 SFRSYM    DATA     BIT       SPI_SCLK_3
      000000E9H   SFRSYM    DATA     BYTE      CL
      000000C5H   SFRSYM    DATA     BYTE      IAP_CMD
      000000FAH   SFRSYM    DATA     BYTE      CCAP0H
      000000FBH   SFRSYM    DATA     BYTE      CCAP1H
      000000FCH   SFRSYM    DATA     BYTE      CCAP2H
      000000BDH   SFRSYM    DATA     BYTE      ADC_RES
      000000B6H   SFRSYM    DATA     BYTE      IPH2
      000000D8H.6 SFRSYM    DATA     BIT       CR
      000000EAH   SFRSYM    DATA     BYTE      CCAP0L
      000000B0H.7 SFRSYM    DATA     BIT       RD
      000000F7H   SFRSYM    DATA     BYTE      PWMFDCR
      000000EBH   SFRSYM    DATA     BYTE      CCAP1L
      000000DAH   SFRSYM    DATA     BYTE      CCAPM0
      000000ECH   SFRSYM    DATA     BYTE      CCAP2L
      000000DBH   SFRSYM    DATA     BYTE      CCAPM1
      000000A8H.4 SFRSYM    DATA     BIT       ES
      000000DCH   SFRSYM    DATA     BYTE      CCAPM2
      000000B8H.5 SFRSYM    DATA     BIT       PADC
      000000A0H.2 SFRSYM    DATA     BIT       SPI_MISO_2
      000000A0H.3 SFRSYM    DATA     BIT       SPI_MOSI_2
      000000B8H   SFRSYM    DATA     BYTE      IP
      000000C0H.1 SFRSYM    DATA     BIT       SPI_MISO_3
      000000C0H   SFRSYM    DATA     BIT       SPI_MOSI_3
      00000098H   SFRSYM    DATA     BIT       RI
      000000B0H.2 SFRSYM    DATA     BIT       INT0
      000000D0H.7 SFRSYM    DATA     BIT       CY
      00000098H.1 SFRSYM    DATA     BIT       TI
      000000B0H.3 SFRSYM    DATA     BIT       INT1
      00000097H   SFRSYM    DATA     BYTE      CLK_DIV
      000000C3H   SFRSYM    DATA     BYTE      IAP_ADDRH
      00000090H   SFRSYM    DATA     BIT       RXD2
      000000C5H   SFRSYM    DATA     BYTE      ISP_CMD
      000000B8H.4 SFRSYM    DATA     BIT       PS
      00000090H.1 SFRSYM    DATA     BIT       TXD2
      00000081H   SFRSYM    DATA     BYTE      SP
      000000D9H   SFRSYM    DATA     BYTE      CMOD
      000000D8H   SFRSYM    DATA     BYTE      CCON
      000000C4H   SFRSYM    DATA     BYTE      IAP_ADDRL
      000000B8H.7 SFRSYM    DATA     BIT       PPCA
      000000D0H.2 SFRSYM    DATA     BIT       OV
      000000E6H   SFRSYM    DATA     BYTE      CMPCR1
      000000B0H.6 SFRSYM    DATA     BIT       WR
      000000E7H   SFRSYM    DATA     BYTE      CMPCR2
      000000A8H.6 SFRSYM    DATA     BIT       ELVD
LX51 LINKER/LOCATER V4.66.1.0                                                         01/17/2017  13:47:51  PAGE 67


      00000080H   SFRSYM    DATA     BIT       P00
      00000090H   SFRSYM    DATA     BIT       P10
      00000080H.1 SFRSYM    DATA     BIT       P01
      000000BCH   SFRSYM    DATA     BYTE      ADC_CONTR
      00000099H   SFRSYM    DATA     BYTE      SBUF
      00000087H   SFRSYM    DATA     BYTE      PCON
      000000A0H   SFRSYM    DATA     BIT       P20
      00000090H.1 SFRSYM    DATA     BIT       P11
      00000080H.2 SFRSYM    DATA     BIT       P02
      000000C3H   SFRSYM    DATA     BYTE      ISP_ADDRH
      000000B0H   SFRSYM    DATA     BIT       P30
      000000A0H.1 SFRSYM    DATA     BIT       P21
      00000090H.2 SFRSYM    DATA     BIT       P12
      00000080H.3 SFRSYM    DATA     BIT       P03
      000000C0H   SFRSYM    DATA     BIT       P40
      000000B0H.1 SFRSYM    DATA     BIT       P31
      000000A0H.2 SFRSYM    DATA     BIT       P22
      00000090H.3 SFRSYM    DATA     BIT       P13
      00000080H.4 SFRSYM    DATA     BIT       P04
      00000098H   SFRSYM    DATA     BYTE      SCON
      0000008FH   SFRSYM    DATA     BYTE      WAKE_CLKO
      000000C8H   SFRSYM    DATA     BIT       P50
      000000C0H.1 SFRSYM    DATA     BIT       P41
      000000B0H.2 SFRSYM    DATA     BIT       P32
      000000A0H.3 SFRSYM    DATA     BIT       P23
      00000090H.4 SFRSYM    DATA     BIT       P14
      00000080H.5 SFRSYM    DATA     BIT       P05
      00000089H   SFRSYM    DATA     BYTE      TMOD
      00000088H   SFRSYM    DATA     BYTE      TCON
      000000E8H   SFRSYM    DATA     BIT       P60
      000000C8H.1 SFRSYM    DATA     BIT       P51
      000000C0H.2 SFRSYM    DATA     BIT       P42
      000000B0H.3 SFRSYM    DATA     BIT       P33
      000000A0H.4 SFRSYM    DATA     BIT       P24
      00000090H.5 SFRSYM    DATA     BIT       P15
      00000080H.6 SFRSYM    DATA     BIT       P06
      000000C4H   SFRSYM    DATA     BYTE      ISP_ADDRL
      000000B8H.6 SFRSYM    DATA     BIT       PLVD
      000000F8H   SFRSYM    DATA     BIT       P70
      000000E8H.1 SFRSYM    DATA     BIT       P61
      000000C8H.2 SFRSYM    DATA     BIT       P52
      000000C0H.3 SFRSYM    DATA     BIT       P43
      000000B0H.4 SFRSYM    DATA     BIT       P34
      000000A0H.5 SFRSYM    DATA     BIT       P25
      00000090H.6 SFRSYM    DATA     BIT       P16
      00000080H.7 SFRSYM    DATA     BIT       P07
      000000F8H.1 SFRSYM    DATA     BIT       P71
      000000E8H.2 SFRSYM    DATA     BIT       P62
      000000C8H.3 SFRSYM    DATA     BIT       P53
      000000C0H.4 SFRSYM    DATA     BIT       P44
      000000B0H.5 SFRSYM    DATA     BIT       P35
      000000A0H.6 SFRSYM    DATA     BIT       P26
      00000090H.7 SFRSYM    DATA     BIT       P17
      000000F8H.2 SFRSYM    DATA     BIT       P72
      000000E8H.3 SFRSYM    DATA     BIT       P63
      000000C8H.4 SFRSYM    DATA     BIT       P54
      000000C0H.5 SFRSYM    DATA     BIT       P45
      000000B0H.6 SFRSYM    DATA     BIT       P36
      000000A0H.7 SFRSYM    DATA     BIT       P27
      000000F8H.3 SFRSYM    DATA     BIT       P73
      000000E8H.4 SFRSYM    DATA     BIT       P64
      000000C8H.5 SFRSYM    DATA     BIT       P55
      000000C0H.6 SFRSYM    DATA     BIT       P46
      000000B0H.7 SFRSYM    DATA     BIT       P37
      000000F8H.4 SFRSYM    DATA     BIT       P74
LX51 LINKER/LOCATER V4.66.1.0                                                         01/17/2017  13:47:51  PAGE 68


      000000E8H.5 SFRSYM    DATA     BIT       P65
      000000C8H.6 SFRSYM    DATA     BIT       P56
      000000C0H.7 SFRSYM    DATA     BIT       P47
      000000F8H.5 SFRSYM    DATA     BIT       P75
      000000E8H.6 SFRSYM    DATA     BIT       P66
      000000C8H.7 SFRSYM    DATA     BIT       P57
      000000F8H.6 SFRSYM    DATA     BIT       P76
      000000E8H.7 SFRSYM    DATA     BIT       P67
      000000F8H.7 SFRSYM    DATA     BIT       P77
      00000088H.1 SFRSYM    DATA     BIT       IE0
      000000A1H   SFRSYM    DATA     BYTE      BUS_SPEED
      00000088H.3 SFRSYM    DATA     BIT       IE1
      000000AFH   SFRSYM    DATA     BYTE      IE2
      000000F0H   SFRSYM    DATA     BYTE      B
      0000008EH   SFRSYM    DATA     BYTE      AUXR
      000000C7H   SFRSYM    DATA     BYTE      IAP_CONTR
      000000F1H   SFRSYM    DATA     BYTE      PWMCFG
      000000E0H   SFRSYM    DATA     BYTE      ACC
      000000A8H.1 SFRSYM    DATA     BIT       ET0
      000000A8H.3 SFRSYM    DATA     BIT       ET1
      00000088H.5 SFRSYM    DATA     BIT       TF0
      00000088H.7 SFRSYM    DATA     BIT       TF1
      000000B5H   SFRSYM    DATA     BYTE      IP2
      0000008CH   SFRSYM    DATA     BYTE      RL_TH0
      00000098H.2 SFRSYM    DATA     BIT       RB8
      0000008DH   SFRSYM    DATA     BYTE      RL_TH1
      0000008CH   SFRSYM    DATA     BYTE      TH0
      000000A8H   SFRSYM    DATA     BIT       EX0
      00000088H   SFRSYM    DATA     BIT       IT0
      000000D6H   SFRSYM    DATA     BYTE      RL_T2H
      0000008DH   SFRSYM    DATA     BYTE      TH1
      000000A8H.2 SFRSYM    DATA     BIT       EX1
      00000098H.3 SFRSYM    DATA     BIT       TB8
      00000088H.2 SFRSYM    DATA     BIT       IT1
      000000D4H   SFRSYM    DATA     BYTE      RL_T3H
      000000D6H   SFRSYM    DATA     BYTE      TH2
      000000D6H   SFRSYM    DATA     BYTE      T2H
      000000D0H   SFRSYM    DATA     BIT       P
      000000D2H   SFRSYM    DATA     BYTE      RL_T4H
      000000D4H   SFRSYM    DATA     BYTE      TH3
      000000D4H   SFRSYM    DATA     BYTE      T3H
      0000008AH   SFRSYM    DATA     BYTE      RL_TL0
      00000098H.7 SFRSYM    DATA     BIT       SM0
      000000D2H   SFRSYM    DATA     BYTE      TH4
      000000D2H   SFRSYM    DATA     BYTE      T4H
      0000008BH   SFRSYM    DATA     BYTE      RL_TL1
      0000008AH   SFRSYM    DATA     BYTE      TL0
      00000098H.6 SFRSYM    DATA     BIT       SM1
      000000D7H   SFRSYM    DATA     BYTE      RL_T2L
      0000008BH   SFRSYM    DATA     BYTE      TL1
      00000098H.5 SFRSYM    DATA     BIT       SM2
      000000D5H   SFRSYM    DATA     BYTE      RL_T3L
      000000D7H   SFRSYM    DATA     BYTE      TL2
      000000D7H   SFRSYM    DATA     BYTE      T2L
      000000D3H   SFRSYM    DATA     BYTE      RL_T4L
      000000D5H   SFRSYM    DATA     BYTE      TL3
      000000D5H   SFRSYM    DATA     BYTE      T3L
      000000B8H.1 SFRSYM    DATA     BIT       PT0
      000000D3H   SFRSYM    DATA     BYTE      TL4
      000000D3H   SFRSYM    DATA     BYTE      T4L
      000000B8H.3 SFRSYM    DATA     BIT       PT1
      000000D0H.3 SFRSYM    DATA     BIT       RS0
      000000C7H   SFRSYM    DATA     BYTE      ISP_CONTR
      00000088H.4 SFRSYM    DATA     BIT       TR0
      000000D0H.4 SFRSYM    DATA     BIT       RS1
LX51 LINKER/LOCATER V4.66.1.0                                                         01/17/2017  13:47:51  PAGE 69


      000000C2H   SFRSYM    DATA     BYTE      IAP_DATA
      00000088H.6 SFRSYM    DATA     BIT       TR1
      000000B8H   SFRSYM    DATA     BIT       PX0
      000000C1H   SFRSYM    DATA     BYTE      WDT_CONTR
      000000B8H.2 SFRSYM    DATA     BIT       PX1
      000000F2H   SFRSYM    DATA     BYTE      PCA_PWM0
      000000F3H   SFRSYM    DATA     BYTE      PCA_PWM1
      000000F4H   SFRSYM    DATA     BYTE      PCA_PWM2
      0000009DH   SFRSYM    DATA     BYTE      P1ASF
      00000083H   SFRSYM    DATA     BYTE      DPH
      000000D1H   SFRSYM    DATA     BYTE      T4T3M
      000000BEH   SFRSYM    DATA     BYTE      ADC_RESL
      00000082H   SFRSYM    DATA     BYTE      DPL
      000000CDH   SFRSYM    DATA     BYTE      SPSTAT
      000000B7H   SFRSYM    DATA     BYTE      IPH
      0000009BH   SFRSYM    DATA     BYTE      S2BUF
      00000097H   SFRSYM    DATA     BYTE      PCON2
      000000ADH   SFRSYM    DATA     BYTE      S3BUF
      00000098H.4 SFRSYM    DATA     BIT       REN
      00000085H   SFRSYM    DATA     BYTE      S4BUF
      0000009AH   SFRSYM    DATA     BYTE      S2CON
      000000ACH   SFRSYM    DATA     BYTE      S3CON
      000000C2H   SFRSYM    DATA     BYTE      ISP_DATA
      00000084H   SFRSYM    DATA     BYTE      S4CON
      000000B9H   SFRSYM    DATA     BYTE      SADEN
      000000B0H   SFRSYM    DATA     BIT       RXD
      000000A9H   SFRSYM    DATA     BYTE      SADDR
      000000B0H.1 SFRSYM    DATA     BIT       TXD
      000000F0H   SFRSYM    DATA     BIT       B0
      000000F0H.1 SFRSYM    DATA     BIT       B1
      000000C6H   SFRSYM    DATA     BYTE      IAP_TRIG
      000000A2H   SFRSYM    DATA     BYTE      AUXR1
      000000F0H.2 SFRSYM    DATA     BIT       B2
      00000090H.2 SFRSYM    DATA     BIT       SPI_SS
      0000008FH   SFRSYM    DATA     BYTE      AUXR2
      000000F0H.3 SFRSYM    DATA     BIT       B3
      000000F0H.4 SFRSYM    DATA     BIT       B4
      000000D0H.5 SFRSYM    DATA     BIT       F0
      000000F0H.5 SFRSYM    DATA     BIT       B5
      000000D0H.1 SFRSYM    DATA     BIT       F1
      0000008FH   SFRSYM    DATA     BYTE      INT_CLKO
      000000F0H.6 SFRSYM    DATA     BIT       B6
      000000E0H   SFRSYM    DATA     BIT       ACC0
      000000F0H.7 SFRSYM    DATA     BIT       B7
      000000E0H.1 SFRSYM    DATA     BIT       ACC1
      000000E0H.2 SFRSYM    DATA     BIT       ACC2
      000000E0H.3 SFRSYM    DATA     BIT       ACC3
      000000D0H   SFRSYM    DATA     BYTE      PSW
      000000E0H.4 SFRSYM    DATA     BIT       ACC4
      00000090H.5 SFRSYM    DATA     BIT       SPI_SCLK
      000000D8H   SFRSYM    DATA     BIT       CCF0
      000000E0H.5 SFRSYM    DATA     BIT       ACC5
      000000D8H.1 SFRSYM    DATA     BIT       CCF1
      000000E0H.6 SFRSYM    DATA     BIT       ACC6
      000000CFH   SFRSYM    DATA     BYTE      SPDAT
      00000094H   SFRSYM    DATA     BYTE      P0M0

      ---         MODULE    ---      ---       USART
      020000EAH   PUBLIC    XDATA    ---       COM1
      01001619H   PUBLIC    CODE     ---       _USART_Finish_Rx
      01000E7DH   PUBLIC    CODE     ---       _USART_RX_Block
      0100113CH   PUBLIC    CODE     ---       _USART_Init
      010013C9H   PUBLIC    CODE     ---       USART_Share_Timer2
      000000D8H.2 SFRSYM    DATA     BIT       CCF2
      000000E0H.7 SFRSYM    DATA     BIT       ACC7
LX51 LINKER/LOCATER V4.66.1.0                                                         01/17/2017  13:47:51  PAGE 70


      00000093H   SFRSYM    DATA     BYTE      P0M1
      00000092H   SFRSYM    DATA     BYTE      P1M0
      00000096H   SFRSYM    DATA     BYTE      P2M0
      00000091H   SFRSYM    DATA     BYTE      P1M1
      00000080H   SFRSYM    DATA     BYTE      P0
      000000B2H   SFRSYM    DATA     BYTE      P3M0
      00000095H   SFRSYM    DATA     BYTE      P2M1
      00000090H   SFRSYM    DATA     BYTE      P1
      000000B4H   SFRSYM    DATA     BYTE      P4M0
      000000B1H   SFRSYM    DATA     BYTE      P3M1
      000000A0H   SFRSYM    DATA     BYTE      P2
      000000CAH   SFRSYM    DATA     BYTE      P5M0
      000000B3H   SFRSYM    DATA     BYTE      P4M1
      000000B0H   SFRSYM    DATA     BYTE      P3
      000000ABH   SFRSYM    DATA     BYTE      WKTCH
      000000B0H.4 SFRSYM    DATA     BIT       T0
      000000D0H.6 SFRSYM    DATA     BIT       AC
      000000CCH   SFRSYM    DATA     BYTE      P6M0
      000000C9H   SFRSYM    DATA     BYTE      P5M1
      000000C0H   SFRSYM    DATA     BYTE      P4
      000000B0H.5 SFRSYM    DATA     BIT       CLKOUT0
      000000B0H.5 SFRSYM    DATA     BIT       T1
      000000F6H   SFRSYM    DATA     BYTE      PWMIF
      000000E2H   SFRSYM    DATA     BYTE      P7M0
      000000CBH   SFRSYM    DATA     BYTE      P6M1
      000000C8H   SFRSYM    DATA     BYTE      P5
      000000C6H   SFRSYM    DATA     BYTE      ISP_TRIG
      000000A8H.7 SFRSYM    DATA     BIT       EA
      000000B0H.4 SFRSYM    DATA     BIT       CLKOUT1
      000000A0H.4 SFRSYM    DATA     BIT       SPI_SS_2
      000000E8H   SFRSYM    DATA     BYTE      P6
      000000E1H   SFRSYM    DATA     BYTE      P7M1
      000000C8H.4 SFRSYM    DATA     BIT       SPI_SS_3
      00000090H.4 SFRSYM    DATA     BIT       SPI_MISO
      00000090H.3 SFRSYM    DATA     BIT       SPI_MOSI
      00000090H.1 SFRSYM    DATA     BIT       CCP0
      000000F8H   SFRSYM    DATA     BYTE      P7
      000000AAH   SFRSYM    DATA     BYTE      WKTCL
      00000090H   SFRSYM    DATA     BIT       CCP1
      000000CEH   SFRSYM    DATA     BYTE      SPCTL
      000000D8H.7 SFRSYM    DATA     BIT       CF
      000000B0H.7 SFRSYM    DATA     BIT       CCP2
      000000F9H   SFRSYM    DATA     BYTE      CH
      000000F5H   SFRSYM    DATA     BYTE      PWMCR
      000000A2H   SFRSYM    DATA     BYTE      P_SW1
      000000BAH   SFRSYM    DATA     BYTE      P_SW2
      000000A8H.5 SFRSYM    DATA     BIT       EADC
      000000A0H.1 SFRSYM    DATA     BIT       SPI_SCLK_2
      000000A8H   SFRSYM    DATA     BYTE      IE
      000000C0H.3 SFRSYM    DATA     BIT       SPI_SCLK_3
      000000E9H   SFRSYM    DATA     BYTE      CL
      000000C5H   SFRSYM    DATA     BYTE      IAP_CMD
      000000FAH   SFRSYM    DATA     BYTE      CCAP0H
      000000FBH   SFRSYM    DATA     BYTE      CCAP1H
      000000FCH   SFRSYM    DATA     BYTE      CCAP2H
      000000BDH   SFRSYM    DATA     BYTE      ADC_RES
      000000B6H   SFRSYM    DATA     BYTE      IPH2
      000000D8H.6 SFRSYM    DATA     BIT       CR
      000000EAH   SFRSYM    DATA     BYTE      CCAP0L
      000000B0H.7 SFRSYM    DATA     BIT       RD
      000000F7H   SFRSYM    DATA     BYTE      PWMFDCR
      000000EBH   SFRSYM    DATA     BYTE      CCAP1L
      000000DAH   SFRSYM    DATA     BYTE      CCAPM0
      000000ECH   SFRSYM    DATA     BYTE      CCAP2L
      000000DBH   SFRSYM    DATA     BYTE      CCAPM1
LX51 LINKER/LOCATER V4.66.1.0                                                         01/17/2017  13:47:51  PAGE 71


      000000A8H.4 SFRSYM    DATA     BIT       ES
      000000DCH   SFRSYM    DATA     BYTE      CCAPM2
      000000B8H.5 SFRSYM    DATA     BIT       PADC
      000000A0H.2 SFRSYM    DATA     BIT       SPI_MISO_2
      000000A0H.3 SFRSYM    DATA     BIT       SPI_MOSI_2
      000000B8H   SFRSYM    DATA     BYTE      IP
      000000C0H.1 SFRSYM    DATA     BIT       SPI_MISO_3
      000000C0H   SFRSYM    DATA     BIT       SPI_MOSI_3
      00000098H   SFRSYM    DATA     BIT       RI
      000000B0H.2 SFRSYM    DATA     BIT       INT0
      000000D0H.7 SFRSYM    DATA     BIT       CY
      00000098H.1 SFRSYM    DATA     BIT       TI
      000000B0H.3 SFRSYM    DATA     BIT       INT1
      00000097H   SFRSYM    DATA     BYTE      CLK_DIV
      000000C3H   SFRSYM    DATA     BYTE      IAP_ADDRH
      00000090H   SFRSYM    DATA     BIT       RXD2
      000000C5H   SFRSYM    DATA     BYTE      ISP_CMD
      000000B8H.4 SFRSYM    DATA     BIT       PS
      00000090H.1 SFRSYM    DATA     BIT       TXD2
      00000081H   SFRSYM    DATA     BYTE      SP
      000000D9H   SFRSYM    DATA     BYTE      CMOD
      000000D8H   SFRSYM    DATA     BYTE      CCON
      000000C4H   SFRSYM    DATA     BYTE      IAP_ADDRL
      000000B8H.7 SFRSYM    DATA     BIT       PPCA
      000000D0H.2 SFRSYM    DATA     BIT       OV
      000000E6H   SFRSYM    DATA     BYTE      CMPCR1
      000000B0H.6 SFRSYM    DATA     BIT       WR
      000000E7H   SFRSYM    DATA     BYTE      CMPCR2
      000000A8H.6 SFRSYM    DATA     BIT       ELVD
      00000080H   SFRSYM    DATA     BIT       P00
      00000090H   SFRSYM    DATA     BIT       P10
      00000080H.1 SFRSYM    DATA     BIT       P01
      000000BCH   SFRSYM    DATA     BYTE      ADC_CONTR
      00000099H   SFRSYM    DATA     BYTE      SBUF
      00000087H   SFRSYM    DATA     BYTE      PCON
      000000A0H   SFRSYM    DATA     BIT       P20
      00000090H.1 SFRSYM    DATA     BIT       P11
      00000080H.2 SFRSYM    DATA     BIT       P02
      000000C3H   SFRSYM    DATA     BYTE      ISP_ADDRH
      000000B0H   SFRSYM    DATA     BIT       P30
      000000A0H.1 SFRSYM    DATA     BIT       P21
      00000090H.2 SFRSYM    DATA     BIT       P12
      00000080H.3 SFRSYM    DATA     BIT       P03
      000000C0H   SFRSYM    DATA     BIT       P40
      000000B0H.1 SFRSYM    DATA     BIT       P31
      000000A0H.2 SFRSYM    DATA     BIT       P22
      00000090H.3 SFRSYM    DATA     BIT       P13
      00000080H.4 SFRSYM    DATA     BIT       P04
      00000098H   SFRSYM    DATA     BYTE      SCON
      0000008FH   SFRSYM    DATA     BYTE      WAKE_CLKO
      000000C8H   SFRSYM    DATA     BIT       P50
      000000C0H.1 SFRSYM    DATA     BIT       P41
      000000B0H.2 SFRSYM    DATA     BIT       P32
      000000A0H.3 SFRSYM    DATA     BIT       P23
      00000090H.4 SFRSYM    DATA     BIT       P14
      00000080H.5 SFRSYM    DATA     BIT       P05
      00000089H   SFRSYM    DATA     BYTE      TMOD
      00000088H   SFRSYM    DATA     BYTE      TCON
      000000E8H   SFRSYM    DATA     BIT       P60
      000000C8H.1 SFRSYM    DATA     BIT       P51
      000000C0H.2 SFRSYM    DATA     BIT       P42
      000000B0H.3 SFRSYM    DATA     BIT       P33
      000000A0H.4 SFRSYM    DATA     BIT       P24
      00000090H.5 SFRSYM    DATA     BIT       P15
      00000080H.6 SFRSYM    DATA     BIT       P06
LX51 LINKER/LOCATER V4.66.1.0                                                         01/17/2017  13:47:51  PAGE 72


      000000C4H   SFRSYM    DATA     BYTE      ISP_ADDRL
      000000B8H.6 SFRSYM    DATA     BIT       PLVD
      000000F8H   SFRSYM    DATA     BIT       P70
      000000E8H.1 SFRSYM    DATA     BIT       P61
      000000C8H.2 SFRSYM    DATA     BIT       P52
      000000C0H.3 SFRSYM    DATA     BIT       P43
      000000B0H.4 SFRSYM    DATA     BIT       P34
      000000A0H.5 SFRSYM    DATA     BIT       P25
      00000090H.6 SFRSYM    DATA     BIT       P16
      00000080H.7 SFRSYM    DATA     BIT       P07
      000000F8H.1 SFRSYM    DATA     BIT       P71
      000000E8H.2 SFRSYM    DATA     BIT       P62
      000000C8H.3 SFRSYM    DATA     BIT       P53
      000000C0H.4 SFRSYM    DATA     BIT       P44
      000000B0H.5 SFRSYM    DATA     BIT       P35
      000000A0H.6 SFRSYM    DATA     BIT       P26
      00000090H.7 SFRSYM    DATA     BIT       P17
      000000F8H.2 SFRSYM    DATA     BIT       P72
      000000E8H.3 SFRSYM    DATA     BIT       P63
      000000C8H.4 SFRSYM    DATA     BIT       P54
      000000C0H.5 SFRSYM    DATA     BIT       P45
      000000B0H.6 SFRSYM    DATA     BIT       P36
      000000A0H.7 SFRSYM    DATA     BIT       P27
      000000F8H.3 SFRSYM    DATA     BIT       P73
      000000E8H.4 SFRSYM    DATA     BIT       P64
      000000C8H.5 SFRSYM    DATA     BIT       P55
      000000C0H.6 SFRSYM    DATA     BIT       P46
      000000B0H.7 SFRSYM    DATA     BIT       P37
      000000F8H.4 SFRSYM    DATA     BIT       P74
      000000E8H.5 SFRSYM    DATA     BIT       P65
      000000C8H.6 SFRSYM    DATA     BIT       P56
      000000C0H.7 SFRSYM    DATA     BIT       P47
      000000F8H.5 SFRSYM    DATA     BIT       P75
      000000E8H.6 SFRSYM    DATA     BIT       P66
      000000C8H.7 SFRSYM    DATA     BIT       P57
      000000F8H.6 SFRSYM    DATA     BIT       P76
      000000E8H.7 SFRSYM    DATA     BIT       P67
      000000F8H.7 SFRSYM    DATA     BIT       P77
      00000088H.1 SFRSYM    DATA     BIT       IE0
      000000A1H   SFRSYM    DATA     BYTE      BUS_SPEED
      00000088H.3 SFRSYM    DATA     BIT       IE1
      000000AFH   SFRSYM    DATA     BYTE      IE2
      000000F0H   SFRSYM    DATA     BYTE      B
      0000008EH   SFRSYM    DATA     BYTE      AUXR
      000000C7H   SFRSYM    DATA     BYTE      IAP_CONTR
      000000F1H   SFRSYM    DATA     BYTE      PWMCFG
      000000E0H   SFRSYM    DATA     BYTE      ACC
      000000A8H.1 SFRSYM    DATA     BIT       ET0
      000000A8H.3 SFRSYM    DATA     BIT       ET1
      00000088H.5 SFRSYM    DATA     BIT       TF0
      00000088H.7 SFRSYM    DATA     BIT       TF1
      000000B5H   SFRSYM    DATA     BYTE      IP2
      0000008CH   SFRSYM    DATA     BYTE      RL_TH0
      00000098H.2 SFRSYM    DATA     BIT       RB8
      0000008DH   SFRSYM    DATA     BYTE      RL_TH1
      0000008CH   SFRSYM    DATA     BYTE      TH0
      000000A8H   SFRSYM    DATA     BIT       EX0
      00000088H   SFRSYM    DATA     BIT       IT0
      000000D6H   SFRSYM    DATA     BYTE      RL_T2H
      0000008DH   SFRSYM    DATA     BYTE      TH1
      000000A8H.2 SFRSYM    DATA     BIT       EX1
      00000098H.3 SFRSYM    DATA     BIT       TB8
      00000088H.2 SFRSYM    DATA     BIT       IT1
      000000D4H   SFRSYM    DATA     BYTE      RL_T3H
      000000D6H   SFRSYM    DATA     BYTE      TH2
LX51 LINKER/LOCATER V4.66.1.0                                                         01/17/2017  13:47:51  PAGE 73


      000000D6H   SFRSYM    DATA     BYTE      T2H
      000000D0H   SFRSYM    DATA     BIT       P
      000000D2H   SFRSYM    DATA     BYTE      RL_T4H
      000000D4H   SFRSYM    DATA     BYTE      TH3
      000000D4H   SFRSYM    DATA     BYTE      T3H
      0000008AH   SFRSYM    DATA     BYTE      RL_TL0
      00000098H.7 SFRSYM    DATA     BIT       SM0
      000000D2H   SFRSYM    DATA     BYTE      TH4
      000000D2H   SFRSYM    DATA     BYTE      T4H
      0000008BH   SFRSYM    DATA     BYTE      RL_TL1
      0000008AH   SFRSYM    DATA     BYTE      TL0
      00000098H.6 SFRSYM    DATA     BIT       SM1
      000000D7H   SFRSYM    DATA     BYTE      RL_T2L
      0000008BH   SFRSYM    DATA     BYTE      TL1
      00000098H.5 SFRSYM    DATA     BIT       SM2
      000000D5H   SFRSYM    DATA     BYTE      RL_T3L
      000000D7H   SFRSYM    DATA     BYTE      TL2
      000000D7H   SFRSYM    DATA     BYTE      T2L
      000000D3H   SFRSYM    DATA     BYTE      RL_T4L
      000000D5H   SFRSYM    DATA     BYTE      TL3
      000000D5H   SFRSYM    DATA     BYTE      T3L
      000000B8H.1 SFRSYM    DATA     BIT       PT0
      000000D3H   SFRSYM    DATA     BYTE      TL4
      000000D3H   SFRSYM    DATA     BYTE      T4L
      000000B8H.3 SFRSYM    DATA     BIT       PT1
      000000D0H.3 SFRSYM    DATA     BIT       RS0
      000000C7H   SFRSYM    DATA     BYTE      ISP_CONTR
      00000088H.4 SFRSYM    DATA     BIT       TR0
      000000D0H.4 SFRSYM    DATA     BIT       RS1
      000000C2H   SFRSYM    DATA     BYTE      IAP_DATA
      00000088H.6 SFRSYM    DATA     BIT       TR1
      000000B8H   SFRSYM    DATA     BIT       PX0
      000000C1H   SFRSYM    DATA     BYTE      WDT_CONTR
      000000B8H.2 SFRSYM    DATA     BIT       PX1
      000000F2H   SFRSYM    DATA     BYTE      PCA_PWM0
      000000F3H   SFRSYM    DATA     BYTE      PCA_PWM1
      000000F4H   SFRSYM    DATA     BYTE      PCA_PWM2
      0000009DH   SFRSYM    DATA     BYTE      P1ASF
      00000083H   SFRSYM    DATA     BYTE      DPH
      000000D1H   SFRSYM    DATA     BYTE      T4T3M
      000000BEH   SFRSYM    DATA     BYTE      ADC_RESL
      00000082H   SFRSYM    DATA     BYTE      DPL
      000000CDH   SFRSYM    DATA     BYTE      SPSTAT
      000000B7H   SFRSYM    DATA     BYTE      IPH
      0000009BH   SFRSYM    DATA     BYTE      S2BUF
      00000097H   SFRSYM    DATA     BYTE      PCON2
      000000ADH   SFRSYM    DATA     BYTE      S3BUF
      00000098H.4 SFRSYM    DATA     BIT       REN
      00000085H   SFRSYM    DATA     BYTE      S4BUF
      0000009AH   SFRSYM    DATA     BYTE      S2CON
      000000ACH   SFRSYM    DATA     BYTE      S3CON
      000000C2H   SFRSYM    DATA     BYTE      ISP_DATA
      00000084H   SFRSYM    DATA     BYTE      S4CON
      000000B9H   SFRSYM    DATA     BYTE      SADEN
      000000B0H   SFRSYM    DATA     BIT       RXD
      000000A9H   SFRSYM    DATA     BYTE      SADDR
      000000B0H.1 SFRSYM    DATA     BIT       TXD
      000000F0H   SFRSYM    DATA     BIT       B0
      000000F0H.1 SFRSYM    DATA     BIT       B1
      000000C6H   SFRSYM    DATA     BYTE      IAP_TRIG
      000000A2H   SFRSYM    DATA     BYTE      AUXR1
      000000F0H.2 SFRSYM    DATA     BIT       B2
      00000090H.2 SFRSYM    DATA     BIT       SPI_SS
      0000008FH   SFRSYM    DATA     BYTE      AUXR2
      000000F0H.3 SFRSYM    DATA     BIT       B3
LX51 LINKER/LOCATER V4.66.1.0                                                         01/17/2017  13:47:51  PAGE 74


      000000F0H.4 SFRSYM    DATA     BIT       B4
      000000D0H.5 SFRSYM    DATA     BIT       F0
      000000F0H.5 SFRSYM    DATA     BIT       B5
      000000D0H.1 SFRSYM    DATA     BIT       F1
      0000008FH   SFRSYM    DATA     BYTE      INT_CLKO
      000000F0H.6 SFRSYM    DATA     BIT       B6
      000000E0H   SFRSYM    DATA     BIT       ACC0
      000000F0H.7 SFRSYM    DATA     BIT       B7
      000000E0H.1 SFRSYM    DATA     BIT       ACC1
      000000E0H.2 SFRSYM    DATA     BIT       ACC2
      000000E0H.3 SFRSYM    DATA     BIT       ACC3
      000000D0H   SFRSYM    DATA     BYTE      PSW
      000000E0H.4 SFRSYM    DATA     BIT       ACC4
      00000090H.5 SFRSYM    DATA     BIT       SPI_SCLK
      000000D8H   SFRSYM    DATA     BIT       CCF0
      000000E0H.5 SFRSYM    DATA     BIT       ACC5
      000000D8H.1 SFRSYM    DATA     BIT       CCF1
      000000E0H.6 SFRSYM    DATA     BIT       ACC6
      000000CFH   SFRSYM    DATA     BYTE      SPDAT
      00000094H   SFRSYM    DATA     BYTE      P0M0
      00000020H.3 SYMBOL    BIT      BIT       share_timer2_init_finish

      010013C9H   BLOCK     CODE     ---       LVL=0
      010013C9H   LINE      CODE     ---       #7
      010013C9H   LINE      CODE     ---       #8
      010013CCH   LINE      CODE     ---       #9
      010013CCH   LINE      CODE     ---       #10
      010013CFH   LINE      CODE     ---       #12
      010013D2H   LINE      CODE     ---       #13
      010013D5H   LINE      CODE     ---       #16
      010013D8H   LINE      CODE     ---       #17
      010013DBH   LINE      CODE     ---       #18
      010013DEH   LINE      CODE     ---       #20
      010013E1H   LINE      CODE     ---       #22
      010013E3H   LINE      CODE     ---       #23
      010013E3H   LINE      CODE     ---       #24
      ---         BLOCKEND  ---      ---       LVL=0

      0100113CH   BLOCK     CODE     ---       LVL=0
      00000006H   SYMBOL    DATA     ---       com
      0100113CH   LINE      CODE     ---       #26
      0100113CH   LINE      CODE     ---       #27
      01001142H   LINE      CODE     ---       #28
      01001144H   LINE      CODE     ---       #29
      0100114BH   LINE      CODE     ---       #30
      01001153H   LINE      CODE     ---       #31
      0100115EH   LINE      CODE     ---       #32
      01001169H   LINE      CODE     ---       #33
      ---         BLOCKEND  ---      ---       LVL=0

      01000E7DH   BLOCK     CODE     ---       LVL=0
      00000006H   SYMBOL    DATA     ---       com
      01000E7DH   LINE      CODE     ---       #36
      01000E7DH   LINE      CODE     ---       #37
      01000E87H   LINE      CODE     ---       #38
      01000E89H   LINE      CODE     ---       #40
      01000EA3H   LINE      CODE     ---       #41
      01000EAFH   LINE      CODE     ---       #43
      01000EBBH   LINE      CODE     ---       #44
      01000EC7H   LINE      CODE     ---       #46
      01000ED3H   LINE      CODE     ---       #47
      ---         BLOCKEND  ---      ---       LVL=0

      01001619H   BLOCK     CODE     ---       LVL=0
      00000006H   SYMBOL    DATA     ---       com
LX51 LINKER/LOCATER V4.66.1.0                                                         01/17/2017  13:47:51  PAGE 75


      01001619H   LINE      CODE     ---       #49
      01001619H   LINE      CODE     ---       #50
      01001622H   LINE      CODE     ---       #51
      0100162DH   LINE      CODE     ---       #52
      ---         BLOCKEND  ---      ---       LVL=0

      ---         MODULE    ---      ---       INTERACT
      0000001FH   PUBLIC    DATA     BYTE      signal_lock_shake
      0000001EH   PUBLIC    DATA     BYTE      g_LongKeyCode_pre
      0000001DH   PUBLIC    DATA     BYTE      g_ShortKeyCode
      0000001CH   PUBLIC    DATA     BYTE      g_LongKeyCode
      01001391H   PUBLIC    CODE     ---       key_task_duty
      01000C2EH   PUBLIC    CODE     ---       key_scan_task
      000000D8H.2 SFRSYM    DATA     BIT       CCF2
      000000E0H.7 SFRSYM    DATA     BIT       ACC7
      00000093H   SFRSYM    DATA     BYTE      P0M1
      00000092H   SFRSYM    DATA     BYTE      P1M0
      00000096H   SFRSYM    DATA     BYTE      P2M0
      00000091H   SFRSYM    DATA     BYTE      P1M1
      00000080H   SFRSYM    DATA     BYTE      P0
      000000B2H   SFRSYM    DATA     BYTE      P3M0
      00000095H   SFRSYM    DATA     BYTE      P2M1
      00000090H   SFRSYM    DATA     BYTE      P1
      000000B4H   SFRSYM    DATA     BYTE      P4M0
      000000B1H   SFRSYM    DATA     BYTE      P3M1
      000000A0H   SFRSYM    DATA     BYTE      P2
      000000CAH   SFRSYM    DATA     BYTE      P5M0
      000000B3H   SFRSYM    DATA     BYTE      P4M1
      000000B0H   SFRSYM    DATA     BYTE      P3
      000000ABH   SFRSYM    DATA     BYTE      WKTCH
      000000B0H.4 SFRSYM    DATA     BIT       T0
      000000D0H.6 SFRSYM    DATA     BIT       AC
      000000CCH   SFRSYM    DATA     BYTE      P6M0
      000000C9H   SFRSYM    DATA     BYTE      P5M1
      000000C0H   SFRSYM    DATA     BYTE      P4
      000000B0H.5 SFRSYM    DATA     BIT       CLKOUT0
      000000B0H.5 SFRSYM    DATA     BIT       T1
      000000F6H   SFRSYM    DATA     BYTE      PWMIF
      000000E2H   SFRSYM    DATA     BYTE      P7M0
      000000CBH   SFRSYM    DATA     BYTE      P6M1
      000000C8H   SFRSYM    DATA     BYTE      P5
      000000C6H   SFRSYM    DATA     BYTE      ISP_TRIG
      000000A8H.7 SFRSYM    DATA     BIT       EA
      000000B0H.4 SFRSYM    DATA     BIT       CLKOUT1
      000000A0H.4 SFRSYM    DATA     BIT       SPI_SS_2
      000000E8H   SFRSYM    DATA     BYTE      P6
      000000E1H   SFRSYM    DATA     BYTE      P7M1
      000000C8H.4 SFRSYM    DATA     BIT       SPI_SS_3
      00000090H.4 SFRSYM    DATA     BIT       SPI_MISO
      00000090H.3 SFRSYM    DATA     BIT       SPI_MOSI
      00000090H.1 SFRSYM    DATA     BIT       CCP0
      000000F8H   SFRSYM    DATA     BYTE      P7
      000000AAH   SFRSYM    DATA     BYTE      WKTCL
      00000090H   SFRSYM    DATA     BIT       CCP1
      000000CEH   SFRSYM    DATA     BYTE      SPCTL
      000000D8H.7 SFRSYM    DATA     BIT       CF
      000000B0H.7 SFRSYM    DATA     BIT       CCP2
      000000F9H   SFRSYM    DATA     BYTE      CH
      000000F5H   SFRSYM    DATA     BYTE      PWMCR
      000000A2H   SFRSYM    DATA     BYTE      P_SW1
      000000BAH   SFRSYM    DATA     BYTE      P_SW2
      000000A8H.5 SFRSYM    DATA     BIT       EADC
      000000A0H.1 SFRSYM    DATA     BIT       SPI_SCLK_2
      000000A8H   SFRSYM    DATA     BYTE      IE
      000000C0H.3 SFRSYM    DATA     BIT       SPI_SCLK_3
LX51 LINKER/LOCATER V4.66.1.0                                                         01/17/2017  13:47:51  PAGE 76


      000000E9H   SFRSYM    DATA     BYTE      CL
      000000C5H   SFRSYM    DATA     BYTE      IAP_CMD
      000000FAH   SFRSYM    DATA     BYTE      CCAP0H
      000000FBH   SFRSYM    DATA     BYTE      CCAP1H
      000000FCH   SFRSYM    DATA     BYTE      CCAP2H
      000000BDH   SFRSYM    DATA     BYTE      ADC_RES
      000000B6H   SFRSYM    DATA     BYTE      IPH2
      000000D8H.6 SFRSYM    DATA     BIT       CR
      000000EAH   SFRSYM    DATA     BYTE      CCAP0L
      000000B0H.7 SFRSYM    DATA     BIT       RD
      000000F7H   SFRSYM    DATA     BYTE      PWMFDCR
      000000EBH   SFRSYM    DATA     BYTE      CCAP1L
      000000DAH   SFRSYM    DATA     BYTE      CCAPM0
      000000ECH   SFRSYM    DATA     BYTE      CCAP2L
      000000DBH   SFRSYM    DATA     BYTE      CCAPM1
      000000A8H.4 SFRSYM    DATA     BIT       ES
      000000DCH   SFRSYM    DATA     BYTE      CCAPM2
      000000B8H.5 SFRSYM    DATA     BIT       PADC
      000000A0H.2 SFRSYM    DATA     BIT       SPI_MISO_2
      000000A0H.3 SFRSYM    DATA     BIT       SPI_MOSI_2
      000000B8H   SFRSYM    DATA     BYTE      IP
      000000C0H.1 SFRSYM    DATA     BIT       SPI_MISO_3
      000000C0H   SFRSYM    DATA     BIT       SPI_MOSI_3
      00000098H   SFRSYM    DATA     BIT       RI
      000000B0H.2 SFRSYM    DATA     BIT       INT0
      000000D0H.7 SFRSYM    DATA     BIT       CY
      00000098H.1 SFRSYM    DATA     BIT       TI
      000000B0H.3 SFRSYM    DATA     BIT       INT1
      00000097H   SFRSYM    DATA     BYTE      CLK_DIV
      000000C3H   SFRSYM    DATA     BYTE      IAP_ADDRH
      00000090H   SFRSYM    DATA     BIT       RXD2
      000000C5H   SFRSYM    DATA     BYTE      ISP_CMD
      000000B8H.4 SFRSYM    DATA     BIT       PS
      00000090H.1 SFRSYM    DATA     BIT       TXD2
      00000081H   SFRSYM    DATA     BYTE      SP
      000000D9H   SFRSYM    DATA     BYTE      CMOD
      000000D8H   SFRSYM    DATA     BYTE      CCON
      000000C4H   SFRSYM    DATA     BYTE      IAP_ADDRL
      000000B8H.7 SFRSYM    DATA     BIT       PPCA
      000000D0H.2 SFRSYM    DATA     BIT       OV
      000000E6H   SFRSYM    DATA     BYTE      CMPCR1
      000000B0H.6 SFRSYM    DATA     BIT       WR
      000000E7H   SFRSYM    DATA     BYTE      CMPCR2
      000000A8H.6 SFRSYM    DATA     BIT       ELVD
      00000080H   SFRSYM    DATA     BIT       P00
      00000090H   SFRSYM    DATA     BIT       P10
      00000080H.1 SFRSYM    DATA     BIT       P01
      000000BCH   SFRSYM    DATA     BYTE      ADC_CONTR
      00000099H   SFRSYM    DATA     BYTE      SBUF
      00000087H   SFRSYM    DATA     BYTE      PCON
      000000A0H   SFRSYM    DATA     BIT       P20
      00000090H.1 SFRSYM    DATA     BIT       P11
      00000080H.2 SFRSYM    DATA     BIT       P02
      000000C3H   SFRSYM    DATA     BYTE      ISP_ADDRH
      000000B0H   SFRSYM    DATA     BIT       P30
      000000A0H.1 SFRSYM    DATA     BIT       P21
      00000090H.2 SFRSYM    DATA     BIT       P12
      00000080H.3 SFRSYM    DATA     BIT       P03
      000000C0H   SFRSYM    DATA     BIT       P40
      000000B0H.1 SFRSYM    DATA     BIT       P31
      000000A0H.2 SFRSYM    DATA     BIT       P22
      00000090H.3 SFRSYM    DATA     BIT       P13
      00000080H.4 SFRSYM    DATA     BIT       P04
      00000098H   SFRSYM    DATA     BYTE      SCON
      0000008FH   SFRSYM    DATA     BYTE      WAKE_CLKO
LX51 LINKER/LOCATER V4.66.1.0                                                         01/17/2017  13:47:51  PAGE 77


      000000C8H   SFRSYM    DATA     BIT       P50
      000000C0H.1 SFRSYM    DATA     BIT       P41
      000000B0H.2 SFRSYM    DATA     BIT       P32
      000000A0H.3 SFRSYM    DATA     BIT       P23
      00000090H.4 SFRSYM    DATA     BIT       P14
      00000080H.5 SFRSYM    DATA     BIT       P05
      00000089H   SFRSYM    DATA     BYTE      TMOD
      00000088H   SFRSYM    DATA     BYTE      TCON
      000000E8H   SFRSYM    DATA     BIT       P60
      000000C8H.1 SFRSYM    DATA     BIT       P51
      000000C0H.2 SFRSYM    DATA     BIT       P42
      000000B0H.3 SFRSYM    DATA     BIT       P33
      000000A0H.4 SFRSYM    DATA     BIT       P24
      00000090H.5 SFRSYM    DATA     BIT       P15
      00000080H.6 SFRSYM    DATA     BIT       P06
      000000C4H   SFRSYM    DATA     BYTE      ISP_ADDRL
      000000B8H.6 SFRSYM    DATA     BIT       PLVD
      000000F8H   SFRSYM    DATA     BIT       P70
      000000E8H.1 SFRSYM    DATA     BIT       P61
      000000C8H.2 SFRSYM    DATA     BIT       P52
      000000C0H.3 SFRSYM    DATA     BIT       P43
      000000B0H.4 SFRSYM    DATA     BIT       P34
      000000A0H.5 SFRSYM    DATA     BIT       P25
      00000090H.6 SFRSYM    DATA     BIT       P16
      00000080H.7 SFRSYM    DATA     BIT       P07
      000000F8H.1 SFRSYM    DATA     BIT       P71
      000000E8H.2 SFRSYM    DATA     BIT       P62
      000000C8H.3 SFRSYM    DATA     BIT       P53
      000000C0H.4 SFRSYM    DATA     BIT       P44
      000000B0H.5 SFRSYM    DATA     BIT       P35
      000000A0H.6 SFRSYM    DATA     BIT       P26
      00000090H.7 SFRSYM    DATA     BIT       P17
      000000F8H.2 SFRSYM    DATA     BIT       P72
      000000E8H.3 SFRSYM    DATA     BIT       P63
      000000C8H.4 SFRSYM    DATA     BIT       P54
      000000C0H.5 SFRSYM    DATA     BIT       P45
      000000B0H.6 SFRSYM    DATA     BIT       P36
      000000A0H.7 SFRSYM    DATA     BIT       P27
      000000F8H.3 SFRSYM    DATA     BIT       P73
      000000E8H.4 SFRSYM    DATA     BIT       P64
      000000C8H.5 SFRSYM    DATA     BIT       P55
      000000C0H.6 SFRSYM    DATA     BIT       P46
      000000B0H.7 SFRSYM    DATA     BIT       P37
      000000F8H.4 SFRSYM    DATA     BIT       P74
      000000E8H.5 SFRSYM    DATA     BIT       P65
      000000C8H.6 SFRSYM    DATA     BIT       P56
      000000C0H.7 SFRSYM    DATA     BIT       P47
      000000F8H.5 SFRSYM    DATA     BIT       P75
      000000E8H.6 SFRSYM    DATA     BIT       P66
      000000C8H.7 SFRSYM    DATA     BIT       P57
      000000F8H.6 SFRSYM    DATA     BIT       P76
      000000E8H.7 SFRSYM    DATA     BIT       P67
      000000F8H.7 SFRSYM    DATA     BIT       P77
      00000088H.1 SFRSYM    DATA     BIT       IE0
      000000A1H   SFRSYM    DATA     BYTE      BUS_SPEED
      00000088H.3 SFRSYM    DATA     BIT       IE1
      000000AFH   SFRSYM    DATA     BYTE      IE2
      000000F0H   SFRSYM    DATA     BYTE      B
      0000008EH   SFRSYM    DATA     BYTE      AUXR
      000000C7H   SFRSYM    DATA     BYTE      IAP_CONTR
      000000F1H   SFRSYM    DATA     BYTE      PWMCFG
      000000E0H   SFRSYM    DATA     BYTE      ACC
      000000A8H.1 SFRSYM    DATA     BIT       ET0
      000000A8H.3 SFRSYM    DATA     BIT       ET1
      00000088H.5 SFRSYM    DATA     BIT       TF0
LX51 LINKER/LOCATER V4.66.1.0                                                         01/17/2017  13:47:51  PAGE 78


      00000088H.7 SFRSYM    DATA     BIT       TF1
      000000B5H   SFRSYM    DATA     BYTE      IP2
      0000008CH   SFRSYM    DATA     BYTE      RL_TH0
      00000098H.2 SFRSYM    DATA     BIT       RB8
      0000008DH   SFRSYM    DATA     BYTE      RL_TH1
      0000008CH   SFRSYM    DATA     BYTE      TH0
      000000A8H   SFRSYM    DATA     BIT       EX0
      00000088H   SFRSYM    DATA     BIT       IT0
      000000D6H   SFRSYM    DATA     BYTE      RL_T2H
      0000008DH   SFRSYM    DATA     BYTE      TH1
      000000A8H.2 SFRSYM    DATA     BIT       EX1
      00000098H.3 SFRSYM    DATA     BIT       TB8
      00000088H.2 SFRSYM    DATA     BIT       IT1
      000000D4H   SFRSYM    DATA     BYTE      RL_T3H
      000000D6H   SFRSYM    DATA     BYTE      TH2
      000000D6H   SFRSYM    DATA     BYTE      T2H
      000000D0H   SFRSYM    DATA     BIT       P
      000000D2H   SFRSYM    DATA     BYTE      RL_T4H
      000000D4H   SFRSYM    DATA     BYTE      TH3
      000000D4H   SFRSYM    DATA     BYTE      T3H
      0000008AH   SFRSYM    DATA     BYTE      RL_TL0
      00000098H.7 SFRSYM    DATA     BIT       SM0
      000000D2H   SFRSYM    DATA     BYTE      TH4
      000000D2H   SFRSYM    DATA     BYTE      T4H
      0000008BH   SFRSYM    DATA     BYTE      RL_TL1
      0000008AH   SFRSYM    DATA     BYTE      TL0
      00000098H.6 SFRSYM    DATA     BIT       SM1
      000000D7H   SFRSYM    DATA     BYTE      RL_T2L
      0000008BH   SFRSYM    DATA     BYTE      TL1
      00000098H.5 SFRSYM    DATA     BIT       SM2
      000000D5H   SFRSYM    DATA     BYTE      RL_T3L
      000000D7H   SFRSYM    DATA     BYTE      TL2
      000000D7H   SFRSYM    DATA     BYTE      T2L
      000000D3H   SFRSYM    DATA     BYTE      RL_T4L
      000000D5H   SFRSYM    DATA     BYTE      TL3
      000000D5H   SFRSYM    DATA     BYTE      T3L
      000000B8H.1 SFRSYM    DATA     BIT       PT0
      000000D3H   SFRSYM    DATA     BYTE      TL4
      000000D3H   SFRSYM    DATA     BYTE      T4L
      000000B8H.3 SFRSYM    DATA     BIT       PT1
      000000D0H.3 SFRSYM    DATA     BIT       RS0
      000000C7H   SFRSYM    DATA     BYTE      ISP_CONTR
      00000088H.4 SFRSYM    DATA     BIT       TR0
      000000D0H.4 SFRSYM    DATA     BIT       RS1
      000000C2H   SFRSYM    DATA     BYTE      IAP_DATA
      00000088H.6 SFRSYM    DATA     BIT       TR1
      000000B8H   SFRSYM    DATA     BIT       PX0
      000000C1H   SFRSYM    DATA     BYTE      WDT_CONTR
      000000B8H.2 SFRSYM    DATA     BIT       PX1
      000000F2H   SFRSYM    DATA     BYTE      PCA_PWM0
      000000F3H   SFRSYM    DATA     BYTE      PCA_PWM1
      000000F4H   SFRSYM    DATA     BYTE      PCA_PWM2
      0000009DH   SFRSYM    DATA     BYTE      P1ASF
      00000083H   SFRSYM    DATA     BYTE      DPH
      000000D1H   SFRSYM    DATA     BYTE      T4T3M
      000000BEH   SFRSYM    DATA     BYTE      ADC_RESL
      00000082H   SFRSYM    DATA     BYTE      DPL
      000000CDH   SFRSYM    DATA     BYTE      SPSTAT
      000000B7H   SFRSYM    DATA     BYTE      IPH
      0000009BH   SFRSYM    DATA     BYTE      S2BUF
      00000097H   SFRSYM    DATA     BYTE      PCON2
      000000ADH   SFRSYM    DATA     BYTE      S3BUF
      00000098H.4 SFRSYM    DATA     BIT       REN
      00000085H   SFRSYM    DATA     BYTE      S4BUF
      0000009AH   SFRSYM    DATA     BYTE      S2CON
LX51 LINKER/LOCATER V4.66.1.0                                                         01/17/2017  13:47:51  PAGE 79


      000000ACH   SFRSYM    DATA     BYTE      S3CON
      000000C2H   SFRSYM    DATA     BYTE      ISP_DATA
      00000084H   SFRSYM    DATA     BYTE      S4CON
      000000B9H   SFRSYM    DATA     BYTE      SADEN
      000000B0H   SFRSYM    DATA     BIT       RXD
      000000A9H   SFRSYM    DATA     BYTE      SADDR
      000000B0H.1 SFRSYM    DATA     BIT       TXD
      000000F0H   SFRSYM    DATA     BIT       B0
      000000F0H.1 SFRSYM    DATA     BIT       B1
      000000C6H   SFRSYM    DATA     BYTE      IAP_TRIG
      000000A2H   SFRSYM    DATA     BYTE      AUXR1
      000000F0H.2 SFRSYM    DATA     BIT       B2
      00000090H.2 SFRSYM    DATA     BIT       SPI_SS
      0000008FH   SFRSYM    DATA     BYTE      AUXR2
      000000F0H.3 SFRSYM    DATA     BIT       B3
      000000F0H.4 SFRSYM    DATA     BIT       B4
      000000D0H.5 SFRSYM    DATA     BIT       F0
      000000F0H.5 SFRSYM    DATA     BIT       B5
      000000D0H.1 SFRSYM    DATA     BIT       F1
      0000008FH   SFRSYM    DATA     BYTE      INT_CLKO
      000000F0H.6 SFRSYM    DATA     BIT       B6
      000000E0H   SFRSYM    DATA     BIT       ACC0
      000000F0H.7 SFRSYM    DATA     BIT       B7
      000000E0H.1 SFRSYM    DATA     BIT       ACC1
      000000E0H.2 SFRSYM    DATA     BIT       ACC2
      000000E0H.3 SFRSYM    DATA     BIT       ACC3
      000000D0H   SFRSYM    DATA     BYTE      PSW
      000000E0H.4 SFRSYM    DATA     BIT       ACC4
      00000090H.5 SFRSYM    DATA     BIT       SPI_SCLK
      000000D8H   SFRSYM    DATA     BIT       CCF0
      000000E0H.5 SFRSYM    DATA     BIT       ACC5
      000000D8H.1 SFRSYM    DATA     BIT       CCF1
      000000E0H.6 SFRSYM    DATA     BIT       ACC6
      000000CFH   SFRSYM    DATA     BYTE      SPDAT
      00000094H   SFRSYM    DATA     BYTE      P0M0
      020000F0H   SYMBOL    XDATA    BYTE      g_PreKey
      020000F1H   SYMBOL    XDATA    BYTE      g_NowKey
      010017A8H   SYMBOL    CODE     ---       IO_KeyScan_G

      010017A8H   BLOCK     CODE     ---       LVL=0
      010017A8H   BLOCK     CODE     NEAR LAB  LVL=1
      00000007H   SYMBOL    DATA     BYTE      key
      ---         BLOCKEND  ---      ---       LVL=1
      010017A8H   LINE      CODE     ---       #20
      010017A8H   LINE      CODE     ---       #21
      010017AAH   LINE      CODE     ---       #22
      010017B0H   LINE      CODE     ---       #23
      010017B0H   LINE      CODE     ---       #24
      ---         BLOCKEND  ---      ---       LVL=0

      01000C2EH   BLOCK     CODE     ---       LVL=0
      01000C2EH   BLOCK     CODE     NEAR LAB  LVL=1
      0000001BH   SYMBOL    DATA     BYTE      CntPlus
      ---         BLOCKEND  ---      ---       LVL=1
      01000C2EH   LINE      CODE     ---       #35
      01000C2EH   LINE      CODE     ---       #38
      01000C36H   LINE      CODE     ---       #39
      01000C3EH   LINE      CODE     ---       #40
      01000C49H   LINE      CODE     ---       #42
      01000C4FH   LINE      CODE     ---       #43
      01000C4FH   LINE      CODE     ---       #44
      01000C5DH   LINE      CODE     ---       #46
      01000C64H   LINE      CODE     ---       #47
      01000C6AH   LINE      CODE     ---       #48
      01000C75H   LINE      CODE     ---       #49
LX51 LINKER/LOCATER V4.66.1.0                                                         01/17/2017  13:47:51  PAGE 80


      01000C78H   LINE      CODE     ---       #50
      01000C78H   LINE      CODE     ---       #51
      01000C7FH   LINE      CODE     ---       #52
      01000C87H   LINE      CODE     ---       #53
      01000C8AH   LINE      CODE     ---       #54
      01000C8AH   LINE      CODE     ---       #55
      01000C8BH   LINE      CODE     ---       #57
      01000C8BH   LINE      CODE     ---       #58
      01000C8EH   LINE      CODE     ---       #59
      01000C92H   LINE      CODE     ---       #60
      01000C94H   LINE      CODE     ---       #61
      01000C9CH   LINE      CODE     ---       #62
      01000C9FH   LINE      CODE     ---       #63
      01000CA1H   LINE      CODE     ---       #64
      01000CA1H   LINE      CODE     ---       #65
      01000CA7H   LINE      CODE     ---       #66
      01000CA9H   LINE      CODE     ---       #67
      01000CA9H   LINE      CODE     ---       #68
      ---         BLOCKEND  ---      ---       LVL=0

      01001391H   BLOCK     CODE     ---       LVL=0
      01001391H   LINE      CODE     ---       #73
      01001391H   LINE      CODE     ---       #74
      01001391H   LINE      CODE     ---       #75
      01001394H   LINE      CODE     ---       #76
      0100139CH   LINE      CODE     ---       #77
      0100139FH   LINE      CODE     ---       #78
      010013A6H   LINE      CODE     ---       #79
      010013A9H   LINE      CODE     ---       #80
      010013A9H   LINE      CODE     ---       #81
      010013A9H   LINE      CODE     ---       #82
      010013ACH   LINE      CODE     ---       #83
      ---         BLOCKEND  ---      ---       LVL=0

      ---         MODULE    ---      ---       ?C_INIT
      01000BE9H   PUBLIC    CODE     ---       ?C_START

      ---         MODULE    ---      ---       ?C?COPY
      0100010EH   PUBLIC    CODE     ---       ?C?COPY

      ---         MODULE    ---      ---       ?C?CLDPTR
      01000134H   PUBLIC    CODE     ---       ?C?CLDPTR

      ---         MODULE    ---      ---       ?C?CLDOPTR
      0100014DH   PUBLIC    CODE     ---       ?C?CLDOPTR

      ---         MODULE    ---      ---       ?C?CSTOPTR
      0100017AH   PUBLIC    CODE     ---       ?C?CSTOPTR

      ---         MODULE    ---      ---       ?C?IMUL
      0100019CH   PUBLIC    CODE     ---       ?C?IMUL

      ---         MODULE    ---      ---       ?C?UIDIV
      010001AEH   PUBLIC    CODE     ---       ?C?UIDIV

      ---         MODULE    ---      ---       ?C?IILDX
      01000203H   PUBLIC    CODE     ---       ?C?IILDX

      ---         MODULE    ---      ---       ?C?SLCMP
      01000219H   PUBLIC    CODE     ---       ?C?SLCMP

      ---         MODULE    ---      ---       ?C?ICALL
      0100022FH   PUBLIC    CODE     ---       ?C?ICALL
      01000233H   PUBLIC    CODE     ---       ?C?ICALL2

LX51 LINKER/LOCATER V4.66.1.0                                                         01/17/2017  13:47:51  PAGE 81


      ---         MODULE    ---      ---       ?C?STRCPY
      01000301H   PUBLIC    CODE     ---       ?C?STRCPY

      ---         MODULE    ---      ---       STRLEN
      0100162EH   PUBLIC    CODE     ---       _STRLEN

      ---         MODULE    ---      ---       STRCHR
      010013ADH   PUBLIC    CODE     ---       _STRCHR

      ---         MODULE    ---      ---       ?C?MEMCMP
      010004A4H   PUBLIC    CODE     ---       ?C?MEMCMP

      ---         MODULE    ---      ---       ?C?MEMSET
      010004C8H   PUBLIC    CODE     ---       ?C?MEMSET

Program Size: data=64.4 xdata=243 const=32 code=6145
LX51 RUN COMPLETE.  0 WARNING(S),  0 ERROR(S)
