LX51 LINKER/LOCATER V4.66.1.0                                                           09/07/2015  13:09:22  PAGE 1


LX51 LINKER/LOCATER V4.66.1.0, INVOKED BY:
F:\KEIL\C51\BIN\LX51.EXE STARTUP.obj, shared.obj, display.obj, sync.obj, com_1.obj, e2prom.obj TO led REMOVEUNUSED


CPU MODE:     8051 MODE
MEMORY MODEL: COMPACT


INPUT MODULES INCLUDED:
  STARTUP.obj (?C_STARTUP)
         COMMENT TYPE 1: A51 / ASM51 Assembler
  shared.obj (SHARED)
         COMMENT TYPE 0: C51 V9.52.0.0
  display.obj (DISPLAY)
         COMMENT TYPE 0: C51 V9.52.0.0
  sync.obj (SYNC)
         COMMENT TYPE 0: C51 V9.52.0.0
  com_1.obj (COM_1)
         COMMENT TYPE 0: C51 V9.52.0.0
  e2prom.obj (E2PROM)
         COMMENT TYPE 0: C51 V9.52.0.0
  F:\KEIL\C51\LIB\C51C.LIB (?C_INIT)
         COMMENT TYPE 1: A51 / ASM51 Assembler
  F:\KEIL\C51\LIB\C51C.LIB (?C?ULCMP)
         COMMENT TYPE 1: A51 / ASM51 Assembler
  F:\KEIL\C51\LIB\C51C.LIB (?C?ULSHR)
         COMMENT TYPE 1: A51 / ASM51 Assembler
  F:\KEIL\C51\LIB\C51C.LIB (?C?LSTPDATA)
         COMMENT TYPE 1: A51 / ASM51 Assembler
  F:\KEIL\C51\LIB\C51C.LIB (?C?LSTKPDATA)
         COMMENT TYPE 1: A51 / ASM51 Assembler
  F:\KEIL\C51\LIB\C51C.LIB (?C?ICALL)
         COMMENT TYPE 1: A51 / ASM51 Assembler


ACTIVE MEMORY CLASSES OF MODULE:  led (?C_STARTUP)

BASE        START       END         USED      MEMORY CLASS
==========================================================
C:000000H   C:000000H   C:00FFFFH   000B55H   CODE
I:000000H   I:000000H   I:0000FFH   000001H   IDATA
X:000000H   X:000000H   X:0000FFH   000018H   PDATA
I:000020H.0 I:000020H.0 I:00002FH.7 000000H.2 BIT
C:000000H   C:000000H   C:00FFFFH   00007DH   CONST
I:000000H   I:000000H   I:00007FH   000012H   DATA


MEMORY MAP OF MODULE:  led (?C_STARTUP)


START     STOP      LENGTH    ALIGN  RELOC    MEMORY CLASS   SEGMENT NAME
=========================================================================

* * * * * * * * * * *   D A T A   M E M O R Y   * * * * * * * * * * * * *
000000H   000007H   000008H   ---    AT..     DATA           "REG BANK 0"
000008H   000009H   000002H   BYTE   UNIT     DATA           ?DT?DISPLAY
00000AH   000017H   00000EH   ---    ---      **GAP**
000018H   00001FH   000008H   ---    AT..     DATA           "REG BANK 3"
000020H.0 000020H.0 000000H.1 BIT    UNIT     BIT            ?BI?SHARED
000020H.1 000020H.1 000000H.1 BIT    UNIT     BIT            ?BI?SYNC
000020H.2 000020H   000000H.6 ---    ---      **GAP**
000021H   000021H   000001H   BYTE   UNIT     IDATA          ?STACK

* * * * * * * * * * *   C O D E   M E M O R Y   * * * * * * * * * * * * *
000000H   000002H   000003H   ---    OFFS..   CODE           ?CO??C_STARTUP?0
000003H   000005H   000003H   BYTE   OFFS..   CODE           ?SYNC?00003
LX51 LINKER/LOCATER V4.66.1.0                                                         09/07/2015  13:09:22  PAGE 2


000006H   00000AH   000005H   BYTE   UNIT     CODE           ?PR?RESET_ALL_COUNTERS?SYNC
00000BH   00000DH   000003H   BYTE   OFFS..   CODE           ?SYNC?0000B
00000EH   000151H   000144H   BYTE   UNIT     CODE           ?PR?DISPLAY_MODE_SET_CHANGED?DISPLAY
000152H   00028DH   00013CH   BYTE   UNIT     CODE           ?PR?DISPLAY_MODE_LOGIC_CHANGED?DISPLAY
00028EH   000370H   0000E3H   BYTE   UNIT     CODE           ?PR?MAIN?COM_1
000371H   000433H   0000C3H   BYTE   UNIT     CODE           ?PR?_CYCLE_REACHED_1001?DISPLAY
000434H   0004EAH   0000B7H   BYTE   UNIT     CODE           ?PR?_CYCLE_REACHED_1000?DISPLAY
0004EBH   000582H   000098H   BYTE   UNIT     CODE           ?PR?TM0_ISR?SYNC
000583H   00060EH   00008CH   BYTE   UNIT     CODE           ?C_C51STARTUP
00060FH   000687H   000079H   BYTE   UNIT     CODE           ?PR?_CYCLE_REACHED_0011?DISPLAY
000688H   0006F0H   000069H   BYTE   UNIT     CODE           ?PR?_CYCLE_REACHED_0101?DISPLAY
0006F1H   000759H   000069H   BYTE   UNIT     CODE           ?PR?_CYCLE_REACHED_1010?DISPLAY
00075AH   0007C0H   000067H   BYTE   UNIT     CODE           ?PR?_CYCLE_REACHED_0001?DISPLAY
0007C1H   000812H   000052H   BYTE   UNIT     CODE           ?PR?DISPLAY
000813H   000864H   000052H   BYTE   UNIT     CODE           ?PR?DETECT_CURRENT_STATE?COM_1
000865H   0008B3H   00004FH   BYTE   UNIT     CODE           ?C?LIB_CODE
0008B4H   0008EEH   00003BH   BYTE   UNIT     CODE           ?PR?_CYCLE_REACHED_0010?DISPLAY
0008EFH   000927H   000039H   BYTE   UNIT     CODE           ?PR?_CYCLE_REACHED_0111?DISPLAY
000928H   000960H   000039H   BYTE   UNIT     CODE           ?PR?_CYCLE_REACHED_1100?DISPLAY
000961H   00098BH   00002BH   BYTE   UNIT     CODE           ?C_INITSEG
00098CH   0009B4H   000029H   BYTE   UNIT     CODE           ?PR?_CYCLE_REACHED_0100?DISPLAY
0009B5H   0009DDH   000029H   BYTE   UNIT     CODE           ?PR?_CYCLE_REACHED_0110?DISPLAY
0009DEH   000A06H   000029H   BYTE   UNIT     CODE           ?PR?_CYCLE_REACHED_1011?DISPLAY
000A07H   000A27H   000021H   BYTE   UNIT     CODE           ?PR?COM_1
000A28H   000A40H   000019H   BYTE   UNIT     CODE           ?PR?REQUIRE_DELAY_INIT?COM_1
000A41H   000A56H   000016H   BYTE   UNIT     CODE           ?PR?_EEPROM_WRITE?E2PROM
000A57H   000A6BH   000015H   BYTE   UNIT     CODE           ?PR?INIT_SYNC_TIMER?SYNC
000A6CH   000A7DH   000012H   BYTE   UNIT     CODE           ?PR?DRIVER_0010_INIT?DISPLAY
000A7EH   000A8DH   000010H   BYTE   UNIT     CODE           ?PR?INITUART?COM_1
000A8EH   000A9DH   000010H   BYTE   UNIT     CODE           ?PR?_EEPROM_READ?E2PROM
000A9EH   000AABH   00000EH   BYTE   UNIT     CODE           ?PR?_CYCLE_BASED_ADJUST?DISPLAY
000AACH   000AB9H   00000EH   BYTE   UNIT     CODE           ?PR?DISABLEEEPROM?E2PROM
000ABAH   000AC6H   00000DH   BYTE   UNIT     CODE           ?PR?SYNC
000AC7H   000AD3H   00000DH   BYTE   UNIT     CODE           ?PR?_EEPROM_SECTORERASE?E2PROM
000AD4H   000ADFH   00000CH   BYTE   UNIT     CODE           ?PR?E2PROM
000AE0H   000AEAH   00000BH   BYTE   UNIT     CODE           ?PR?DRIVER_0001_INIT?DISPLAY
000AEBH   000AF5H   00000BH   BYTE   UNIT     CODE           ?PR?DRIVER_0011_INIT?DISPLAY
000AF6H   000AFDH   000008H   BYTE   UNIT     CODE           ?PR?DRIVER_0100_INIT?DISPLAY
000AFEH   000B05H   000008H   BYTE   UNIT     CODE           ?PR?_SENDDATA?COM_1
000B06H   000B0CH   000007H   BYTE   UNIT     CODE           ?PR?INIT_AC_DRIVER?SYNC
000B0DH   000B12H   000006H   BYTE   UNIT     CODE           ?PR?COMBINATION_DRIVER_INIT?DISPLAY
000B13H   000B18H   000006H   BYTE   UNIT     CODE           ?PR?DRIVER_1101_INIT?DISPLAY
000B19H   000B1EH   000006H   BYTE   UNIT     CODE           ?PR?DRIVER_0101_INIT?DISPLAY
000B1FH   000B24H   000006H   BYTE   UNIT     CODE           ?PR?DRIVER_0110_INIT?DISPLAY
000B25H   000B2AH   000006H   BYTE   UNIT     CODE           ?PR?DRIVER_0111_INIT?DISPLAY
000B2BH   000B30H   000006H   BYTE   UNIT     CODE           ?PR?DRIVER_1000_INIT?DISPLAY
000B31H   000B36H   000006H   BYTE   UNIT     CODE           ?PR?DRIVER_1001_INIT?DISPLAY
000B37H   000B3CH   000006H   BYTE   UNIT     CODE           ?PR?DRIVER_1010_INIT?DISPLAY
000B3DH   000B42H   000006H   BYTE   UNIT     CODE           ?PR?DRIVER_1011_INIT?DISPLAY
000B43H   000B48H   000006H   BYTE   UNIT     CODE           ?PR?DRIVER_1100_INIT?DISPLAY
000B49H   000B4EH   000006H   BYTE   UNIT     CODE           ?PR?EXINT0_ISR?SYNC
000B4FH   000B54H   000006H   BYTE   UNIT     CODE           ?PR?INIT_SYSTEM_COMPONENT?COM_1
000B55H   000BD1H   00007DH   BYTE   UNIT     CONST          ?CO?DISPLAY

* * * * * * * * * * *  X D A T A   M E M O R Y  * * * * * * * * * * * * *
000000H   000009H   00000AH   BYTE   INPAGE   PDATA          ?PD?SHARED
00000AH   000010H   000007H   BYTE   INPAGE   PDATA          ?PD?SYNC
000011H   000015H   000005H   BYTE   INPAGE   PDATA          ?PD?DISPLAY
000016H   000017H   000002H   BYTE   INPAGE   PDATA          _PDATA_GROUP_

* * * * * * * * *   R E M O V E D     S E G M E N T S   * * * * * * * *
   *DEL*:           000018H   BYTE   UNIT     CODE           ?PR?TOGGLE_ONCE?DISPLAY



LX51 LINKER/LOCATER V4.66.1.0                                                         09/07/2015  13:09:22  PAGE 3


OVERLAY MAP OF MODULE:   led (?C_STARTUP)


FUNCTION/MODULE                         PDATA_GROUP
--> CALLED FUNCTION/MODULE              START  STOP
===================================================
?C_C51STARTUP                           ----- -----
  +--> MAIN/COM_1
  +--> ?C_INITSEG

MAIN/COM_1                              0016H 0016H
  +--> REQUIRE_DELAY_INIT/COM_1
  +--> INITUART/COM_1
  +--> INIT_SYSTEM_COMPONENT/COM_1
  +--> DETECT_CURRENT_STATE/COM_1
  +--> _CYCLE_BASED_ADJUST/DISPLAY
  +--> _SENDDATA/COM_1
  +--> COM_1
  +--> DISPLAY_MODE_SET_CHANGED/DISPLAY
  +--> _EEPROM_SECTORERASE/E2PROM
  +--> _EEPROM_WRITE/E2PROM

REQUIRE_DELAY_INIT/COM_1                ----- -----

INITUART/COM_1                          ----- -----

INIT_SYSTEM_COMPONENT/COM_1             ----- -----
  +--> INIT_SYNC_TIMER/SYNC
  +--> INIT_AC_DRIVER/SYNC

INIT_SYNC_TIMER/SYNC                    ----- -----

INIT_AC_DRIVER/SYNC                     ----- -----

DETECT_CURRENT_STATE/COM_1              0017H 0017H
  +--> COM_1
  +--> _EEPROM_READ/E2PROM
  +--> DISPLAY_MODE_SET_CHANGED/DISPLAY

COM_1                                   ----- -----

_EEPROM_READ/E2PROM                     ----- -----
  +--> E2PROM
  +--> DISABLEEEPROM/E2PROM

E2PROM                                  ----- -----

DISABLEEEPROM/E2PROM                    ----- -----

DISPLAY_MODE_SET_CHANGED/DISPLAY        ----- -----
  +--> COMBINATION_DRIVER_INIT/DISPLAY
  +--> DRIVER_0001_INIT/DISPLAY
  +--> DISPLAY
  +--> _CYCLE_REACHED_0001/DISPLAY
  +--> DRIVER_0010_INIT/DISPLAY
  +--> ?CO?DISPLAY
  +--> _CYCLE_REACHED_0010/DISPLAY
  +--> DRIVER_0011_INIT/DISPLAY
  +--> _CYCLE_REACHED_0011/DISPLAY
  +--> DRIVER_0100_INIT/DISPLAY
  +--> _CYCLE_REACHED_0100/DISPLAY
  +--> DRIVER_0101_INIT/DISPLAY
  +--> _CYCLE_REACHED_0101/DISPLAY
  +--> DRIVER_0110_INIT/DISPLAY
  +--> _CYCLE_REACHED_0110/DISPLAY
LX51 LINKER/LOCATER V4.66.1.0                                                         09/07/2015  13:09:22  PAGE 4


  +--> DRIVER_0111_INIT/DISPLAY
  +--> _CYCLE_REACHED_0111/DISPLAY
  +--> DRIVER_1000_INIT/DISPLAY
  +--> _CYCLE_REACHED_1000/DISPLAY
  +--> DRIVER_1001_INIT/DISPLAY
  +--> _CYCLE_REACHED_1001/DISPLAY
  +--> DRIVER_1010_INIT/DISPLAY
  +--> _CYCLE_REACHED_1010/DISPLAY
  +--> DRIVER_1011_INIT/DISPLAY
  +--> _CYCLE_REACHED_1011/DISPLAY
  +--> DRIVER_1100_INIT/DISPLAY
  +--> _CYCLE_REACHED_1100/DISPLAY
  +--> DRIVER_1101_INIT/DISPLAY
  +--> RESET_ALL_COUNTERS/SYNC

COMBINATION_DRIVER_INIT/DISPLAY         ----- -----
  +--> DISPLAY
  +--> DISPLAY_MODE_LOGIC_CHANGED/DISPLAY

DISPLAY                                 ----- -----
  +--> ?CO?DISPLAY

?CO?DISPLAY                             ----- -----

DISPLAY_MODE_LOGIC_CHANGED/DISPLAY      ----- -----
  +--> DRIVER_0001_INIT/DISPLAY
  +--> DISPLAY
  +--> _CYCLE_REACHED_0001/DISPLAY
  +--> DRIVER_0010_INIT/DISPLAY
  +--> ?CO?DISPLAY
  +--> _CYCLE_REACHED_0010/DISPLAY
  +--> DRIVER_0011_INIT/DISPLAY
  +--> _CYCLE_REACHED_0011/DISPLAY
  +--> DRIVER_0100_INIT/DISPLAY
  +--> _CYCLE_REACHED_0100/DISPLAY
  +--> DRIVER_0101_INIT/DISPLAY
  +--> _CYCLE_REACHED_0101/DISPLAY
  +--> DRIVER_0110_INIT/DISPLAY
  +--> _CYCLE_REACHED_0110/DISPLAY
  +--> DRIVER_0111_INIT/DISPLAY
  +--> _CYCLE_REACHED_0111/DISPLAY
  +--> DRIVER_1000_INIT/DISPLAY
  +--> _CYCLE_REACHED_1000/DISPLAY
  +--> DRIVER_1001_INIT/DISPLAY
  +--> _CYCLE_REACHED_1001/DISPLAY
  +--> DRIVER_1010_INIT/DISPLAY
  +--> _CYCLE_REACHED_1010/DISPLAY
  +--> DRIVER_1011_INIT/DISPLAY
  +--> _CYCLE_REACHED_1011/DISPLAY
  +--> DRIVER_1100_INIT/DISPLAY
  +--> _CYCLE_REACHED_1100/DISPLAY

DRIVER_0001_INIT/DISPLAY                ----- -----

_CYCLE_REACHED_0001/DISPLAY             ----- -----
  +--> DISPLAY

DRIVER_0010_INIT/DISPLAY                ----- -----

_CYCLE_REACHED_0010/DISPLAY             ----- -----
  +--> DISPLAY
  +--> DISPLAY_MODE_LOGIC_CHANGED/DISPLAY

DRIVER_0011_INIT/DISPLAY                ----- -----

LX51 LINKER/LOCATER V4.66.1.0                                                         09/07/2015  13:09:22  PAGE 5


_CYCLE_REACHED_0011/DISPLAY             ----- -----
  +--> DISPLAY

DRIVER_0100_INIT/DISPLAY                ----- -----
  +--> DISPLAY

_CYCLE_REACHED_0100/DISPLAY             ----- -----
  +--> DISPLAY

DRIVER_0101_INIT/DISPLAY                ----- -----
  +--> DISPLAY

_CYCLE_REACHED_0101/DISPLAY             ----- -----
  +--> DISPLAY

DRIVER_0110_INIT/DISPLAY                ----- -----
  +--> DISPLAY

_CYCLE_REACHED_0110/DISPLAY             ----- -----
  +--> DISPLAY

DRIVER_0111_INIT/DISPLAY                ----- -----
  +--> DISPLAY

_CYCLE_REACHED_0111/DISPLAY             ----- -----
  +--> DISPLAY

DRIVER_1000_INIT/DISPLAY                ----- -----
  +--> DISPLAY

_CYCLE_REACHED_1000/DISPLAY             ----- -----
  +--> DISPLAY

DRIVER_1001_INIT/DISPLAY                ----- -----
  +--> DISPLAY

_CYCLE_REACHED_1001/DISPLAY             ----- -----
  +--> DISPLAY

DRIVER_1010_INIT/DISPLAY                ----- -----
  +--> DISPLAY

_CYCLE_REACHED_1010/DISPLAY             ----- -----
  +--> DISPLAY

DRIVER_1011_INIT/DISPLAY                ----- -----
  +--> DISPLAY

_CYCLE_REACHED_1011/DISPLAY             ----- -----
  +--> DISPLAY

DRIVER_1100_INIT/DISPLAY                ----- -----
  +--> DISPLAY

_CYCLE_REACHED_1100/DISPLAY             ----- -----
  +--> DISPLAY

DRIVER_1101_INIT/DISPLAY                ----- -----
  +--> DISPLAY
  +--> DISPLAY_MODE_LOGIC_CHANGED/DISPLAY

RESET_ALL_COUNTERS/SYNC                 ----- -----

_CYCLE_BASED_ADJUST/DISPLAY             ----- -----

LX51 LINKER/LOCATER V4.66.1.0                                                         09/07/2015  13:09:22  PAGE 6


_SENDDATA/COM_1                         ----- -----

_EEPROM_SECTORERASE/E2PROM              ----- -----
  +--> E2PROM
  +--> DISABLEEEPROM/E2PROM

_EEPROM_WRITE/E2PROM                    ----- -----
  +--> E2PROM
  +--> DISABLEEEPROM/E2PROM

?C_INITSEG                              ----- -----

*** NEW ROOT **************************

EXINT0_ISR/SYNC                         ----- -----

*** NEW ROOT **************************

TM0_ISR/SYNC                            ----- -----
  +--> SYNC

SYNC                                    ----- -----



PUBLIC SYMBOLS OF MODULE:  led (?C_STARTUP)


      VALUE       CLASS    TYPE      PUBLIC SYMBOL NAME
      =================================================
      00000000H   NUMBER   ---       ?C?CODESEG
      010008AEH   CODE     ---       ?C?ICALL
      010008B2H   CODE     ---       ?C?ICALL2
      01000895H   CODE     ---       ?C?LSTKPDATA
      01000889H   CODE     ---       ?C?LSTPDATA
      01000865H   CODE     ---       ?C?ULCMP
      01000876H   CODE     ---       ?C?ULSHR
      00000000H   NUMBER   ---       ?C?XDATASEG
      010005CAH   CODE     ---       ?C_START
      01000000H   CODE     ---       ?C_STARTUP
      01000A9EH   CODE     ---       _cycle_based_adjust
      01000A8EH   CODE     ---       _EEPROM_read
      01000AC7H   CODE     ---       _EEPROM_SectorErase
      01000A41H   CODE     ---       _EEPROM_write
      01000AFEH   CODE     ---       _SendData
*SFR* 000000D0H.6 DATA     BIT       AC
*SFR* 000000E0H   DATA     BYTE      ACC
*SFR* 000000BCH   DATA     BYTE      ADC_CONTR
*SFR* 000000BDH   DATA     BYTE      ADC_RES
*SFR* 000000BEH   DATA     BYTE      ADC_RESL
*SFR* 0000008EH   DATA     BYTE      AUXR
*SFR* 000000A2H   DATA     BYTE      AUXR1
*SFR* 000000F0H   DATA     BYTE      B
*SFR* 000000A1H   DATA     BYTE      BUS_SPEED
*SFR* 000000FAH   DATA     BYTE      CCAP0H
*SFR* 000000EAH   DATA     BYTE      CCAP0L
*SFR* 000000FBH   DATA     BYTE      CCAP1H
*SFR* 000000EBH   DATA     BYTE      CCAP1L
*SFR* 000000FCH   DATA     BYTE      CCAP2H
*SFR* 000000ECH   DATA     BYTE      CCAP2L
*SFR* 000000DAH   DATA     BYTE      CCAPM0
*SFR* 000000DBH   DATA     BYTE      CCAPM1
*SFR* 000000DCH   DATA     BYTE      CCAPM2
*SFR* 000000D8H   DATA     BIT       CCF0
*SFR* 000000D8H.1 DATA     BIT       CCF1
LX51 LINKER/LOCATER V4.66.1.0                                                         09/07/2015  13:09:22  PAGE 7


*SFR* 000000D8H.2 DATA     BIT       CCF2
*SFR* 000000D8H   DATA     BYTE      CCON
*SFR* 000000D8H.7 DATA     BIT       CF
*SFR* 000000F9H   DATA     BYTE      CH
*SFR* 000000E9H   DATA     BYTE      CL
*SFR* 00000097H   DATA     BYTE      CLK_DIV
*SFR* 000000D9H   DATA     BYTE      CMOD
*SFR* 000000E6H   DATA     BYTE      CMPCR1
*SFR* 000000E7H   DATA     BYTE      CMPCR2
      02000005H   PDATA    BYTE      counter_for_cycle
*SFR* 000000D8H.6 DATA     BIT       CR
*SFR* 000000D0H.7 DATA     BIT       CY
      00000020H.0 BIT      BIT       cycle_finished
      02000006H   PDATA    ---       cycle_output
      02000012H   PDATA    ---       cycle_reached
      01000AACH   CODE     ---       DisableEEPROM
      02000009H   PDATA    BYTE      display_mode_logic
      01000152H   CODE     ---       display_mode_logic_changed
      02000008H   PDATA    BYTE      display_mode_set
      0100000EH   CODE     ---       display_mode_set_changed
*SFR* 00000083H   DATA     BYTE      DPH
*SFR* 00000082H   DATA     BYTE      DPL
*SFR* 000000A8H.7 DATA     BIT       EA
*SFR* 000000A8H.5 DATA     BIT       EADC
*SFR* 000000A8H.6 DATA     BIT       ELVD
*SFR* 000000A8H.4 DATA     BIT       ES
*SFR* 000000A8H.1 DATA     BIT       ET0
*SFR* 000000A8H.3 DATA     BIT       ET1
*SFR* 000000A8H   DATA     BIT       EX0
*SFR* 000000A8H.2 DATA     BIT       EX1
      01000B49H   CODE     ---       exint0_isr
*SFR* 000000D0H.5 DATA     BIT       F0
*SFR* 000000C3H   DATA     BYTE      IAP_ADDRH
*SFR* 000000C4H   DATA     BYTE      IAP_ADDRL
*SFR* 000000C5H   DATA     BYTE      IAP_CMD
*SFR* 000000C7H   DATA     BYTE      IAP_CONTR
*SFR* 000000C2H   DATA     BYTE      IAP_DATA
*SFR* 000000C6H   DATA     BYTE      IAP_TRIG
*SFR* 000000A8H   DATA     BYTE      IE
*SFR* 00000088H.1 DATA     BIT       IE0
*SFR* 00000088H.3 DATA     BIT       IE1
*SFR* 000000AFH   DATA     BYTE      IE2
      01000B06H   CODE     ---       init_ac_driver
      01000A57H   CODE     ---       init_sync_timer
      01000A7EH   CODE     ---       InitUart
*SFR* 000000B0H.2 DATA     BIT       INT0
*SFR* 000000B0H.3 DATA     BIT       INT1
*SFR* 0000008FH   DATA     BYTE      INT_CLKO
      02000000H   PDATA    BYTE      INT_PROC
*SFR* 000000B8H   DATA     BYTE      IP
*SFR* 000000B5H   DATA     BYTE      IP2
*SFR* 00000088H   DATA     BIT       IT0
*SFR* 00000088H.2 DATA     BIT       IT1
      0100028EH   CODE     ---       main
*SFR* 000000D0H.2 DATA     BIT       OV
*SFR* 000000D0H   DATA     BIT       P
*SFR* 00000080H   DATA     BYTE      P0
*SFR* 00000080H   DATA     BIT       P00
*SFR* 00000080H.1 DATA     BIT       P01
*SFR* 00000080H.2 DATA     BIT       P02
*SFR* 00000080H.3 DATA     BIT       P03
*SFR* 00000080H.4 DATA     BIT       P04
*SFR* 00000080H.5 DATA     BIT       P05
*SFR* 00000080H.6 DATA     BIT       P06
*SFR* 00000080H.7 DATA     BIT       P07
LX51 LINKER/LOCATER V4.66.1.0                                                         09/07/2015  13:09:22  PAGE 8


*SFR* 00000094H   DATA     BYTE      P0M0
*SFR* 00000093H   DATA     BYTE      P0M1
*SFR* 00000090H   DATA     BYTE      P1
*SFR* 00000090H   DATA     BIT       P10
*SFR* 00000090H.1 DATA     BIT       P11
*SFR* 00000090H.2 DATA     BIT       P12
*SFR* 00000090H.3 DATA     BIT       P13
*SFR* 00000090H.4 DATA     BIT       P14
*SFR* 00000090H.5 DATA     BIT       P15
*SFR* 00000090H.6 DATA     BIT       P16
*SFR* 00000090H.7 DATA     BIT       P17
*SFR* 0000009DH   DATA     BYTE      P1ASF
*SFR* 00000092H   DATA     BYTE      P1M0
*SFR* 00000091H   DATA     BYTE      P1M1
*SFR* 000000A0H   DATA     BYTE      P2
*SFR* 000000A0H   DATA     BIT       P20
*SFR* 000000A0H.1 DATA     BIT       P21
*SFR* 000000A0H.2 DATA     BIT       P22
*SFR* 000000A0H.3 DATA     BIT       P23
*SFR* 000000A0H.4 DATA     BIT       P24
*SFR* 000000A0H.5 DATA     BIT       P25
*SFR* 000000A0H.6 DATA     BIT       P26
*SFR* 000000A0H.7 DATA     BIT       P27
*SFR* 00000096H   DATA     BYTE      P2M0
*SFR* 00000095H   DATA     BYTE      P2M1
*SFR* 000000B0H   DATA     BYTE      P3
*SFR* 000000B0H   DATA     BIT       P30
*SFR* 000000B0H.1 DATA     BIT       P31
*SFR* 000000B0H.2 DATA     BIT       P32
*SFR* 000000B0H.3 DATA     BIT       P33
*SFR* 000000B0H.4 DATA     BIT       P34
*SFR* 000000B0H.5 DATA     BIT       P35
*SFR* 000000B0H.6 DATA     BIT       P36
*SFR* 000000B0H.7 DATA     BIT       P37
*SFR* 000000B2H   DATA     BYTE      P3M0
*SFR* 000000B1H   DATA     BYTE      P3M1
*SFR* 000000C0H   DATA     BYTE      P4
*SFR* 000000C0H   DATA     BIT       P40
*SFR* 000000C0H.1 DATA     BIT       P41
*SFR* 000000C0H.2 DATA     BIT       P42
*SFR* 000000C0H.3 DATA     BIT       P43
*SFR* 000000C0H.4 DATA     BIT       P44
*SFR* 000000C0H.5 DATA     BIT       P45
*SFR* 000000C0H.6 DATA     BIT       P46
*SFR* 000000C0H.7 DATA     BIT       P47
*SFR* 000000B4H   DATA     BYTE      P4M0
*SFR* 000000B3H   DATA     BYTE      P4M1
*SFR* 000000C8H   DATA     BYTE      P5
*SFR* 000000C8H   DATA     BIT       P50
*SFR* 000000C8H.1 DATA     BIT       P51
*SFR* 000000C8H.2 DATA     BIT       P52
*SFR* 000000C8H.3 DATA     BIT       P53
*SFR* 000000C8H.4 DATA     BIT       P54
*SFR* 000000C8H.5 DATA     BIT       P55
*SFR* 000000C8H.6 DATA     BIT       P56
*SFR* 000000C8H.7 DATA     BIT       P57
*SFR* 000000CAH   DATA     BYTE      P5M0
*SFR* 000000C9H   DATA     BYTE      P5M1
*SFR* 000000E8H   DATA     BYTE      P6
*SFR* 000000E8H   DATA     BIT       P60
*SFR* 000000E8H.1 DATA     BIT       P61
*SFR* 000000E8H.2 DATA     BIT       P62
*SFR* 000000E8H.3 DATA     BIT       P63
*SFR* 000000E8H.4 DATA     BIT       P64
*SFR* 000000E8H.5 DATA     BIT       P65
LX51 LINKER/LOCATER V4.66.1.0                                                         09/07/2015  13:09:22  PAGE 9


*SFR* 000000E8H.6 DATA     BIT       P66
*SFR* 000000E8H.7 DATA     BIT       P67
*SFR* 000000CCH   DATA     BYTE      P6M0
*SFR* 000000CBH   DATA     BYTE      P6M1
*SFR* 000000F8H   DATA     BYTE      P7
*SFR* 000000F8H   DATA     BIT       P70
*SFR* 000000F8H.1 DATA     BIT       P71
*SFR* 000000F8H.2 DATA     BIT       P72
*SFR* 000000F8H.3 DATA     BIT       P73
*SFR* 000000F8H.4 DATA     BIT       P74
*SFR* 000000F8H.5 DATA     BIT       P75
*SFR* 000000F8H.6 DATA     BIT       P76
*SFR* 000000F8H.7 DATA     BIT       P77
*SFR* 000000E2H   DATA     BYTE      P7M0
*SFR* 000000E1H   DATA     BYTE      P7M1
*SFR* 000000A2H   DATA     BYTE      P_SW1
*SFR* 000000BAH   DATA     BYTE      P_SW2
*SFR* 000000B8H.5 DATA     BIT       PADC
*SFR* 000000F2H   DATA     BYTE      PCA_PWM0
*SFR* 000000F3H   DATA     BYTE      PCA_PWM1
*SFR* 000000F4H   DATA     BYTE      PCA_PWM2
*SFR* 00000087H   DATA     BYTE      PCON
*SFR* 00000097H   DATA     BYTE      PCON2
*SFR* 000000B8H.6 DATA     BIT       PLVD
*SFR* 000000B8H.7 DATA     BIT       PPCA
*SFR* 000000B8H.4 DATA     BIT       PS
*SFR* 000000D0H   DATA     BYTE      PSW
*SFR* 000000B8H.1 DATA     BIT       PT0
*SFR* 000000B8H.3 DATA     BIT       PT1
*SFR* 000000F1H   DATA     BYTE      PWMCFG
*SFR* 000000F5H   DATA     BYTE      PWMCR
*SFR* 000000F7H   DATA     BYTE      PWMFDCR
*SFR* 000000F6H   DATA     BYTE      PWMIF
*SFR* 000000B8H   DATA     BIT       PX0
*SFR* 000000B8H.2 DATA     BIT       PX1
*SFR* 00000098H.2 DATA     BIT       RB8
*SFR* 00000098H.4 DATA     BIT       REN
      01000A28H   CODE     ---       require_delay_init
      01000006H   CODE     ---       reset_all_counters
*SFR* 00000098H   DATA     BIT       RI
*SFR* 000000D0H.3 DATA     BIT       RS0
*SFR* 000000D0H.4 DATA     BIT       RS1
*SFR* 0000009BH   DATA     BYTE      S2BUF
*SFR* 0000009AH   DATA     BYTE      S2CON
*SFR* 000000ADH   DATA     BYTE      S3BUF
*SFR* 000000ACH   DATA     BYTE      S3CON
*SFR* 00000085H   DATA     BYTE      S4BUF
*SFR* 00000084H   DATA     BYTE      S4CON
*SFR* 000000A9H   DATA     BYTE      SADDR
*SFR* 000000B9H   DATA     BYTE      SADEN
*SFR* 00000099H   DATA     BYTE      SBUF
*SFR* 00000098H   DATA     BYTE      SCON
*SFR* 00000098H.7 DATA     BIT       SM0
*SFR* 00000098H.6 DATA     BIT       SM1
*SFR* 00000098H.5 DATA     BIT       SM2
*SFR* 00000081H   DATA     BYTE      SP
*SFR* 000000CEH   DATA     BYTE      SPCTL
*SFR* 000000CFH   DATA     BYTE      SPDAT
*SFR* 000000CDH   DATA     BYTE      SPSTAT
*SFR* 000000D6H   DATA     BYTE      T2H
*SFR* 000000D7H   DATA     BYTE      T2L
*SFR* 000000D4H   DATA     BYTE      T3H
*SFR* 000000D5H   DATA     BYTE      T3L
*SFR* 000000D1H   DATA     BYTE      T3T4M
*SFR* 000000D2H   DATA     BYTE      T4H
LX51 LINKER/LOCATER V4.66.1.0                                                         09/07/2015  13:09:22  PAGE 10


*SFR* 000000D3H   DATA     BYTE      T4L
*SFR* 000000D1H   DATA     BYTE      T4T3M
*SFR* 00000098H.3 DATA     BIT       TB8
*SFR* 00000088H   DATA     BYTE      TCON
*SFR* 00000088H.5 DATA     BIT       TF0
*SFR* 00000088H.7 DATA     BIT       TF1
*SFR* 0000008CH   DATA     BYTE      TH0
*SFR* 0000008DH   DATA     BYTE      TH1
*SFR* 00000098H.1 DATA     BIT       TI
      02000001H   PDATA    DWORD     time_counter
*SFR* 0000008AH   DATA     BYTE      TL0
*SFR* 0000008BH   DATA     BYTE      TL1
      010004EBH   CODE     ---       tm0_isr
*SFR* 00000089H   DATA     BYTE      TMOD
*DEL*:00000000H   CODE     ---       toggle_once
*SFR* 00000088H.4 DATA     BIT       TR0
*SFR* 00000088H.6 DATA     BIT       TR1
*SFR* 000000C1H   DATA     BYTE      WDT_CONTR
*SFR* 000000ABH   DATA     BYTE      WKTCH
*SFR* 000000AAH   DATA     BYTE      WKTCL



SYMBOL TABLE OF MODULE:  led (?C_STARTUP)

      VALUE       REP       CLASS    TYPE      SYMBOL NAME
      ====================================================
      ---         MODULE    ---      ---       ?C_STARTUP
      01000000H   PUBLIC    CODE     ---       ?C_STARTUP
      000000E0H   SYMBOL    DATA     ---       ACC
      000000F0H   SYMBOL    DATA     ---       B
      00000083H   SYMBOL    DATA     ---       DPH
      00000082H   SYMBOL    DATA     ---       DPL
      00000000H   SYMBOL    NUMBER   ---       IBPSTACK
      00000100H   SYMBOL    NUMBER   ---       IBPSTACKTOP
      00000080H   SYMBOL    NUMBER   ---       IDATALEN
      01000586H   SYMBOL    CODE     ---       IDATALOOP
      00000000H   SYMBOL    NUMBER   ---       PBPSTACK
      00000100H   SYMBOL    NUMBER   ---       PBPSTACKTOP
      00000000H   SYMBOL    NUMBER   ---       PDATALEN
      00000000H   SYMBOL    NUMBER   ---       PDATASTART
      00000000H   SYMBOL    NUMBER   ---       PPAGE
      00000000H   SYMBOL    NUMBER   ---       PPAGEENABLE
      000000A0H   SYMBOL    DATA     ---       PPAGE_SFR
      00000081H   SYMBOL    DATA     ---       SP
      01000583H   SYMBOL    CODE     ---       STARTUP1
      00000000H   SYMBOL    NUMBER   ---       XBPSTACK
      00000000H   SYMBOL    NUMBER   ---       XBPSTACKTOP
      00000000H   SYMBOL    NUMBER   ---       XDATALEN
      00000000H   SYMBOL    NUMBER   ---       XDATASTART
      01000000H   LINE      CODE     ---       #126
      01000583H   LINE      CODE     ---       #133
      01000585H   LINE      CODE     ---       #134
      01000586H   LINE      CODE     ---       #135
      01000587H   LINE      CODE     ---       #136
      01000589H   LINE      CODE     ---       #185
      0100058CH   LINE      CODE     ---       #196

      ---         MODULE    ---      ---       SHARED
      02000009H   PUBLIC    PDATA    BYTE      display_mode_logic
      00000020H.0 PUBLIC    BIT      BIT       cycle_finished
      02000008H   PUBLIC    PDATA    BYTE      display_mode_set
      02000006H   PUBLIC    PDATA    ---       cycle_output
      02000005H   PUBLIC    PDATA    BYTE      counter_for_cycle
      02000001H   PUBLIC    PDATA    DWORD     time_counter
LX51 LINKER/LOCATER V4.66.1.0                                                         09/07/2015  13:09:22  PAGE 11


      02000000H   PUBLIC    PDATA    BYTE      INT_PROC
      000000D8H.2 SFRSYM    DATA     BIT       CCF2
      00000092H   SFRSYM    DATA     BYTE      P1M0
      00000093H   SFRSYM    DATA     BYTE      P0M1
      00000096H   SFRSYM    DATA     BYTE      P2M0
      00000091H   SFRSYM    DATA     BYTE      P1M1
      00000080H   SFRSYM    DATA     BYTE      P0
      000000B2H   SFRSYM    DATA     BYTE      P3M0
      00000095H   SFRSYM    DATA     BYTE      P2M1
      00000090H   SFRSYM    DATA     BYTE      P1
      000000B4H   SFRSYM    DATA     BYTE      P4M0
      000000B1H   SFRSYM    DATA     BYTE      P3M1
      000000A0H   SFRSYM    DATA     BYTE      P2
      000000ABH   SFRSYM    DATA     BYTE      WKTCH
      000000CAH   SFRSYM    DATA     BYTE      P5M0
      000000B3H   SFRSYM    DATA     BYTE      P4M1
      000000B0H   SFRSYM    DATA     BYTE      P3
      000000CCH   SFRSYM    DATA     BYTE      P6M0
      000000C9H   SFRSYM    DATA     BYTE      P5M1
      000000C0H   SFRSYM    DATA     BYTE      P4
      000000D0H.6 SFRSYM    DATA     BIT       AC
      000000F6H   SFRSYM    DATA     BYTE      PWMIF
      000000E2H   SFRSYM    DATA     BYTE      P7M0
      000000CBH   SFRSYM    DATA     BYTE      P6M1
      000000C8H   SFRSYM    DATA     BYTE      P5
      000000A8H.7 SFRSYM    DATA     BIT       EA
      000000E1H   SFRSYM    DATA     BYTE      P7M1
      000000E8H   SFRSYM    DATA     BYTE      P6
      000000AAH   SFRSYM    DATA     BYTE      WKTCL
      000000F8H   SFRSYM    DATA     BYTE      P7
      000000CEH   SFRSYM    DATA     BYTE      SPCTL
      000000D8H.7 SFRSYM    DATA     BIT       CF
      000000F5H   SFRSYM    DATA     BYTE      PWMCR
      000000F9H   SFRSYM    DATA     BYTE      CH
      000000A2H   SFRSYM    DATA     BYTE      P_SW1
      000000BAH   SFRSYM    DATA     BYTE      P_SW2
      000000A8H.5 SFRSYM    DATA     BIT       EADC
      000000A8H   SFRSYM    DATA     BYTE      IE
      000000E9H   SFRSYM    DATA     BYTE      CL
      000000C5H   SFRSYM    DATA     BYTE      IAP_CMD
      000000FAH   SFRSYM    DATA     BYTE      CCAP0H
      000000FBH   SFRSYM    DATA     BYTE      CCAP1H
      000000FCH   SFRSYM    DATA     BYTE      CCAP2H
      000000BDH   SFRSYM    DATA     BYTE      ADC_RES
      000000EAH   SFRSYM    DATA     BYTE      CCAP0L
      000000D8H.6 SFRSYM    DATA     BIT       CR
      000000F7H   SFRSYM    DATA     BYTE      PWMFDCR
      000000EBH   SFRSYM    DATA     BYTE      CCAP1L
      000000DAH   SFRSYM    DATA     BYTE      CCAPM0
      000000ECH   SFRSYM    DATA     BYTE      CCAP2L
      000000DBH   SFRSYM    DATA     BYTE      CCAPM1
      000000DCH   SFRSYM    DATA     BYTE      CCAPM2
      000000A8H.4 SFRSYM    DATA     BIT       ES
      000000B8H.5 SFRSYM    DATA     BIT       PADC
      000000B8H   SFRSYM    DATA     BYTE      IP
      00000098H   SFRSYM    DATA     BIT       RI
      000000B0H.2 SFRSYM    DATA     BIT       INT0
      000000D0H.7 SFRSYM    DATA     BIT       CY
      00000098H.1 SFRSYM    DATA     BIT       TI
      000000B0H.3 SFRSYM    DATA     BIT       INT1
      00000097H   SFRSYM    DATA     BYTE      CLK_DIV
      000000C3H   SFRSYM    DATA     BYTE      IAP_ADDRH
      000000B8H.4 SFRSYM    DATA     BIT       PS
      00000081H   SFRSYM    DATA     BYTE      SP
      000000D9H   SFRSYM    DATA     BYTE      CMOD
LX51 LINKER/LOCATER V4.66.1.0                                                         09/07/2015  13:09:22  PAGE 12


      000000D8H   SFRSYM    DATA     BYTE      CCON
      000000C4H   SFRSYM    DATA     BYTE      IAP_ADDRL
      000000B8H.7 SFRSYM    DATA     BIT       PPCA
      000000D0H.2 SFRSYM    DATA     BIT       OV
      000000E6H   SFRSYM    DATA     BYTE      CMPCR1
      000000E7H   SFRSYM    DATA     BYTE      CMPCR2
      000000A8H.6 SFRSYM    DATA     BIT       ELVD
      00000080H   SFRSYM    DATA     BIT       P00
      000000BCH   SFRSYM    DATA     BYTE      ADC_CONTR
      00000099H   SFRSYM    DATA     BYTE      SBUF
      00000087H   SFRSYM    DATA     BYTE      PCON
      00000090H   SFRSYM    DATA     BIT       P10
      00000080H.1 SFRSYM    DATA     BIT       P01
      000000A0H   SFRSYM    DATA     BIT       P20
      00000090H.1 SFRSYM    DATA     BIT       P11
      00000080H.2 SFRSYM    DATA     BIT       P02
      000000B0H   SFRSYM    DATA     BIT       P30
      000000A0H.1 SFRSYM    DATA     BIT       P21
      00000090H.2 SFRSYM    DATA     BIT       P12
      00000080H.3 SFRSYM    DATA     BIT       P03
      00000098H   SFRSYM    DATA     BYTE      SCON
      000000C0H   SFRSYM    DATA     BIT       P40
      000000B0H.1 SFRSYM    DATA     BIT       P31
      000000A0H.2 SFRSYM    DATA     BIT       P22
      00000090H.3 SFRSYM    DATA     BIT       P13
      00000080H.4 SFRSYM    DATA     BIT       P04
      00000089H   SFRSYM    DATA     BYTE      TMOD
      00000088H   SFRSYM    DATA     BYTE      TCON
      000000C8H   SFRSYM    DATA     BIT       P50
      000000C0H.1 SFRSYM    DATA     BIT       P41
      000000B0H.2 SFRSYM    DATA     BIT       P32
      000000A0H.3 SFRSYM    DATA     BIT       P23
      00000090H.4 SFRSYM    DATA     BIT       P14
      00000080H.5 SFRSYM    DATA     BIT       P05
      000000E8H   SFRSYM    DATA     BIT       P60
      000000C8H.1 SFRSYM    DATA     BIT       P51
      000000C0H.2 SFRSYM    DATA     BIT       P42
      000000B0H.3 SFRSYM    DATA     BIT       P33
      000000A0H.4 SFRSYM    DATA     BIT       P24
      00000090H.5 SFRSYM    DATA     BIT       P15
      00000080H.6 SFRSYM    DATA     BIT       P06
      000000B8H.6 SFRSYM    DATA     BIT       PLVD
      000000F8H   SFRSYM    DATA     BIT       P70
      000000E8H.1 SFRSYM    DATA     BIT       P61
      000000C8H.2 SFRSYM    DATA     BIT       P52
      000000C0H.3 SFRSYM    DATA     BIT       P43
      000000B0H.4 SFRSYM    DATA     BIT       P34
      000000A0H.5 SFRSYM    DATA     BIT       P25
      00000090H.6 SFRSYM    DATA     BIT       P16
      00000080H.7 SFRSYM    DATA     BIT       P07
      000000F8H.1 SFRSYM    DATA     BIT       P71
      000000E8H.2 SFRSYM    DATA     BIT       P62
      000000C8H.3 SFRSYM    DATA     BIT       P53
      000000C0H.4 SFRSYM    DATA     BIT       P44
      000000B0H.5 SFRSYM    DATA     BIT       P35
      000000A0H.6 SFRSYM    DATA     BIT       P26
      00000090H.7 SFRSYM    DATA     BIT       P17
      000000F8H.2 SFRSYM    DATA     BIT       P72
      000000E8H.3 SFRSYM    DATA     BIT       P63
      000000C8H.4 SFRSYM    DATA     BIT       P54
      000000C0H.5 SFRSYM    DATA     BIT       P45
      000000B0H.6 SFRSYM    DATA     BIT       P36
      000000A0H.7 SFRSYM    DATA     BIT       P27
      000000F8H.3 SFRSYM    DATA     BIT       P73
      000000E8H.4 SFRSYM    DATA     BIT       P64
LX51 LINKER/LOCATER V4.66.1.0                                                         09/07/2015  13:09:22  PAGE 13


      000000C8H.5 SFRSYM    DATA     BIT       P55
      000000C0H.6 SFRSYM    DATA     BIT       P46
      000000B0H.7 SFRSYM    DATA     BIT       P37
      000000F8H.4 SFRSYM    DATA     BIT       P74
      000000E8H.5 SFRSYM    DATA     BIT       P65
      000000C8H.6 SFRSYM    DATA     BIT       P56
      000000C0H.7 SFRSYM    DATA     BIT       P47
      000000F8H.5 SFRSYM    DATA     BIT       P75
      000000E8H.6 SFRSYM    DATA     BIT       P66
      000000C8H.7 SFRSYM    DATA     BIT       P57
      000000F8H.6 SFRSYM    DATA     BIT       P76
      000000E8H.7 SFRSYM    DATA     BIT       P67
      00000088H.1 SFRSYM    DATA     BIT       IE0
      000000A1H   SFRSYM    DATA     BYTE      BUS_SPEED
      000000F8H.7 SFRSYM    DATA     BIT       P77
      00000088H.3 SFRSYM    DATA     BIT       IE1
      000000AFH   SFRSYM    DATA     BYTE      IE2
      0000008EH   SFRSYM    DATA     BYTE      AUXR
      000000F0H   SFRSYM    DATA     BYTE      B
      000000C7H   SFRSYM    DATA     BYTE      IAP_CONTR
      000000F1H   SFRSYM    DATA     BYTE      PWMCFG
      000000E0H   SFRSYM    DATA     BYTE      ACC
      000000A8H.1 SFRSYM    DATA     BIT       ET0
      00000088H.5 SFRSYM    DATA     BIT       TF0
      000000A8H.3 SFRSYM    DATA     BIT       ET1
      00000088H.7 SFRSYM    DATA     BIT       TF1
      000000B5H   SFRSYM    DATA     BYTE      IP2
      00000098H.2 SFRSYM    DATA     BIT       RB8
      0000008CH   SFRSYM    DATA     BYTE      TH0
      0000008DH   SFRSYM    DATA     BYTE      TH1
      00000088H   SFRSYM    DATA     BIT       IT0
      000000A8H   SFRSYM    DATA     BIT       EX0
      00000098H.3 SFRSYM    DATA     BIT       TB8
      000000D6H   SFRSYM    DATA     BYTE      T2H
      00000088H.2 SFRSYM    DATA     BIT       IT1
      000000A8H.2 SFRSYM    DATA     BIT       EX1
      000000D4H   SFRSYM    DATA     BYTE      T3H
      000000D0H   SFRSYM    DATA     BIT       P
      00000098H.7 SFRSYM    DATA     BIT       SM0
      000000D2H   SFRSYM    DATA     BYTE      T4H
      0000008AH   SFRSYM    DATA     BYTE      TL0
      00000098H.6 SFRSYM    DATA     BIT       SM1
      0000008BH   SFRSYM    DATA     BYTE      TL1
      00000098H.5 SFRSYM    DATA     BIT       SM2
      000000D7H   SFRSYM    DATA     BYTE      T2L
      000000D5H   SFRSYM    DATA     BYTE      T3L
      000000D3H   SFRSYM    DATA     BYTE      T4L
      000000B8H.1 SFRSYM    DATA     BIT       PT0
      000000B8H.3 SFRSYM    DATA     BIT       PT1
      000000D0H.3 SFRSYM    DATA     BIT       RS0
      000000C2H   SFRSYM    DATA     BYTE      IAP_DATA
      00000088H.4 SFRSYM    DATA     BIT       TR0
      000000D0H.4 SFRSYM    DATA     BIT       RS1
      00000088H.6 SFRSYM    DATA     BIT       TR1
      000000C1H   SFRSYM    DATA     BYTE      WDT_CONTR
      000000B8H   SFRSYM    DATA     BIT       PX0
      000000B8H.2 SFRSYM    DATA     BIT       PX1
      000000F2H   SFRSYM    DATA     BYTE      PCA_PWM0
      000000F3H   SFRSYM    DATA     BYTE      PCA_PWM1
      000000F4H   SFRSYM    DATA     BYTE      PCA_PWM2
      0000009DH   SFRSYM    DATA     BYTE      P1ASF
      00000083H   SFRSYM    DATA     BYTE      DPH
      000000D1H   SFRSYM    DATA     BYTE      T3T4M
      000000D1H   SFRSYM    DATA     BYTE      T4T3M
      000000BEH   SFRSYM    DATA     BYTE      ADC_RESL
LX51 LINKER/LOCATER V4.66.1.0                                                         09/07/2015  13:09:22  PAGE 14


      00000082H   SFRSYM    DATA     BYTE      DPL
      000000CDH   SFRSYM    DATA     BYTE      SPSTAT
      0000009BH   SFRSYM    DATA     BYTE      S2BUF
      00000097H   SFRSYM    DATA     BYTE      PCON2
      000000ADH   SFRSYM    DATA     BYTE      S3BUF
      00000085H   SFRSYM    DATA     BYTE      S4BUF
      00000098H.4 SFRSYM    DATA     BIT       REN
      0000009AH   SFRSYM    DATA     BYTE      S2CON
      000000ACH   SFRSYM    DATA     BYTE      S3CON
      00000084H   SFRSYM    DATA     BYTE      S4CON
      000000B9H   SFRSYM    DATA     BYTE      SADEN
      000000A9H   SFRSYM    DATA     BYTE      SADDR
      000000C6H   SFRSYM    DATA     BYTE      IAP_TRIG
      000000A2H   SFRSYM    DATA     BYTE      AUXR1
      000000D0H.5 SFRSYM    DATA     BIT       F0
      0000008FH   SFRSYM    DATA     BYTE      INT_CLKO
      000000D0H   SFRSYM    DATA     BYTE      PSW
      000000D8H   SFRSYM    DATA     BIT       CCF0
      000000D8H.1 SFRSYM    DATA     BIT       CCF1
      000000CFH   SFRSYM    DATA     BYTE      SPDAT
      00000094H   SFRSYM    DATA     BYTE      P0M0

      ---         MODULE    ---      ---       DISPLAY
      02000012H   PUBLIC    PDATA    ---       cycle_reached
      01000152H   PUBLIC    CODE     ---       display_mode_logic_changed
      0100000EH   PUBLIC    CODE     ---       display_mode_set_changed
      01000A9EH   PUBLIC    CODE     ---       _cycle_based_adjust
      000000D8H.2 SFRSYM    DATA     BIT       CCF2
      00000092H   SFRSYM    DATA     BYTE      P1M0
      00000093H   SFRSYM    DATA     BYTE      P0M1
      00000096H   SFRSYM    DATA     BYTE      P2M0
      00000091H   SFRSYM    DATA     BYTE      P1M1
      00000080H   SFRSYM    DATA     BYTE      P0
      000000B2H   SFRSYM    DATA     BYTE      P3M0
      00000095H   SFRSYM    DATA     BYTE      P2M1
      00000090H   SFRSYM    DATA     BYTE      P1
      000000B4H   SFRSYM    DATA     BYTE      P4M0
      000000B1H   SFRSYM    DATA     BYTE      P3M1
      000000A0H   SFRSYM    DATA     BYTE      P2
      000000ABH   SFRSYM    DATA     BYTE      WKTCH
      000000CAH   SFRSYM    DATA     BYTE      P5M0
      000000B3H   SFRSYM    DATA     BYTE      P4M1
      000000B0H   SFRSYM    DATA     BYTE      P3
      000000CCH   SFRSYM    DATA     BYTE      P6M0
      000000C9H   SFRSYM    DATA     BYTE      P5M1
      000000C0H   SFRSYM    DATA     BYTE      P4
      000000D0H.6 SFRSYM    DATA     BIT       AC
      000000F6H   SFRSYM    DATA     BYTE      PWMIF
      000000E2H   SFRSYM    DATA     BYTE      P7M0
      000000CBH   SFRSYM    DATA     BYTE      P6M1
      000000C8H   SFRSYM    DATA     BYTE      P5
      000000A8H.7 SFRSYM    DATA     BIT       EA
      000000E1H   SFRSYM    DATA     BYTE      P7M1
      000000E8H   SFRSYM    DATA     BYTE      P6
      000000AAH   SFRSYM    DATA     BYTE      WKTCL
      000000F8H   SFRSYM    DATA     BYTE      P7
      000000CEH   SFRSYM    DATA     BYTE      SPCTL
      000000D8H.7 SFRSYM    DATA     BIT       CF
      000000F5H   SFRSYM    DATA     BYTE      PWMCR
      000000F9H   SFRSYM    DATA     BYTE      CH
      000000A2H   SFRSYM    DATA     BYTE      P_SW1
      000000BAH   SFRSYM    DATA     BYTE      P_SW2
      000000A8H.5 SFRSYM    DATA     BIT       EADC
      000000A8H   SFRSYM    DATA     BYTE      IE
      000000E9H   SFRSYM    DATA     BYTE      CL
LX51 LINKER/LOCATER V4.66.1.0                                                         09/07/2015  13:09:22  PAGE 15


      000000C5H   SFRSYM    DATA     BYTE      IAP_CMD
      000000FAH   SFRSYM    DATA     BYTE      CCAP0H
      000000FBH   SFRSYM    DATA     BYTE      CCAP1H
      000000FCH   SFRSYM    DATA     BYTE      CCAP2H
      000000BDH   SFRSYM    DATA     BYTE      ADC_RES
      000000EAH   SFRSYM    DATA     BYTE      CCAP0L
      000000D8H.6 SFRSYM    DATA     BIT       CR
      000000F7H   SFRSYM    DATA     BYTE      PWMFDCR
      000000EBH   SFRSYM    DATA     BYTE      CCAP1L
      000000DAH   SFRSYM    DATA     BYTE      CCAPM0
      000000ECH   SFRSYM    DATA     BYTE      CCAP2L
      000000DBH   SFRSYM    DATA     BYTE      CCAPM1
      000000DCH   SFRSYM    DATA     BYTE      CCAPM2
      000000A8H.4 SFRSYM    DATA     BIT       ES
      000000B8H.5 SFRSYM    DATA     BIT       PADC
      000000B8H   SFRSYM    DATA     BYTE      IP
      00000098H   SFRSYM    DATA     BIT       RI
      000000B0H.2 SFRSYM    DATA     BIT       INT0
      000000D0H.7 SFRSYM    DATA     BIT       CY
      00000098H.1 SFRSYM    DATA     BIT       TI
      000000B0H.3 SFRSYM    DATA     BIT       INT1
      00000097H   SFRSYM    DATA     BYTE      CLK_DIV
      000000C3H   SFRSYM    DATA     BYTE      IAP_ADDRH
      000000B8H.4 SFRSYM    DATA     BIT       PS
      00000081H   SFRSYM    DATA     BYTE      SP
      000000D9H   SFRSYM    DATA     BYTE      CMOD
      000000D8H   SFRSYM    DATA     BYTE      CCON
      000000C4H   SFRSYM    DATA     BYTE      IAP_ADDRL
      000000B8H.7 SFRSYM    DATA     BIT       PPCA
      000000D0H.2 SFRSYM    DATA     BIT       OV
      000000E6H   SFRSYM    DATA     BYTE      CMPCR1
      000000E7H   SFRSYM    DATA     BYTE      CMPCR2
      000000A8H.6 SFRSYM    DATA     BIT       ELVD
      00000080H   SFRSYM    DATA     BIT       P00
      000000BCH   SFRSYM    DATA     BYTE      ADC_CONTR
      00000099H   SFRSYM    DATA     BYTE      SBUF
      00000087H   SFRSYM    DATA     BYTE      PCON
      00000090H   SFRSYM    DATA     BIT       P10
      00000080H.1 SFRSYM    DATA     BIT       P01
      000000A0H   SFRSYM    DATA     BIT       P20
      00000090H.1 SFRSYM    DATA     BIT       P11
      00000080H.2 SFRSYM    DATA     BIT       P02
      000000B0H   SFRSYM    DATA     BIT       P30
      000000A0H.1 SFRSYM    DATA     BIT       P21
      00000090H.2 SFRSYM    DATA     BIT       P12
      00000080H.3 SFRSYM    DATA     BIT       P03
      00000098H   SFRSYM    DATA     BYTE      SCON
      000000C0H   SFRSYM    DATA     BIT       P40
      000000B0H.1 SFRSYM    DATA     BIT       P31
      000000A0H.2 SFRSYM    DATA     BIT       P22
      00000090H.3 SFRSYM    DATA     BIT       P13
      00000080H.4 SFRSYM    DATA     BIT       P04
      00000089H   SFRSYM    DATA     BYTE      TMOD
      00000088H   SFRSYM    DATA     BYTE      TCON
      000000C8H   SFRSYM    DATA     BIT       P50
      000000C0H.1 SFRSYM    DATA     BIT       P41
      000000B0H.2 SFRSYM    DATA     BIT       P32
      000000A0H.3 SFRSYM    DATA     BIT       P23
      00000090H.4 SFRSYM    DATA     BIT       P14
      00000080H.5 SFRSYM    DATA     BIT       P05
      000000E8H   SFRSYM    DATA     BIT       P60
      000000C8H.1 SFRSYM    DATA     BIT       P51
      000000C0H.2 SFRSYM    DATA     BIT       P42
      000000B0H.3 SFRSYM    DATA     BIT       P33
      000000A0H.4 SFRSYM    DATA     BIT       P24
LX51 LINKER/LOCATER V4.66.1.0                                                         09/07/2015  13:09:22  PAGE 16


      00000090H.5 SFRSYM    DATA     BIT       P15
      00000080H.6 SFRSYM    DATA     BIT       P06
      000000B8H.6 SFRSYM    DATA     BIT       PLVD
      000000F8H   SFRSYM    DATA     BIT       P70
      000000E8H.1 SFRSYM    DATA     BIT       P61
      000000C8H.2 SFRSYM    DATA     BIT       P52
      000000C0H.3 SFRSYM    DATA     BIT       P43
      000000B0H.4 SFRSYM    DATA     BIT       P34
      000000A0H.5 SFRSYM    DATA     BIT       P25
      00000090H.6 SFRSYM    DATA     BIT       P16
      00000080H.7 SFRSYM    DATA     BIT       P07
      000000F8H.1 SFRSYM    DATA     BIT       P71
      000000E8H.2 SFRSYM    DATA     BIT       P62
      000000C8H.3 SFRSYM    DATA     BIT       P53
      000000C0H.4 SFRSYM    DATA     BIT       P44
      000000B0H.5 SFRSYM    DATA     BIT       P35
      000000A0H.6 SFRSYM    DATA     BIT       P26
      00000090H.7 SFRSYM    DATA     BIT       P17
      000000F8H.2 SFRSYM    DATA     BIT       P72
      000000E8H.3 SFRSYM    DATA     BIT       P63
      000000C8H.4 SFRSYM    DATA     BIT       P54
      000000C0H.5 SFRSYM    DATA     BIT       P45
      000000B0H.6 SFRSYM    DATA     BIT       P36
      000000A0H.7 SFRSYM    DATA     BIT       P27
      000000F8H.3 SFRSYM    DATA     BIT       P73
      000000E8H.4 SFRSYM    DATA     BIT       P64
      000000C8H.5 SFRSYM    DATA     BIT       P55
      000000C0H.6 SFRSYM    DATA     BIT       P46
      000000B0H.7 SFRSYM    DATA     BIT       P37
      000000F8H.4 SFRSYM    DATA     BIT       P74
      000000E8H.5 SFRSYM    DATA     BIT       P65
      000000C8H.6 SFRSYM    DATA     BIT       P56
      000000C0H.7 SFRSYM    DATA     BIT       P47
      000000F8H.5 SFRSYM    DATA     BIT       P75
      000000E8H.6 SFRSYM    DATA     BIT       P66
      000000C8H.7 SFRSYM    DATA     BIT       P57
      000000F8H.6 SFRSYM    DATA     BIT       P76
      000000E8H.7 SFRSYM    DATA     BIT       P67
      00000088H.1 SFRSYM    DATA     BIT       IE0
      000000A1H   SFRSYM    DATA     BYTE      BUS_SPEED
      000000F8H.7 SFRSYM    DATA     BIT       P77
      00000088H.3 SFRSYM    DATA     BIT       IE1
      000000AFH   SFRSYM    DATA     BYTE      IE2
      0000008EH   SFRSYM    DATA     BYTE      AUXR
      000000F0H   SFRSYM    DATA     BYTE      B
      000000C7H   SFRSYM    DATA     BYTE      IAP_CONTR
      000000F1H   SFRSYM    DATA     BYTE      PWMCFG
      000000E0H   SFRSYM    DATA     BYTE      ACC
      000000A8H.1 SFRSYM    DATA     BIT       ET0
      00000088H.5 SFRSYM    DATA     BIT       TF0
      000000A8H.3 SFRSYM    DATA     BIT       ET1
      00000088H.7 SFRSYM    DATA     BIT       TF1
      000000B5H   SFRSYM    DATA     BYTE      IP2
      00000098H.2 SFRSYM    DATA     BIT       RB8
      0000008CH   SFRSYM    DATA     BYTE      TH0
      0000008DH   SFRSYM    DATA     BYTE      TH1
      00000088H   SFRSYM    DATA     BIT       IT0
      000000A8H   SFRSYM    DATA     BIT       EX0
      00000098H.3 SFRSYM    DATA     BIT       TB8
      000000D6H   SFRSYM    DATA     BYTE      T2H
      00000088H.2 SFRSYM    DATA     BIT       IT1
      000000A8H.2 SFRSYM    DATA     BIT       EX1
      000000D4H   SFRSYM    DATA     BYTE      T3H
      000000D0H   SFRSYM    DATA     BIT       P
      00000098H.7 SFRSYM    DATA     BIT       SM0
LX51 LINKER/LOCATER V4.66.1.0                                                         09/07/2015  13:09:22  PAGE 17


      000000D2H   SFRSYM    DATA     BYTE      T4H
      0000008AH   SFRSYM    DATA     BYTE      TL0
      00000098H.6 SFRSYM    DATA     BIT       SM1
      0000008BH   SFRSYM    DATA     BYTE      TL1
      00000098H.5 SFRSYM    DATA     BIT       SM2
      000000D7H   SFRSYM    DATA     BYTE      T2L
      000000D5H   SFRSYM    DATA     BYTE      T3L
      000000D3H   SFRSYM    DATA     BYTE      T4L
      000000B8H.1 SFRSYM    DATA     BIT       PT0
      000000B8H.3 SFRSYM    DATA     BIT       PT1
      000000D0H.3 SFRSYM    DATA     BIT       RS0
      000000C2H   SFRSYM    DATA     BYTE      IAP_DATA
      00000088H.4 SFRSYM    DATA     BIT       TR0
      000000D0H.4 SFRSYM    DATA     BIT       RS1
      00000088H.6 SFRSYM    DATA     BIT       TR1
      000000C1H   SFRSYM    DATA     BYTE      WDT_CONTR
      000000B8H   SFRSYM    DATA     BIT       PX0
      000000B8H.2 SFRSYM    DATA     BIT       PX1
      000000F2H   SFRSYM    DATA     BYTE      PCA_PWM0
      000000F3H   SFRSYM    DATA     BYTE      PCA_PWM1
      000000F4H   SFRSYM    DATA     BYTE      PCA_PWM2
      0000009DH   SFRSYM    DATA     BYTE      P1ASF
      00000083H   SFRSYM    DATA     BYTE      DPH
      000000D1H   SFRSYM    DATA     BYTE      T3T4M
      000000D1H   SFRSYM    DATA     BYTE      T4T3M
      000000BEH   SFRSYM    DATA     BYTE      ADC_RESL
      00000082H   SFRSYM    DATA     BYTE      DPL
      000000CDH   SFRSYM    DATA     BYTE      SPSTAT
      0000009BH   SFRSYM    DATA     BYTE      S2BUF
      00000097H   SFRSYM    DATA     BYTE      PCON2
      000000ADH   SFRSYM    DATA     BYTE      S3BUF
      00000085H   SFRSYM    DATA     BYTE      S4BUF
      00000098H.4 SFRSYM    DATA     BIT       REN
      0000009AH   SFRSYM    DATA     BYTE      S2CON
      000000ACH   SFRSYM    DATA     BYTE      S3CON
      00000084H   SFRSYM    DATA     BYTE      S4CON
      000000B9H   SFRSYM    DATA     BYTE      SADEN
      000000A9H   SFRSYM    DATA     BYTE      SADDR
      000000C6H   SFRSYM    DATA     BYTE      IAP_TRIG
      000000A2H   SFRSYM    DATA     BYTE      AUXR1
      000000D0H.5 SFRSYM    DATA     BIT       F0
      0000008FH   SFRSYM    DATA     BYTE      INT_CLKO
      000000D0H   SFRSYM    DATA     BYTE      PSW
      000000D8H   SFRSYM    DATA     BIT       CCF0
      000000D8H.1 SFRSYM    DATA     BIT       CCF1
      000000CFH   SFRSYM    DATA     BYTE      SPDAT
      00000094H   SFRSYM    DATA     BYTE      P0M0
      01000B0DH   SYMBOL    CODE     ---       combination_driver_init
      02000011H   SYMBOL    PDATA    BYTE      cycle_counter_for_0010
      01000B2BH   SYMBOL    CODE     ---       driver_1000_init
      01000AF6H   SYMBOL    CODE     ---       driver_0100_init
      01000A6CH   SYMBOL    CODE     ---       driver_0010_init
      01000AE0H   SYMBOL    CODE     ---       driver_0001_init
      01000B43H   SYMBOL    CODE     ---       driver_1100_init
      01000B37H   SYMBOL    CODE     ---       driver_1010_init
      01000B31H   SYMBOL    CODE     ---       driver_1001_init
      01000B1FH   SYMBOL    CODE     ---       driver_0110_init
      01000B19H   SYMBOL    CODE     ---       driver_0101_init
      01000AEBH   SYMBOL    CODE     ---       driver_0011_init
      01000B13H   SYMBOL    CODE     ---       driver_1101_init
      01000B3DH   SYMBOL    CODE     ---       driver_1011_init
      01000B25H   SYMBOL    CODE     ---       driver_0111_init
      02000015H   SYMBOL    PDATA    BYTE      current_interval
      01000B8BH   SYMBOL    CONST    ---       cycle_for_1000
      01000B73H   SYMBOL    CONST    ---       cycle_for_0100
LX51 LINKER/LOCATER V4.66.1.0                                                         09/07/2015  13:09:22  PAGE 18


      01000B61H   SYMBOL    CONST    ---       cycle_for_0010
      01000B55H   SYMBOL    CONST    ---       cycle_for_0001
      01000BCDH   SYMBOL    CONST    ---       cycle_for_1100
      01000BBDH   SYMBOL    CONST    ---       cycle_for_1010
      01000BA3H   SYMBOL    CONST    ---       cycle_for_1001
      01000B83H   SYMBOL    CONST    ---       cycle_for_0110
      01000B76H   SYMBOL    CONST    ---       cycle_for_0101
      01000B64H   SYMBOL    CONST    ---       cycle_for_0011
      01000BCAH   SYMBOL    CONST    ---       cycle_for_1011
      01000B86H   SYMBOL    CONST    ---       cycle_for_0111
      01000434H   SYMBOL    CODE     ---       _cycle_reached_1000
      0100098CH   SYMBOL    CODE     ---       _cycle_reached_0100
      010008B4H   SYMBOL    CODE     ---       _cycle_reached_0010
      0100075AH   SYMBOL    CODE     ---       _cycle_reached_0001
      01000928H   SYMBOL    CODE     ---       _cycle_reached_1100
      010006F1H   SYMBOL    CODE     ---       _cycle_reached_1010
      01000371H   SYMBOL    CODE     ---       _cycle_reached_1001
      010009B5H   SYMBOL    CODE     ---       _cycle_reached_0110
      01000688H   SYMBOL    CODE     ---       _cycle_reached_0101
      0100060FH   SYMBOL    CODE     ---       _cycle_reached_0011
      010009DEH   SYMBOL    CODE     ---       _cycle_reached_1011
      010008EFH   SYMBOL    CODE     ---       _cycle_reached_0111
      00000008H   SYMBOL    DATA     ---       cycle_params

      010007C1H   BLOCK     CODE     ---       LVL=0
      ---         BLOCKEND  ---      ---       LVL=0

      01000A9EH   BLOCK     CODE     ---       LVL=0
      00000007H   SYMBOL    DATA     BYTE      cycle
      01000A9EH   LINE      CODE     ---       #125
      01000A9EH   LINE      CODE     ---       #126
      ---         BLOCKEND  ---      ---       LVL=0

      0100000EH   BLOCK     CODE     ---       LVL=0
      0100000EH   LINE      CODE     ---       #130
      0100000EH   LINE      CODE     ---       #138
      0100004AH   LINE      CODE     ---       #139
      0100004AH   LINE      CODE     ---       #140
      0100004DH   LINE      CODE     ---       #144
      01000050H   LINE      CODE     ---       #145
      01000050H   LINE      CODE     ---       #146
      01000053H   LINE      CODE     ---       #147
      01000053H   LINE      CODE     ---       #148
      0100005DH   LINE      CODE     ---       #149
      01000060H   LINE      CODE     ---       #150
      01000060H   LINE      CODE     ---       #151
      01000063H   LINE      CODE     ---       #152
      01000069H   LINE      CODE     ---       #153
      01000073H   LINE      CODE     ---       #154
      01000076H   LINE      CODE     ---       #155
      01000076H   LINE      CODE     ---       #156
      01000079H   LINE      CODE     ---       #157
      0100007FH   LINE      CODE     ---       #158
      01000089H   LINE      CODE     ---       #159
      0100008CH   LINE      CODE     ---       #160
      0100008CH   LINE      CODE     ---       #161
      0100008FH   LINE      CODE     ---       #162
      01000095H   LINE      CODE     ---       #163
      0100009FH   LINE      CODE     ---       #164
      010000A2H   LINE      CODE     ---       #165
      010000A2H   LINE      CODE     ---       #166
      010000A5H   LINE      CODE     ---       #167
      010000ABH   LINE      CODE     ---       #168
      010000B5H   LINE      CODE     ---       #169
      010000B8H   LINE      CODE     ---       #170
LX51 LINKER/LOCATER V4.66.1.0                                                         09/07/2015  13:09:22  PAGE 19


      010000B8H   LINE      CODE     ---       #171
      010000BBH   LINE      CODE     ---       #172
      010000C1H   LINE      CODE     ---       #173
      010000CBH   LINE      CODE     ---       #174
      010000CEH   LINE      CODE     ---       #175
      010000CEH   LINE      CODE     ---       #176
      010000D1H   LINE      CODE     ---       #177
      010000D7H   LINE      CODE     ---       #178
      010000E1H   LINE      CODE     ---       #179
      010000E3H   LINE      CODE     ---       #180
      010000E3H   LINE      CODE     ---       #181
      010000E6H   LINE      CODE     ---       #182
      010000ECH   LINE      CODE     ---       #183
      010000F6H   LINE      CODE     ---       #184
      010000F8H   LINE      CODE     ---       #185
      010000F8H   LINE      CODE     ---       #186
      010000FBH   LINE      CODE     ---       #187
      01000101H   LINE      CODE     ---       #188
      0100010BH   LINE      CODE     ---       #189
      0100010DH   LINE      CODE     ---       #190
      0100010DH   LINE      CODE     ---       #191
      01000110H   LINE      CODE     ---       #192
      01000116H   LINE      CODE     ---       #193
      01000120H   LINE      CODE     ---       #194
      01000122H   LINE      CODE     ---       #195
      01000122H   LINE      CODE     ---       #196
      01000125H   LINE      CODE     ---       #197
      0100012BH   LINE      CODE     ---       #198
      01000135H   LINE      CODE     ---       #199
      01000137H   LINE      CODE     ---       #200
      01000137H   LINE      CODE     ---       #201
      0100013AH   LINE      CODE     ---       #202
      01000140H   LINE      CODE     ---       #203
      0100014AH   LINE      CODE     ---       #204
      0100014CH   LINE      CODE     ---       #205
      0100014CH   LINE      CODE     ---       #206
      0100014FH   LINE      CODE     ---       #207
      0100014FH   LINE      CODE     ---       #208
      0100014FH   LINE      CODE     ---       #209
      0100014FH   LINE      CODE     ---       #210
      ---         BLOCKEND  ---      ---       LVL=0

      01000152H   BLOCK     CODE     ---       LVL=0
      01000152H   LINE      CODE     ---       #218
      01000152H   LINE      CODE     ---       #224
      01000190H   LINE      CODE     ---       #225
      01000190H   LINE      CODE     ---       #226
      01000190H   LINE      CODE     ---       #227
      01000190H   LINE      CODE     ---       #228
      01000193H   LINE      CODE     ---       #229
      01000193H   LINE      CODE     ---       #230
      0100019DH   LINE      CODE     ---       #231
      010001A0H   LINE      CODE     ---       #232
      010001A0H   LINE      CODE     ---       #233
      010001A3H   LINE      CODE     ---       #234
      010001A9H   LINE      CODE     ---       #235
      010001B3H   LINE      CODE     ---       #236
      010001B6H   LINE      CODE     ---       #237
      010001B6H   LINE      CODE     ---       #238
      010001B9H   LINE      CODE     ---       #239
      010001BFH   LINE      CODE     ---       #240
      010001C9H   LINE      CODE     ---       #241
      010001CCH   LINE      CODE     ---       #242
      010001CCH   LINE      CODE     ---       #243
      010001CFH   LINE      CODE     ---       #244
LX51 LINKER/LOCATER V4.66.1.0                                                         09/07/2015  13:09:22  PAGE 20


      010001D5H   LINE      CODE     ---       #245
      010001DFH   LINE      CODE     ---       #246
      010001E2H   LINE      CODE     ---       #247
      010001E2H   LINE      CODE     ---       #248
      010001E5H   LINE      CODE     ---       #249
      010001EBH   LINE      CODE     ---       #250
      010001F5H   LINE      CODE     ---       #251
      010001F8H   LINE      CODE     ---       #252
      010001F8H   LINE      CODE     ---       #253
      010001FBH   LINE      CODE     ---       #254
      01000201H   LINE      CODE     ---       #255
      0100020BH   LINE      CODE     ---       #256
      0100020DH   LINE      CODE     ---       #257
      0100020DH   LINE      CODE     ---       #258
      01000210H   LINE      CODE     ---       #259
      01000216H   LINE      CODE     ---       #260
      01000220H   LINE      CODE     ---       #261
      01000222H   LINE      CODE     ---       #262
      01000222H   LINE      CODE     ---       #263
      01000225H   LINE      CODE     ---       #264
      0100022BH   LINE      CODE     ---       #265
      01000235H   LINE      CODE     ---       #266
      01000237H   LINE      CODE     ---       #267
      01000237H   LINE      CODE     ---       #268
      0100023AH   LINE      CODE     ---       #269
      01000240H   LINE      CODE     ---       #270
      0100024AH   LINE      CODE     ---       #271
      0100024CH   LINE      CODE     ---       #272
      0100024CH   LINE      CODE     ---       #273
      0100024FH   LINE      CODE     ---       #274
      01000255H   LINE      CODE     ---       #275
      0100025FH   LINE      CODE     ---       #276
      01000261H   LINE      CODE     ---       #277
      01000261H   LINE      CODE     ---       #278
      01000264H   LINE      CODE     ---       #279
      0100026AH   LINE      CODE     ---       #280
      01000274H   LINE      CODE     ---       #281
      01000276H   LINE      CODE     ---       #282
      01000276H   LINE      CODE     ---       #283
      01000279H   LINE      CODE     ---       #284
      0100027FH   LINE      CODE     ---       #285
      01000289H   LINE      CODE     ---       #286
      01000289H   LINE      CODE     ---       #287
      01000289H   LINE      CODE     ---       #289
      01000289H   LINE      CODE     ---       #290
      01000289H   LINE      CODE     ---       #291
      01000289H   LINE      CODE     ---       #292
      0100028DH   LINE      CODE     ---       #295
      ---         BLOCKEND  ---      ---       LVL=0

      01000B0DH   BLOCK     CODE     ---       LVL=0
      01000B0DH   LINE      CODE     ---       #299
      01000B0DH   LINE      CODE     ---       #302
      01000B0DH   LINE      CODE     ---       #303
      01000B0DH   LINE      CODE     ---       #304
      01000B0DH   LINE      CODE     ---       #305
      01000B0DH   LINE      CODE     ---       #306
      01000B10H   LINE      CODE     ---       #307
      ---         BLOCKEND  ---      ---       LVL=0

      01000B13H   BLOCK     CODE     ---       LVL=0
      01000B13H   LINE      CODE     ---       #311
      01000B13H   LINE      CODE     ---       #312
      01000B13H   LINE      CODE     ---       #315
      01000B13H   LINE      CODE     ---       #316
LX51 LINKER/LOCATER V4.66.1.0                                                         09/07/2015  13:09:22  PAGE 21


      01000B13H   LINE      CODE     ---       #317
      01000B13H   LINE      CODE     ---       #318
      01000B13H   LINE      CODE     ---       #319
      01000B16H   LINE      CODE     ---       #321
      ---         BLOCKEND  ---      ---       LVL=0

      01000AE0H   BLOCK     CODE     ---       LVL=0
      01000AE0H   LINE      CODE     ---       #326
      01000AE0H   LINE      CODE     ---       #327
      01000AE4H   LINE      CODE     ---       #328
      01000AE6H   LINE      CODE     ---       #331
      01000AE8H   LINE      CODE     ---       #332
      01000AEAH   LINE      CODE     ---       #333
      ---         BLOCKEND  ---      ---       LVL=0

      0100075AH   BLOCK     CODE     ---       LVL=0
      00000007H   SYMBOL    DATA     BYTE      cycle
      0100075AH   LINE      CODE     ---       #337
      0100075AH   LINE      CODE     ---       #338
      0100075AH   LINE      CODE     ---       #339
      0100075FH   LINE      CODE     ---       #340
      0100075FH   LINE      CODE     ---       #341
      01000762H   LINE      CODE     ---       #344
      01000764H   LINE      CODE     ---       #345
      01000766H   LINE      CODE     ---       #346
      01000768H   LINE      CODE     ---       #347
      0100076FH   LINE      CODE     ---       #350
      0100076FH   LINE      CODE     ---       #351
      0100076FH   LINE      CODE     ---       #352
      01000771H   LINE      CODE     ---       #353
      01000775H   LINE      CODE     ---       #356
      01000775H   LINE      CODE     ---       #357
      01000775H   LINE      CODE     ---       #358
      01000777H   LINE      CODE     ---       #359
      0100077BH   LINE      CODE     ---       #362
      0100077BH   LINE      CODE     ---       #363
      0100077BH   LINE      CODE     ---       #364
      0100077DH   LINE      CODE     ---       #365
      01000781H   LINE      CODE     ---       #368
      01000781H   LINE      CODE     ---       #369
      01000781H   LINE      CODE     ---       #370
      01000783H   LINE      CODE     ---       #371
      01000787H   LINE      CODE     ---       #374
      01000787H   LINE      CODE     ---       #375
      01000787H   LINE      CODE     ---       #376
      01000789H   LINE      CODE     ---       #377
      0100078DH   LINE      CODE     ---       #380
      0100078DH   LINE      CODE     ---       #381
      0100078DH   LINE      CODE     ---       #382
      0100078FH   LINE      CODE     ---       #383
      01000793H   LINE      CODE     ---       #386
      01000793H   LINE      CODE     ---       #387
      01000793H   LINE      CODE     ---       #388
      01000795H   LINE      CODE     ---       #389
      01000799H   LINE      CODE     ---       #392
      0100079BH   LINE      CODE     ---       #393
      0100079DH   LINE      CODE     ---       #394
      0100079FH   LINE      CODE     ---       #395
      010007A3H   LINE      CODE     ---       #398
      010007A5H   LINE      CODE     ---       #399
      010007A7H   LINE      CODE     ---       #400
      010007A9H   LINE      CODE     ---       #401
      010007ADH   LINE      CODE     ---       #404
      010007AFH   LINE      CODE     ---       #405
      010007B1H   LINE      CODE     ---       #406
LX51 LINKER/LOCATER V4.66.1.0                                                         09/07/2015  13:09:22  PAGE 22


      010007B5H   LINE      CODE     ---       #409
      010007B5H   LINE      CODE     ---       #410
      010007B5H   LINE      CODE     ---       #411
      010007B8H   LINE      CODE     ---       #412
      010007B8H   LINE      CODE     ---       #419
      010007B8H   LINE      CODE     ---       #420
      010007B8H   LINE      CODE     ---       #426
      010007BEH   LINE      CODE     ---       #427
      010007BEH   LINE      CODE     ---       #428
      010007C0H   LINE      CODE     ---       #429
      010007C0H   LINE      CODE     ---       #430
      010007C0H   LINE      CODE     ---       #431
      ---         BLOCKEND  ---      ---       LVL=0

      01000A6CH   BLOCK     CODE     ---       LVL=0
      01000A6CH   LINE      CODE     ---       #435
      01000A6CH   LINE      CODE     ---       #436
      01000A70H   LINE      CODE     ---       #437
      01000A72H   LINE      CODE     ---       #438
      01000A74H   LINE      CODE     ---       #439
      01000A79H   LINE      CODE     ---       #442
      01000A7BH   LINE      CODE     ---       #443
      01000A7DH   LINE      CODE     ---       #444
      ---         BLOCKEND  ---      ---       LVL=0

      010008B4H   BLOCK     CODE     ---       LVL=0
      00000007H   SYMBOL    DATA     BYTE      cycle
      010008B4H   LINE      CODE     ---       #447
      010008B4H   LINE      CODE     ---       #448
      010008B4H   LINE      CODE     ---       #449
      010008B9H   LINE      CODE     ---       #450
      010008B9H   LINE      CODE     ---       #451
      010008BCH   LINE      CODE     ---       #454
      010008BEH   LINE      CODE     ---       #455
      010008C0H   LINE      CODE     ---       #456
      010008C2H   LINE      CODE     ---       #469
      010008C8H   LINE      CODE     ---       #472
      010008CAH   LINE      CODE     ---       #473
      010008CCH   LINE      CODE     ---       #474
      010008CCH   LINE      CODE     ---       #476
      010008CCH   LINE      CODE     ---       #477
      010008CCH   LINE      CODE     ---       #479
      010008D2H   LINE      CODE     ---       #480
      010008D2H   LINE      CODE     ---       #481
      010008D4H   LINE      CODE     ---       #482
      010008D6H   LINE      CODE     ---       #483
      010008DBH   LINE      CODE     ---       #484
      010008DEH   LINE      CODE     ---       #485
      010008DEH   LINE      CODE     ---       #486
      010008E1H   LINE      CODE     ---       #487
      010008E6H   LINE      CODE     ---       #488
      010008E6H   LINE      CODE     ---       #489
      010008EBH   LINE      CODE     ---       #490
      010008EEH   LINE      CODE     ---       #491
      010008EEH   LINE      CODE     ---       #493
      010008EEH   LINE      CODE     ---       #494
      010008EEH   LINE      CODE     ---       #495
      010008EEH   LINE      CODE     ---       #496
      ---         BLOCKEND  ---      ---       LVL=0

      01000AEBH   BLOCK     CODE     ---       LVL=0
      01000AEBH   LINE      CODE     ---       #499
      01000AEBH   LINE      CODE     ---       #500
      01000AEFH   LINE      CODE     ---       #501
      01000AF1H   LINE      CODE     ---       #504
LX51 LINKER/LOCATER V4.66.1.0                                                         09/07/2015  13:09:22  PAGE 23


      01000AF3H   LINE      CODE     ---       #505
      01000AF5H   LINE      CODE     ---       #506
      ---         BLOCKEND  ---      ---       LVL=0

      0100060FH   BLOCK     CODE     ---       LVL=0
      00000007H   SYMBOL    DATA     BYTE      cycle
      0100060FH   LINE      CODE     ---       #510
      0100060FH   LINE      CODE     ---       #511
      01000614H   LINE      CODE     ---       #512
      01000614H   LINE      CODE     ---       #513
      01000617H   LINE      CODE     ---       #516
      01000617H   LINE      CODE     ---       #517
      01000617H   LINE      CODE     ---       #518
      01000619H   LINE      CODE     ---       #519
      01000620H   LINE      CODE     ---       #522
      01000620H   LINE      CODE     ---       #523
      01000620H   LINE      CODE     ---       #524
      01000622H   LINE      CODE     ---       #525
      01000626H   LINE      CODE     ---       #528
      01000626H   LINE      CODE     ---       #529
      01000626H   LINE      CODE     ---       #530
      01000628H   LINE      CODE     ---       #531
      0100062CH   LINE      CODE     ---       #534
      0100062CH   LINE      CODE     ---       #535
      0100062CH   LINE      CODE     ---       #536
      0100062EH   LINE      CODE     ---       #537
      01000632H   LINE      CODE     ---       #540
      01000632H   LINE      CODE     ---       #541
      01000632H   LINE      CODE     ---       #542
      01000634H   LINE      CODE     ---       #543
      01000638H   LINE      CODE     ---       #546
      0100063AH   LINE      CODE     ---       #547
      0100063CH   LINE      CODE     ---       #548
      0100063EH   LINE      CODE     ---       #549
      01000642H   LINE      CODE     ---       #552
      01000642H   LINE      CODE     ---       #553
      01000642H   LINE      CODE     ---       #554
      01000644H   LINE      CODE     ---       #555
      01000648H   LINE      CODE     ---       #558
      01000648H   LINE      CODE     ---       #559
      01000648H   LINE      CODE     ---       #560
      0100064AH   LINE      CODE     ---       #561
      0100064EH   LINE      CODE     ---       #564
      0100064EH   LINE      CODE     ---       #565
      0100064EH   LINE      CODE     ---       #566
      01000650H   LINE      CODE     ---       #567
      01000654H   LINE      CODE     ---       #570
      01000654H   LINE      CODE     ---       #571
      01000654H   LINE      CODE     ---       #572
      01000656H   LINE      CODE     ---       #573
      0100065AH   LINE      CODE     ---       #576
      0100065AH   LINE      CODE     ---       #577
      0100065AH   LINE      CODE     ---       #578
      0100065CH   LINE      CODE     ---       #579
      01000660H   LINE      CODE     ---       #582
      01000662H   LINE      CODE     ---       #583
      01000664H   LINE      CODE     ---       #584
      01000666H   LINE      CODE     ---       #585
      0100066AH   LINE      CODE     ---       #588
      0100066CH   LINE      CODE     ---       #589
      0100066EH   LINE      CODE     ---       #590
      01000670H   LINE      CODE     ---       #591
      01000674H   LINE      CODE     ---       #594
      01000676H   LINE      CODE     ---       #595
      01000678H   LINE      CODE     ---       #596
LX51 LINKER/LOCATER V4.66.1.0                                                         09/07/2015  13:09:22  PAGE 24


      0100067CH   LINE      CODE     ---       #599
      0100067CH   LINE      CODE     ---       #600
      0100067CH   LINE      CODE     ---       #601
      0100067FH   LINE      CODE     ---       #602
      0100067FH   LINE      CODE     ---       #609
      0100067FH   LINE      CODE     ---       #610
      0100067FH   LINE      CODE     ---       #611
      01000685H   LINE      CODE     ---       #613
      01000685H   LINE      CODE     ---       #614
      01000687H   LINE      CODE     ---       #616
      01000687H   LINE      CODE     ---       #617
      01000687H   LINE      CODE     ---       #618
      ---         BLOCKEND  ---      ---       LVL=0

      01000AF6H   BLOCK     CODE     ---       LVL=0
      01000AF6H   LINE      CODE     ---       #622
      01000AF6H   LINE      CODE     ---       #625
      01000AF8H   LINE      CODE     ---       #626
      01000AFAH   LINE      CODE     ---       #627
      01000AFAH   LINE      CODE     ---       #628
      01000AFAH   LINE      CODE     ---       #629
      01000AFDH   LINE      CODE     ---       #630
      ---         BLOCKEND  ---      ---       LVL=0

      0100098CH   BLOCK     CODE     ---       LVL=0
      00000007H   SYMBOL    DATA     BYTE      cycle
      0100098CH   LINE      CODE     ---       #634
      0100098CH   LINE      CODE     ---       #636
      01000991H   LINE      CODE     ---       #637
      01000991H   LINE      CODE     ---       #638
      01000994H   LINE      CODE     ---       #641
      01000996H   LINE      CODE     ---       #642
      01000998H   LINE      CODE     ---       #643
      0100099AH   LINE      CODE     ---       #644
      010009A1H   LINE      CODE     ---       #647
      010009A3H   LINE      CODE     ---       #648
      010009A5H   LINE      CODE     ---       #649
      010009A9H   LINE      CODE     ---       #652
      010009A9H   LINE      CODE     ---       #653
      010009A9H   LINE      CODE     ---       #654
      010009ACH   LINE      CODE     ---       #655
      010009ACH   LINE      CODE     ---       #662
      010009ACH   LINE      CODE     ---       #663
      010009ACH   LINE      CODE     ---       #664
      010009B2H   LINE      CODE     ---       #666
      010009B2H   LINE      CODE     ---       #667
      010009B4H   LINE      CODE     ---       #669
      010009B4H   LINE      CODE     ---       #670
      010009B4H   LINE      CODE     ---       #671
      ---         BLOCKEND  ---      ---       LVL=0

      01000B19H   BLOCK     CODE     ---       LVL=0
      01000B19H   LINE      CODE     ---       #676
      01000B19H   LINE      CODE     ---       #677
      01000B19H   LINE      CODE     ---       #678
      01000B19H   LINE      CODE     ---       #679
      01000B19H   LINE      CODE     ---       #682
      01000B1CH   LINE      CODE     ---       #683
      01000B1EH   LINE      CODE     ---       #684
      ---         BLOCKEND  ---      ---       LVL=0

      01000688H   BLOCK     CODE     ---       LVL=0
      00000007H   SYMBOL    DATA     BYTE      cycle
      01000688H   LINE      CODE     ---       #688
      01000688H   LINE      CODE     ---       #690
LX51 LINKER/LOCATER V4.66.1.0                                                         09/07/2015  13:09:22  PAGE 25


      0100068DH   LINE      CODE     ---       #691
      0100068DH   LINE      CODE     ---       #692
      01000690H   LINE      CODE     ---       #695
      01000690H   LINE      CODE     ---       #696
      01000690H   LINE      CODE     ---       #697
      01000692H   LINE      CODE     ---       #698
      01000699H   LINE      CODE     ---       #701
      01000699H   LINE      CODE     ---       #702
      01000699H   LINE      CODE     ---       #703
      0100069BH   LINE      CODE     ---       #704
      0100069FH   LINE      CODE     ---       #707
      0100069FH   LINE      CODE     ---       #708
      0100069FH   LINE      CODE     ---       #709
      010006A1H   LINE      CODE     ---       #710
      010006A5H   LINE      CODE     ---       #713
      010006A5H   LINE      CODE     ---       #714
      010006A5H   LINE      CODE     ---       #715
      010006A7H   LINE      CODE     ---       #716
      010006ABH   LINE      CODE     ---       #719
      010006ABH   LINE      CODE     ---       #720
      010006ABH   LINE      CODE     ---       #721
      010006ADH   LINE      CODE     ---       #722
      010006B1H   LINE      CODE     ---       #725
      010006B1H   LINE      CODE     ---       #726
      010006B1H   LINE      CODE     ---       #727
      010006B3H   LINE      CODE     ---       #728
      010006B7H   LINE      CODE     ---       #731
      010006B7H   LINE      CODE     ---       #732
      010006B7H   LINE      CODE     ---       #733
      010006B9H   LINE      CODE     ---       #734
      010006BDH   LINE      CODE     ---       #737
      010006BDH   LINE      CODE     ---       #738
      010006BDH   LINE      CODE     ---       #739
      010006BFH   LINE      CODE     ---       #740
      010006C3H   LINE      CODE     ---       #743
      010006C3H   LINE      CODE     ---       #744
      010006C3H   LINE      CODE     ---       #745
      010006C5H   LINE      CODE     ---       #746
      010006C9H   LINE      CODE     ---       #749
      010006CBH   LINE      CODE     ---       #750
      010006CDH   LINE      CODE     ---       #751
      010006CFH   LINE      CODE     ---       #752
      010006D3H   LINE      CODE     ---       #755
      010006D5H   LINE      CODE     ---       #756
      010006D7H   LINE      CODE     ---       #757
      010006D9H   LINE      CODE     ---       #758
      010006DDH   LINE      CODE     ---       #761
      010006DFH   LINE      CODE     ---       #762
      010006E1H   LINE      CODE     ---       #763
      010006E5H   LINE      CODE     ---       #766
      010006E5H   LINE      CODE     ---       #767
      010006E5H   LINE      CODE     ---       #768
      010006E8H   LINE      CODE     ---       #769
      010006E8H   LINE      CODE     ---       #776
      010006E8H   LINE      CODE     ---       #777
      010006E8H   LINE      CODE     ---       #778
      010006EEH   LINE      CODE     ---       #780
      010006EEH   LINE      CODE     ---       #781
      010006F0H   LINE      CODE     ---       #783
      010006F0H   LINE      CODE     ---       #784
      010006F0H   LINE      CODE     ---       #785
      ---         BLOCKEND  ---      ---       LVL=0

      01000B1FH   BLOCK     CODE     ---       LVL=0
      01000B1FH   LINE      CODE     ---       #789
LX51 LINKER/LOCATER V4.66.1.0                                                         09/07/2015  13:09:22  PAGE 26


      01000B1FH   LINE      CODE     ---       #790
      01000B1FH   LINE      CODE     ---       #791
      01000B1FH   LINE      CODE     ---       #792
      01000B1FH   LINE      CODE     ---       #795
      01000B22H   LINE      CODE     ---       #796
      01000B24H   LINE      CODE     ---       #797
      ---         BLOCKEND  ---      ---       LVL=0

      010009B5H   BLOCK     CODE     ---       LVL=0
      00000007H   SYMBOL    DATA     BYTE      cycle
      010009B5H   LINE      CODE     ---       #801
      010009B5H   LINE      CODE     ---       #803
      010009BAH   LINE      CODE     ---       #804
      010009BAH   LINE      CODE     ---       #805
      010009BDH   LINE      CODE     ---       #808
      010009BFH   LINE      CODE     ---       #809
      010009C1H   LINE      CODE     ---       #810
      010009C3H   LINE      CODE     ---       #811
      010009CAH   LINE      CODE     ---       #814
      010009CCH   LINE      CODE     ---       #815
      010009CEH   LINE      CODE     ---       #816
      010009D2H   LINE      CODE     ---       #819
      010009D2H   LINE      CODE     ---       #820
      010009D2H   LINE      CODE     ---       #821
      010009D5H   LINE      CODE     ---       #822
      010009D5H   LINE      CODE     ---       #829
      010009D5H   LINE      CODE     ---       #830
      010009D5H   LINE      CODE     ---       #831
      010009DBH   LINE      CODE     ---       #833
      010009DBH   LINE      CODE     ---       #834
      010009DDH   LINE      CODE     ---       #836
      010009DDH   LINE      CODE     ---       #837
      010009DDH   LINE      CODE     ---       #838
      ---         BLOCKEND  ---      ---       LVL=0

      01000B25H   BLOCK     CODE     ---       LVL=0
      01000B25H   LINE      CODE     ---       #843
      01000B25H   LINE      CODE     ---       #844
      01000B25H   LINE      CODE     ---       #845
      01000B25H   LINE      CODE     ---       #846
      01000B25H   LINE      CODE     ---       #847
      01000B25H   LINE      CODE     ---       #850
      01000B28H   LINE      CODE     ---       #851
      01000B2AH   LINE      CODE     ---       #852
      ---         BLOCKEND  ---      ---       LVL=0

      010008EFH   BLOCK     CODE     ---       LVL=0
      00000007H   SYMBOL    DATA     BYTE      cycle
      010008EFH   LINE      CODE     ---       #855
      010008EFH   LINE      CODE     ---       #856
      010008EFH   LINE      CODE     ---       #857
      010008F4H   LINE      CODE     ---       #858
      010008F4H   LINE      CODE     ---       #859
      010008F7H   LINE      CODE     ---       #862
      010008F7H   LINE      CODE     ---       #863
      010008F7H   LINE      CODE     ---       #864
      010008F9H   LINE      CODE     ---       #865
      01000900H   LINE      CODE     ---       #868
      01000902H   LINE      CODE     ---       #869
      01000904H   LINE      CODE     ---       #870
      01000906H   LINE      CODE     ---       #871
      0100090AH   LINE      CODE     ---       #874
      0100090CH   LINE      CODE     ---       #875
      0100090EH   LINE      CODE     ---       #876
      01000910H   LINE      CODE     ---       #877
LX51 LINKER/LOCATER V4.66.1.0                                                         09/07/2015  13:09:22  PAGE 27


      01000914H   LINE      CODE     ---       #880
      01000916H   LINE      CODE     ---       #881
      01000918H   LINE      CODE     ---       #882
      0100091CH   LINE      CODE     ---       #885
      0100091CH   LINE      CODE     ---       #886
      0100091CH   LINE      CODE     ---       #887
      0100091FH   LINE      CODE     ---       #888
      0100091FH   LINE      CODE     ---       #895
      0100091FH   LINE      CODE     ---       #896
      0100091FH   LINE      CODE     ---       #897
      01000925H   LINE      CODE     ---       #899
      01000925H   LINE      CODE     ---       #900
      01000927H   LINE      CODE     ---       #902
      01000927H   LINE      CODE     ---       #904
      01000927H   LINE      CODE     ---       #905
      ---         BLOCKEND  ---      ---       LVL=0

      01000B2BH   BLOCK     CODE     ---       LVL=0
      01000B2BH   LINE      CODE     ---       #910
      01000B2BH   LINE      CODE     ---       #911
      01000B2BH   LINE      CODE     ---       #912
      01000B2BH   LINE      CODE     ---       #913
      01000B2BH   LINE      CODE     ---       #916
      01000B2EH   LINE      CODE     ---       #917
      01000B30H   LINE      CODE     ---       #918
      ---         BLOCKEND  ---      ---       LVL=0

      01000434H   BLOCK     CODE     ---       LVL=0
      00000007H   SYMBOL    DATA     BYTE      cycle
      01000434H   LINE      CODE     ---       #922
      01000434H   LINE      CODE     ---       #924
      0100043CH   LINE      CODE     ---       #925
      0100043CH   LINE      CODE     ---       #926
      0100043FH   LINE      CODE     ---       #929
      0100043FH   LINE      CODE     ---       #930
      0100043FH   LINE      CODE     ---       #931
      01000442H   LINE      CODE     ---       #932
      01000449H   LINE      CODE     ---       #935
      01000449H   LINE      CODE     ---       #936
      01000449H   LINE      CODE     ---       #937
      0100044BH   LINE      CODE     ---       #938
      0100044FH   LINE      CODE     ---       #941
      0100044FH   LINE      CODE     ---       #942
      0100044FH   LINE      CODE     ---       #943
      01000451H   LINE      CODE     ---       #944
      01000455H   LINE      CODE     ---       #947
      01000455H   LINE      CODE     ---       #948
      01000455H   LINE      CODE     ---       #949
      01000457H   LINE      CODE     ---       #950
      0100045BH   LINE      CODE     ---       #953
      0100045BH   LINE      CODE     ---       #954
      0100045BH   LINE      CODE     ---       #955
      0100045DH   LINE      CODE     ---       #956
      01000461H   LINE      CODE     ---       #959
      01000463H   LINE      CODE     ---       #960
      01000465H   LINE      CODE     ---       #961
      01000467H   LINE      CODE     ---       #962
      0100046BH   LINE      CODE     ---       #965
      0100046BH   LINE      CODE     ---       #966
      0100046BH   LINE      CODE     ---       #967
      0100046DH   LINE      CODE     ---       #968
      01000471H   LINE      CODE     ---       #971
      01000471H   LINE      CODE     ---       #972
      01000471H   LINE      CODE     ---       #973
      01000473H   LINE      CODE     ---       #974
LX51 LINKER/LOCATER V4.66.1.0                                                         09/07/2015  13:09:22  PAGE 28


      01000477H   LINE      CODE     ---       #977
      01000477H   LINE      CODE     ---       #978
      01000477H   LINE      CODE     ---       #979
      01000479H   LINE      CODE     ---       #980
      0100047DH   LINE      CODE     ---       #983
      0100047DH   LINE      CODE     ---       #984
      0100047DH   LINE      CODE     ---       #985
      0100047FH   LINE      CODE     ---       #986
      01000483H   LINE      CODE     ---       #989
      01000483H   LINE      CODE     ---       #990
      01000483H   LINE      CODE     ---       #991
      01000485H   LINE      CODE     ---       #992
      01000489H   LINE      CODE     ---       #995
      01000489H   LINE      CODE     ---       #996
      01000489H   LINE      CODE     ---       #997
      0100048BH   LINE      CODE     ---       #998
      0100048FH   LINE      CODE     ---       #1001
      01000491H   LINE      CODE     ---       #1002
      01000493H   LINE      CODE     ---       #1003
      01000495H   LINE      CODE     ---       #1004
      01000499H   LINE      CODE     ---       #1007
      01000499H   LINE      CODE     ---       #1008
      01000499H   LINE      CODE     ---       #1009
      0100049BH   LINE      CODE     ---       #1010
      0100049FH   LINE      CODE     ---       #1013
      0100049FH   LINE      CODE     ---       #1014
      0100049FH   LINE      CODE     ---       #1015
      010004A1H   LINE      CODE     ---       #1016
      010004A5H   LINE      CODE     ---       #1019
      010004A5H   LINE      CODE     ---       #1020
      010004A5H   LINE      CODE     ---       #1021
      010004A7H   LINE      CODE     ---       #1022
      010004ABH   LINE      CODE     ---       #1025
      010004ABH   LINE      CODE     ---       #1026
      010004ABH   LINE      CODE     ---       #1027
      010004ADH   LINE      CODE     ---       #1028
      010004B1H   LINE      CODE     ---       #1031
      010004B1H   LINE      CODE     ---       #1032
      010004B1H   LINE      CODE     ---       #1033
      010004B3H   LINE      CODE     ---       #1034
      010004B7H   LINE      CODE     ---       #1037
      010004B7H   LINE      CODE     ---       #1038
      010004B7H   LINE      CODE     ---       #1039
      010004B9H   LINE      CODE     ---       #1040
      010004BDH   LINE      CODE     ---       #1043
      010004BDH   LINE      CODE     ---       #1044
      010004BDH   LINE      CODE     ---       #1045
      010004BFH   LINE      CODE     ---       #1046
      010004C3H   LINE      CODE     ---       #1049
      010004C5H   LINE      CODE     ---       #1050
      010004C7H   LINE      CODE     ---       #1051
      010004C9H   LINE      CODE     ---       #1052
      010004CDH   LINE      CODE     ---       #1055
      010004CFH   LINE      CODE     ---       #1056
      010004D1H   LINE      CODE     ---       #1057
      010004D3H   LINE      CODE     ---       #1058
      010004D7H   LINE      CODE     ---       #1061
      010004D9H   LINE      CODE     ---       #1062
      010004DBH   LINE      CODE     ---       #1063
      010004DFH   LINE      CODE     ---       #1066
      010004DFH   LINE      CODE     ---       #1067
      010004DFH   LINE      CODE     ---       #1068
      010004E2H   LINE      CODE     ---       #1069
      010004E2H   LINE      CODE     ---       #1076
      010004E2H   LINE      CODE     ---       #1077
LX51 LINKER/LOCATER V4.66.1.0                                                         09/07/2015  13:09:22  PAGE 29


      010004E2H   LINE      CODE     ---       #1078
      010004E8H   LINE      CODE     ---       #1080
      010004E8H   LINE      CODE     ---       #1081
      010004EAH   LINE      CODE     ---       #1083
      010004EAH   LINE      CODE     ---       #1084
      010004EAH   LINE      CODE     ---       #1085
      ---         BLOCKEND  ---      ---       LVL=0

      01000B31H   BLOCK     CODE     ---       LVL=0
      01000B31H   LINE      CODE     ---       #1090
      01000B31H   LINE      CODE     ---       #1091
      01000B31H   LINE      CODE     ---       #1092
      01000B31H   LINE      CODE     ---       #1093
      01000B31H   LINE      CODE     ---       #1096
      01000B34H   LINE      CODE     ---       #1097
      01000B36H   LINE      CODE     ---       #1098
      ---         BLOCKEND  ---      ---       LVL=0

      01000371H   BLOCK     CODE     ---       LVL=0
      00000007H   SYMBOL    DATA     BYTE      cycle
      01000371H   LINE      CODE     ---       #1101
      01000371H   LINE      CODE     ---       #1102
      01000379H   LINE      CODE     ---       #1103
      0100037CH   LINE      CODE     ---       #1106
      0100037CH   LINE      CODE     ---       #1107
      0100037CH   LINE      CODE     ---       #1108
      0100037EH   LINE      CODE     ---       #1109
      01000385H   LINE      CODE     ---       #1112
      01000385H   LINE      CODE     ---       #1113
      01000385H   LINE      CODE     ---       #1114
      01000387H   LINE      CODE     ---       #1115
      0100038BH   LINE      CODE     ---       #1118
      0100038BH   LINE      CODE     ---       #1119
      0100038BH   LINE      CODE     ---       #1120
      0100038EH   LINE      CODE     ---       #1121
      01000392H   LINE      CODE     ---       #1124
      01000392H   LINE      CODE     ---       #1125
      01000392H   LINE      CODE     ---       #1126
      01000394H   LINE      CODE     ---       #1127
      01000398H   LINE      CODE     ---       #1130
      01000398H   LINE      CODE     ---       #1131
      01000398H   LINE      CODE     ---       #1132
      0100039AH   LINE      CODE     ---       #1133
      0100039EH   LINE      CODE     ---       #1136
      0100039EH   LINE      CODE     ---       #1137
      0100039EH   LINE      CODE     ---       #1138
      010003A0H   LINE      CODE     ---       #1139
      010003A4H   LINE      CODE     ---       #1142
      010003A4H   LINE      CODE     ---       #1143
      010003A4H   LINE      CODE     ---       #1144
      010003A6H   LINE      CODE     ---       #1145
      010003AAH   LINE      CODE     ---       #1148
      010003ACH   LINE      CODE     ---       #1149
      010003AEH   LINE      CODE     ---       #1150
      010003B0H   LINE      CODE     ---       #1151
      010003B4H   LINE      CODE     ---       #1154
      010003B4H   LINE      CODE     ---       #1155
      010003B4H   LINE      CODE     ---       #1156
      010003B6H   LINE      CODE     ---       #1157
      010003BAH   LINE      CODE     ---       #1160
      010003BAH   LINE      CODE     ---       #1161
      010003BAH   LINE      CODE     ---       #1162
      010003BCH   LINE      CODE     ---       #1163
      010003C0H   LINE      CODE     ---       #1166
      010003C0H   LINE      CODE     ---       #1167
LX51 LINKER/LOCATER V4.66.1.0                                                         09/07/2015  13:09:22  PAGE 30


      010003C0H   LINE      CODE     ---       #1168
      010003C2H   LINE      CODE     ---       #1169
      010003C6H   LINE      CODE     ---       #1172
      010003C6H   LINE      CODE     ---       #1173
      010003C6H   LINE      CODE     ---       #1174
      010003C8H   LINE      CODE     ---       #1175
      010003CCH   LINE      CODE     ---       #1178
      010003CCH   LINE      CODE     ---       #1179
      010003CCH   LINE      CODE     ---       #1180
      010003CEH   LINE      CODE     ---       #1181
      010003D2H   LINE      CODE     ---       #1184
      010003D2H   LINE      CODE     ---       #1185
      010003D2H   LINE      CODE     ---       #1186
      010003D4H   LINE      CODE     ---       #1187
      010003D8H   LINE      CODE     ---       #1190
      010003DAH   LINE      CODE     ---       #1191
      010003DCH   LINE      CODE     ---       #1192
      010003DEH   LINE      CODE     ---       #1193
      010003E2H   LINE      CODE     ---       #1196
      010003E2H   LINE      CODE     ---       #1197
      010003E2H   LINE      CODE     ---       #1198
      010003E4H   LINE      CODE     ---       #1199
      010003E8H   LINE      CODE     ---       #1202
      010003E8H   LINE      CODE     ---       #1203
      010003E8H   LINE      CODE     ---       #1204
      010003EAH   LINE      CODE     ---       #1205
      010003EEH   LINE      CODE     ---       #1208
      010003EEH   LINE      CODE     ---       #1209
      010003EEH   LINE      CODE     ---       #1210
      010003F0H   LINE      CODE     ---       #1211
      010003F4H   LINE      CODE     ---       #1214
      010003F4H   LINE      CODE     ---       #1215
      010003F4H   LINE      CODE     ---       #1216
      010003F6H   LINE      CODE     ---       #1217
      010003FAH   LINE      CODE     ---       #1220
      010003FAH   LINE      CODE     ---       #1221
      010003FAH   LINE      CODE     ---       #1222
      010003FCH   LINE      CODE     ---       #1223
      01000400H   LINE      CODE     ---       #1226
      01000400H   LINE      CODE     ---       #1227
      01000400H   LINE      CODE     ---       #1228
      01000402H   LINE      CODE     ---       #1229
      01000406H   LINE      CODE     ---       #1232
      01000406H   LINE      CODE     ---       #1233
      01000406H   LINE      CODE     ---       #1234
      01000408H   LINE      CODE     ---       #1235
      0100040CH   LINE      CODE     ---       #1238
      0100040EH   LINE      CODE     ---       #1239
      01000410H   LINE      CODE     ---       #1240
      01000412H   LINE      CODE     ---       #1241
      01000416H   LINE      CODE     ---       #1244
      01000418H   LINE      CODE     ---       #1245
      0100041AH   LINE      CODE     ---       #1246
      0100041CH   LINE      CODE     ---       #1247
      01000420H   LINE      CODE     ---       #1250
      01000422H   LINE      CODE     ---       #1251
      01000424H   LINE      CODE     ---       #1252
      01000428H   LINE      CODE     ---       #1255
      01000428H   LINE      CODE     ---       #1256
      01000428H   LINE      CODE     ---       #1257
      0100042BH   LINE      CODE     ---       #1258
      0100042BH   LINE      CODE     ---       #1265
      0100042BH   LINE      CODE     ---       #1266
      0100042BH   LINE      CODE     ---       #1267
      01000431H   LINE      CODE     ---       #1269
LX51 LINKER/LOCATER V4.66.1.0                                                         09/07/2015  13:09:22  PAGE 31


      01000431H   LINE      CODE     ---       #1270
      01000433H   LINE      CODE     ---       #1272
      01000433H   LINE      CODE     ---       #1273
      01000433H   LINE      CODE     ---       #1274
      ---         BLOCKEND  ---      ---       LVL=0

      01000B37H   BLOCK     CODE     ---       LVL=0
      01000B37H   LINE      CODE     ---       #1279
      01000B37H   LINE      CODE     ---       #1280
      01000B37H   LINE      CODE     ---       #1281
      01000B37H   LINE      CODE     ---       #1282
      01000B37H   LINE      CODE     ---       #1285
      01000B3AH   LINE      CODE     ---       #1286
      01000B3CH   LINE      CODE     ---       #1287
      ---         BLOCKEND  ---      ---       LVL=0

      010006F1H   BLOCK     CODE     ---       LVL=0
      00000007H   SYMBOL    DATA     BYTE      cycle
      010006F1H   LINE      CODE     ---       #1290
      010006F1H   LINE      CODE     ---       #1291
      010006F6H   LINE      CODE     ---       #1292
      010006F9H   LINE      CODE     ---       #1295
      010006F9H   LINE      CODE     ---       #1296
      010006F9H   LINE      CODE     ---       #1297
      010006FBH   LINE      CODE     ---       #1298
      01000702H   LINE      CODE     ---       #1301
      01000702H   LINE      CODE     ---       #1302
      01000702H   LINE      CODE     ---       #1303
      01000704H   LINE      CODE     ---       #1304
      01000708H   LINE      CODE     ---       #1307
      01000708H   LINE      CODE     ---       #1308
      01000708H   LINE      CODE     ---       #1309
      0100070AH   LINE      CODE     ---       #1310
      0100070EH   LINE      CODE     ---       #1313
      0100070EH   LINE      CODE     ---       #1314
      0100070EH   LINE      CODE     ---       #1315
      01000710H   LINE      CODE     ---       #1316
      01000714H   LINE      CODE     ---       #1319
      01000714H   LINE      CODE     ---       #1320
      01000714H   LINE      CODE     ---       #1321
      01000716H   LINE      CODE     ---       #1322
      0100071AH   LINE      CODE     ---       #1325
      0100071AH   LINE      CODE     ---       #1326
      0100071AH   LINE      CODE     ---       #1327
      0100071CH   LINE      CODE     ---       #1328
      01000720H   LINE      CODE     ---       #1331
      01000720H   LINE      CODE     ---       #1332
      01000720H   LINE      CODE     ---       #1333
      01000722H   LINE      CODE     ---       #1334
      01000726H   LINE      CODE     ---       #1337
      01000726H   LINE      CODE     ---       #1338
      01000726H   LINE      CODE     ---       #1339
      01000728H   LINE      CODE     ---       #1340
      0100072CH   LINE      CODE     ---       #1343
      0100072CH   LINE      CODE     ---       #1344
      0100072CH   LINE      CODE     ---       #1345
      0100072EH   LINE      CODE     ---       #1346
      01000732H   LINE      CODE     ---       #1349
      01000734H   LINE      CODE     ---       #1350
      01000736H   LINE      CODE     ---       #1351
      01000738H   LINE      CODE     ---       #1352
      0100073CH   LINE      CODE     ---       #1355
      0100073EH   LINE      CODE     ---       #1356
      01000740H   LINE      CODE     ---       #1357
      01000742H   LINE      CODE     ---       #1358
LX51 LINKER/LOCATER V4.66.1.0                                                         09/07/2015  13:09:22  PAGE 32


      01000746H   LINE      CODE     ---       #1361
      01000748H   LINE      CODE     ---       #1362
      0100074AH   LINE      CODE     ---       #1363
      0100074EH   LINE      CODE     ---       #1366
      0100074EH   LINE      CODE     ---       #1367
      0100074EH   LINE      CODE     ---       #1368
      01000751H   LINE      CODE     ---       #1369
      01000751H   LINE      CODE     ---       #1376
      01000751H   LINE      CODE     ---       #1377
      01000751H   LINE      CODE     ---       #1378
      01000757H   LINE      CODE     ---       #1380
      01000757H   LINE      CODE     ---       #1381
      01000759H   LINE      CODE     ---       #1383
      01000759H   LINE      CODE     ---       #1384
      01000759H   LINE      CODE     ---       #1385
      ---         BLOCKEND  ---      ---       LVL=0

      01000B3DH   BLOCK     CODE     ---       LVL=0
      01000B3DH   LINE      CODE     ---       #1389
      01000B3DH   LINE      CODE     ---       #1390
      01000B3DH   LINE      CODE     ---       #1391
      01000B3DH   LINE      CODE     ---       #1392
      01000B3DH   LINE      CODE     ---       #1395
      01000B40H   LINE      CODE     ---       #1396
      01000B42H   LINE      CODE     ---       #1397
      ---         BLOCKEND  ---      ---       LVL=0

      010009DEH   BLOCK     CODE     ---       LVL=0
      00000007H   SYMBOL    DATA     BYTE      cycle
      010009DEH   LINE      CODE     ---       #1400
      010009DEH   LINE      CODE     ---       #1401
      010009DEH   LINE      CODE     ---       #1402
      010009E3H   LINE      CODE     ---       #1403
      010009E6H   LINE      CODE     ---       #1406
      010009E8H   LINE      CODE     ---       #1407
      010009EAH   LINE      CODE     ---       #1408
      010009ECH   LINE      CODE     ---       #1409
      010009F3H   LINE      CODE     ---       #1412
      010009F5H   LINE      CODE     ---       #1413
      010009F7H   LINE      CODE     ---       #1414
      010009FBH   LINE      CODE     ---       #1417
      010009FBH   LINE      CODE     ---       #1418
      010009FBH   LINE      CODE     ---       #1419
      010009FEH   LINE      CODE     ---       #1420
      010009FEH   LINE      CODE     ---       #1427
      010009FEH   LINE      CODE     ---       #1428
      010009FEH   LINE      CODE     ---       #1429
      01000A04H   LINE      CODE     ---       #1431
      01000A04H   LINE      CODE     ---       #1432
      01000A06H   LINE      CODE     ---       #1434
      01000A06H   LINE      CODE     ---       #1436
      01000A06H   LINE      CODE     ---       #1437
      ---         BLOCKEND  ---      ---       LVL=0

      01000B43H   BLOCK     CODE     ---       LVL=0
      01000B43H   LINE      CODE     ---       #1441
      01000B43H   LINE      CODE     ---       #1442
      01000B43H   LINE      CODE     ---       #1443
      01000B43H   LINE      CODE     ---       #1444
      01000B43H   LINE      CODE     ---       #1447
      01000B46H   LINE      CODE     ---       #1448
      01000B48H   LINE      CODE     ---       #1449
      ---         BLOCKEND  ---      ---       LVL=0

      01000928H   BLOCK     CODE     ---       LVL=0
LX51 LINKER/LOCATER V4.66.1.0                                                         09/07/2015  13:09:22  PAGE 33


      00000007H   SYMBOL    DATA     BYTE      cycle
      01000928H   LINE      CODE     ---       #1452
      01000928H   LINE      CODE     ---       #1453
      0100092DH   LINE      CODE     ---       #1454
      01000930H   LINE      CODE     ---       #1457
      01000930H   LINE      CODE     ---       #1458
      01000930H   LINE      CODE     ---       #1459
      01000932H   LINE      CODE     ---       #1460
      01000939H   LINE      CODE     ---       #1463
      0100093BH   LINE      CODE     ---       #1464
      0100093DH   LINE      CODE     ---       #1465
      0100093FH   LINE      CODE     ---       #1466
      01000943H   LINE      CODE     ---       #1469
      01000945H   LINE      CODE     ---       #1470
      01000947H   LINE      CODE     ---       #1471
      01000949H   LINE      CODE     ---       #1472
      0100094DH   LINE      CODE     ---       #1475
      0100094FH   LINE      CODE     ---       #1476
      01000951H   LINE      CODE     ---       #1477
      01000955H   LINE      CODE     ---       #1480
      01000955H   LINE      CODE     ---       #1481
      01000955H   LINE      CODE     ---       #1482
      01000958H   LINE      CODE     ---       #1483
      01000958H   LINE      CODE     ---       #1490
      01000958H   LINE      CODE     ---       #1491
      01000958H   LINE      CODE     ---       #1492
      0100095EH   LINE      CODE     ---       #1494
      0100095EH   LINE      CODE     ---       #1495
      01000960H   LINE      CODE     ---       #1497
      01000960H   LINE      CODE     ---       #1498
      01000960H   LINE      CODE     ---       #1499
      ---         BLOCKEND  ---      ---       LVL=0

      ---         MODULE    ---      ---       SYNC
      010004EBH   PUBLIC    CODE     ---       tm0_isr
      01000B49H   PUBLIC    CODE     ---       exint0_isr
      01000006H   PUBLIC    CODE     ---       reset_all_counters
      01000B06H   PUBLIC    CODE     ---       init_ac_driver
      01000A57H   PUBLIC    CODE     ---       init_sync_timer
      000000D8H.2 SFRSYM    DATA     BIT       CCF2
      00000092H   SFRSYM    DATA     BYTE      P1M0
      00000093H   SFRSYM    DATA     BYTE      P0M1
      00000096H   SFRSYM    DATA     BYTE      P2M0
      00000091H   SFRSYM    DATA     BYTE      P1M1
      00000080H   SFRSYM    DATA     BYTE      P0
      000000B2H   SFRSYM    DATA     BYTE      P3M0
      00000095H   SFRSYM    DATA     BYTE      P2M1
      00000090H   SFRSYM    DATA     BYTE      P1
      000000B4H   SFRSYM    DATA     BYTE      P4M0
      000000B1H   SFRSYM    DATA     BYTE      P3M1
      000000A0H   SFRSYM    DATA     BYTE      P2
      000000ABH   SFRSYM    DATA     BYTE      WKTCH
      000000CAH   SFRSYM    DATA     BYTE      P5M0
      000000B3H   SFRSYM    DATA     BYTE      P4M1
      000000B0H   SFRSYM    DATA     BYTE      P3
      000000CCH   SFRSYM    DATA     BYTE      P6M0
      000000C9H   SFRSYM    DATA     BYTE      P5M1
      000000C0H   SFRSYM    DATA     BYTE      P4
      000000D0H.6 SFRSYM    DATA     BIT       AC
      000000F6H   SFRSYM    DATA     BYTE      PWMIF
      000000E2H   SFRSYM    DATA     BYTE      P7M0
      000000CBH   SFRSYM    DATA     BYTE      P6M1
      000000C8H   SFRSYM    DATA     BYTE      P5
      000000A8H.7 SFRSYM    DATA     BIT       EA
      000000E1H   SFRSYM    DATA     BYTE      P7M1
LX51 LINKER/LOCATER V4.66.1.0                                                         09/07/2015  13:09:22  PAGE 34


      000000E8H   SFRSYM    DATA     BYTE      P6
      000000AAH   SFRSYM    DATA     BYTE      WKTCL
      000000F8H   SFRSYM    DATA     BYTE      P7
      000000CEH   SFRSYM    DATA     BYTE      SPCTL
      000000D8H.7 SFRSYM    DATA     BIT       CF
      000000F5H   SFRSYM    DATA     BYTE      PWMCR
      000000F9H   SFRSYM    DATA     BYTE      CH
      000000A2H   SFRSYM    DATA     BYTE      P_SW1
      000000BAH   SFRSYM    DATA     BYTE      P_SW2
      000000A8H.5 SFRSYM    DATA     BIT       EADC
      000000A8H   SFRSYM    DATA     BYTE      IE
      000000E9H   SFRSYM    DATA     BYTE      CL
      000000C5H   SFRSYM    DATA     BYTE      IAP_CMD
      000000FAH   SFRSYM    DATA     BYTE      CCAP0H
      000000FBH   SFRSYM    DATA     BYTE      CCAP1H
      000000FCH   SFRSYM    DATA     BYTE      CCAP2H
      000000BDH   SFRSYM    DATA     BYTE      ADC_RES
      000000EAH   SFRSYM    DATA     BYTE      CCAP0L
      000000D8H.6 SFRSYM    DATA     BIT       CR
      000000F7H   SFRSYM    DATA     BYTE      PWMFDCR
      000000EBH   SFRSYM    DATA     BYTE      CCAP1L
      000000DAH   SFRSYM    DATA     BYTE      CCAPM0
      000000ECH   SFRSYM    DATA     BYTE      CCAP2L
      000000DBH   SFRSYM    DATA     BYTE      CCAPM1
      000000DCH   SFRSYM    DATA     BYTE      CCAPM2
      000000A8H.4 SFRSYM    DATA     BIT       ES
      000000B8H.5 SFRSYM    DATA     BIT       PADC
      000000B8H   SFRSYM    DATA     BYTE      IP
      00000098H   SFRSYM    DATA     BIT       RI
      000000B0H.2 SFRSYM    DATA     BIT       INT0
      000000D0H.7 SFRSYM    DATA     BIT       CY
      00000098H.1 SFRSYM    DATA     BIT       TI
      000000B0H.3 SFRSYM    DATA     BIT       INT1
      00000097H   SFRSYM    DATA     BYTE      CLK_DIV
      000000C3H   SFRSYM    DATA     BYTE      IAP_ADDRH
      000000B8H.4 SFRSYM    DATA     BIT       PS
      00000081H   SFRSYM    DATA     BYTE      SP
      000000D9H   SFRSYM    DATA     BYTE      CMOD
      000000D8H   SFRSYM    DATA     BYTE      CCON
      000000C4H   SFRSYM    DATA     BYTE      IAP_ADDRL
      000000B8H.7 SFRSYM    DATA     BIT       PPCA
      000000D0H.2 SFRSYM    DATA     BIT       OV
      000000E6H   SFRSYM    DATA     BYTE      CMPCR1
      000000E7H   SFRSYM    DATA     BYTE      CMPCR2
      000000A8H.6 SFRSYM    DATA     BIT       ELVD
      00000080H   SFRSYM    DATA     BIT       P00
      000000BCH   SFRSYM    DATA     BYTE      ADC_CONTR
      00000099H   SFRSYM    DATA     BYTE      SBUF
      00000087H   SFRSYM    DATA     BYTE      PCON
      00000090H   SFRSYM    DATA     BIT       P10
      00000080H.1 SFRSYM    DATA     BIT       P01
      000000A0H   SFRSYM    DATA     BIT       P20
      00000090H.1 SFRSYM    DATA     BIT       P11
      00000080H.2 SFRSYM    DATA     BIT       P02
      000000B0H   SFRSYM    DATA     BIT       P30
      000000A0H.1 SFRSYM    DATA     BIT       P21
      00000090H.2 SFRSYM    DATA     BIT       P12
      00000080H.3 SFRSYM    DATA     BIT       P03
      00000098H   SFRSYM    DATA     BYTE      SCON
      000000C0H   SFRSYM    DATA     BIT       P40
      000000B0H.1 SFRSYM    DATA     BIT       P31
      000000A0H.2 SFRSYM    DATA     BIT       P22
      00000090H.3 SFRSYM    DATA     BIT       P13
      00000080H.4 SFRSYM    DATA     BIT       P04
      00000089H   SFRSYM    DATA     BYTE      TMOD
LX51 LINKER/LOCATER V4.66.1.0                                                         09/07/2015  13:09:22  PAGE 35


      00000088H   SFRSYM    DATA     BYTE      TCON
      000000C8H   SFRSYM    DATA     BIT       P50
      000000C0H.1 SFRSYM    DATA     BIT       P41
      000000B0H.2 SFRSYM    DATA     BIT       P32
      000000A0H.3 SFRSYM    DATA     BIT       P23
      00000090H.4 SFRSYM    DATA     BIT       P14
      00000080H.5 SFRSYM    DATA     BIT       P05
      000000E8H   SFRSYM    DATA     BIT       P60
      000000C8H.1 SFRSYM    DATA     BIT       P51
      000000C0H.2 SFRSYM    DATA     BIT       P42
      000000B0H.3 SFRSYM    DATA     BIT       P33
      000000A0H.4 SFRSYM    DATA     BIT       P24
      00000090H.5 SFRSYM    DATA     BIT       P15
      00000080H.6 SFRSYM    DATA     BIT       P06
      000000B8H.6 SFRSYM    DATA     BIT       PLVD
      000000F8H   SFRSYM    DATA     BIT       P70
      000000E8H.1 SFRSYM    DATA     BIT       P61
      000000C8H.2 SFRSYM    DATA     BIT       P52
      000000C0H.3 SFRSYM    DATA     BIT       P43
      000000B0H.4 SFRSYM    DATA     BIT       P34
      000000A0H.5 SFRSYM    DATA     BIT       P25
      00000090H.6 SFRSYM    DATA     BIT       P16
      00000080H.7 SFRSYM    DATA     BIT       P07
      000000F8H.1 SFRSYM    DATA     BIT       P71
      000000E8H.2 SFRSYM    DATA     BIT       P62
      000000C8H.3 SFRSYM    DATA     BIT       P53
      000000C0H.4 SFRSYM    DATA     BIT       P44
      000000B0H.5 SFRSYM    DATA     BIT       P35
      000000A0H.6 SFRSYM    DATA     BIT       P26
      00000090H.7 SFRSYM    DATA     BIT       P17
      000000F8H.2 SFRSYM    DATA     BIT       P72
      000000E8H.3 SFRSYM    DATA     BIT       P63
      000000C8H.4 SFRSYM    DATA     BIT       P54
      000000C0H.5 SFRSYM    DATA     BIT       P45
      000000B0H.6 SFRSYM    DATA     BIT       P36
      000000A0H.7 SFRSYM    DATA     BIT       P27
      000000F8H.3 SFRSYM    DATA     BIT       P73
      000000E8H.4 SFRSYM    DATA     BIT       P64
      000000C8H.5 SFRSYM    DATA     BIT       P55
      000000C0H.6 SFRSYM    DATA     BIT       P46
      000000B0H.7 SFRSYM    DATA     BIT       P37
      000000F8H.4 SFRSYM    DATA     BIT       P74
      000000E8H.5 SFRSYM    DATA     BIT       P65
      000000C8H.6 SFRSYM    DATA     BIT       P56
      000000C0H.7 SFRSYM    DATA     BIT       P47
      000000F8H.5 SFRSYM    DATA     BIT       P75
      000000E8H.6 SFRSYM    DATA     BIT       P66
      000000C8H.7 SFRSYM    DATA     BIT       P57
      000000F8H.6 SFRSYM    DATA     BIT       P76
      000000E8H.7 SFRSYM    DATA     BIT       P67
      00000088H.1 SFRSYM    DATA     BIT       IE0
      000000A1H   SFRSYM    DATA     BYTE      BUS_SPEED
      000000F8H.7 SFRSYM    DATA     BIT       P77
      00000088H.3 SFRSYM    DATA     BIT       IE1
      000000AFH   SFRSYM    DATA     BYTE      IE2
      0000008EH   SFRSYM    DATA     BYTE      AUXR
      000000F0H   SFRSYM    DATA     BYTE      B
      000000C7H   SFRSYM    DATA     BYTE      IAP_CONTR
      000000F1H   SFRSYM    DATA     BYTE      PWMCFG
      000000E0H   SFRSYM    DATA     BYTE      ACC
      000000A8H.1 SFRSYM    DATA     BIT       ET0
      00000088H.5 SFRSYM    DATA     BIT       TF0
      000000A8H.3 SFRSYM    DATA     BIT       ET1
      00000088H.7 SFRSYM    DATA     BIT       TF1
      000000B5H   SFRSYM    DATA     BYTE      IP2
LX51 LINKER/LOCATER V4.66.1.0                                                         09/07/2015  13:09:22  PAGE 36


      00000098H.2 SFRSYM    DATA     BIT       RB8
      0000008CH   SFRSYM    DATA     BYTE      TH0
      0000008DH   SFRSYM    DATA     BYTE      TH1
      00000088H   SFRSYM    DATA     BIT       IT0
      000000A8H   SFRSYM    DATA     BIT       EX0
      00000098H.3 SFRSYM    DATA     BIT       TB8
      000000D6H   SFRSYM    DATA     BYTE      T2H
      00000088H.2 SFRSYM    DATA     BIT       IT1
      000000A8H.2 SFRSYM    DATA     BIT       EX1
      000000D4H   SFRSYM    DATA     BYTE      T3H
      000000D0H   SFRSYM    DATA     BIT       P
      00000098H.7 SFRSYM    DATA     BIT       SM0
      000000D2H   SFRSYM    DATA     BYTE      T4H
      0000008AH   SFRSYM    DATA     BYTE      TL0
      00000098H.6 SFRSYM    DATA     BIT       SM1
      0000008BH   SFRSYM    DATA     BYTE      TL1
      00000098H.5 SFRSYM    DATA     BIT       SM2
      000000D7H   SFRSYM    DATA     BYTE      T2L
      000000D5H   SFRSYM    DATA     BYTE      T3L
      000000D3H   SFRSYM    DATA     BYTE      T4L
      000000B8H.1 SFRSYM    DATA     BIT       PT0
      000000B8H.3 SFRSYM    DATA     BIT       PT1
      000000D0H.3 SFRSYM    DATA     BIT       RS0
      000000C2H   SFRSYM    DATA     BYTE      IAP_DATA
      00000088H.4 SFRSYM    DATA     BIT       TR0
      000000D0H.4 SFRSYM    DATA     BIT       RS1
      00000088H.6 SFRSYM    DATA     BIT       TR1
      000000C1H   SFRSYM    DATA     BYTE      WDT_CONTR
      000000B8H   SFRSYM    DATA     BIT       PX0
      000000B8H.2 SFRSYM    DATA     BIT       PX1
      000000F2H   SFRSYM    DATA     BYTE      PCA_PWM0
      000000F3H   SFRSYM    DATA     BYTE      PCA_PWM1
      000000F4H   SFRSYM    DATA     BYTE      PCA_PWM2
      0000009DH   SFRSYM    DATA     BYTE      P1ASF
      00000083H   SFRSYM    DATA     BYTE      DPH
      000000D1H   SFRSYM    DATA     BYTE      T3T4M
      000000D1H   SFRSYM    DATA     BYTE      T4T3M
      000000BEH   SFRSYM    DATA     BYTE      ADC_RESL
      00000082H   SFRSYM    DATA     BYTE      DPL
      000000CDH   SFRSYM    DATA     BYTE      SPSTAT
      0000009BH   SFRSYM    DATA     BYTE      S2BUF
      00000097H   SFRSYM    DATA     BYTE      PCON2
      000000ADH   SFRSYM    DATA     BYTE      S3BUF
      00000085H   SFRSYM    DATA     BYTE      S4BUF
      00000098H.4 SFRSYM    DATA     BIT       REN
      0000009AH   SFRSYM    DATA     BYTE      S2CON
      000000ACH   SFRSYM    DATA     BYTE      S3CON
      00000084H   SFRSYM    DATA     BYTE      S4CON
      000000B9H   SFRSYM    DATA     BYTE      SADEN
      000000A9H   SFRSYM    DATA     BYTE      SADDR
      000000C6H   SFRSYM    DATA     BYTE      IAP_TRIG
      000000A2H   SFRSYM    DATA     BYTE      AUXR1
      000000D0H.5 SFRSYM    DATA     BIT       F0
      0000008FH   SFRSYM    DATA     BYTE      INT_CLKO
      000000D0H   SFRSYM    DATA     BYTE      PSW
      000000D8H   SFRSYM    DATA     BIT       CCF0
      000000D8H.1 SFRSYM    DATA     BIT       CCF1
      000000CFH   SFRSYM    DATA     BYTE      SPDAT
      00000094H   SFRSYM    DATA     BYTE      P0M0
      00000020H.1 SYMBOL    BIT      BIT       interrupt_duty
      0200000AH   SYMBOL    PDATA    DWORD     time_counter_store
      0200000EH   SYMBOL    PDATA    BYTE      sync_5ms
      0200000FH   SYMBOL    PDATA    WORD      counter_for_pca5ms

      01000ABAH   BLOCK     CODE     ---       LVL=0
LX51 LINKER/LOCATER V4.66.1.0                                                         09/07/2015  13:09:22  PAGE 37


      ---         BLOCKEND  ---      ---       LVL=0

      01000A57H   BLOCK     CODE     ---       LVL=0
      01000A57H   LINE      CODE     ---       #14
      01000A57H   LINE      CODE     ---       #15
      01000A5AH   LINE      CODE     ---       #16
      01000A5DH   LINE      CODE     ---       #17
      01000A60H   LINE      CODE     ---       #18
      01000A63H   LINE      CODE     ---       #19
      01000A65H   LINE      CODE     ---       #20
      01000A67H   LINE      CODE     ---       #21
      01000A69H   LINE      CODE     ---       #22
      01000A6BH   LINE      CODE     ---       #23
      ---         BLOCKEND  ---      ---       LVL=0

      01000B06H   BLOCK     CODE     ---       LVL=0
      01000B06H   LINE      CODE     ---       #25
      01000B06H   LINE      CODE     ---       #27
      01000B08H   LINE      CODE     ---       #28
      01000B0AH   LINE      CODE     ---       #29
      01000B0CH   LINE      CODE     ---       #30
      ---         BLOCKEND  ---      ---       LVL=0

      01000006H   BLOCK     CODE     ---       LVL=0
      01000006H   LINE      CODE     ---       #33
      01000006H   LINE      CODE     ---       #34
      0100000AH   LINE      CODE     ---       #35
      ---         BLOCKEND  ---      ---       LVL=0

      01000B49H   BLOCK     CODE     ---       LVL=0
      01000B49H   LINE      CODE     ---       #39
      01000B49H   LINE      CODE     ---       #41
      01000B4CH   LINE      CODE     ---       #42
      01000B4EH   LINE      CODE     ---       #43
      ---         BLOCKEND  ---      ---       LVL=0

      010004EBH   BLOCK     CODE     ---       LVL=0
      010004EBH   LINE      CODE     ---       #46
      010004F8H   LINE      CODE     ---       #50
      01000503H   LINE      CODE     ---       #51
      0100050BH   LINE      CODE     ---       #52
      01000511H   LINE      CODE     ---       #53
      01000516H   LINE      CODE     ---       #54
      0100051FH   LINE      CODE     ---       #55
      0100051FH   LINE      CODE     ---       #56
      01000522H   LINE      CODE     ---       #57
      01000522H   LINE      CODE     ---       #58
      01000536H   LINE      CODE     ---       #59
      01000539H   LINE      CODE     ---       #60
      01000539H   LINE      CODE     ---       #61
      0100053BH   LINE      CODE     ---       #62
      01000544H   LINE      CODE     ---       #63
      0100054DH   LINE      CODE     ---       #64
      01000567H   LINE      CODE     ---       #65
      0100056FH   LINE      CODE     ---       #67
      01000578H   LINE      CODE     ---       #68
      01000578H   LINE      CODE     ---       #69
      01000578H   LINE      CODE     ---       #70
      ---         BLOCKEND  ---      ---       LVL=0

      ---         MODULE    ---      ---       COM_1
      0100028EH   PUBLIC    CODE     ---       main
      01000A28H   PUBLIC    CODE     ---       require_delay_init
      01000A7EH   PUBLIC    CODE     ---       InitUart
      01000AFEH   PUBLIC    CODE     ---       _SendData
LX51 LINKER/LOCATER V4.66.1.0                                                         09/07/2015  13:09:22  PAGE 38


      000000D8H.2 SFRSYM    DATA     BIT       CCF2
      00000092H   SFRSYM    DATA     BYTE      P1M0
      00000093H   SFRSYM    DATA     BYTE      P0M1
      00000096H   SFRSYM    DATA     BYTE      P2M0
      00000091H   SFRSYM    DATA     BYTE      P1M1
      00000080H   SFRSYM    DATA     BYTE      P0
      000000B2H   SFRSYM    DATA     BYTE      P3M0
      00000095H   SFRSYM    DATA     BYTE      P2M1
      00000090H   SFRSYM    DATA     BYTE      P1
      000000B4H   SFRSYM    DATA     BYTE      P4M0
      000000B1H   SFRSYM    DATA     BYTE      P3M1
      000000A0H   SFRSYM    DATA     BYTE      P2
      000000ABH   SFRSYM    DATA     BYTE      WKTCH
      000000CAH   SFRSYM    DATA     BYTE      P5M0
      000000B3H   SFRSYM    DATA     BYTE      P4M1
      000000B0H   SFRSYM    DATA     BYTE      P3
      000000CCH   SFRSYM    DATA     BYTE      P6M0
      000000C9H   SFRSYM    DATA     BYTE      P5M1
      000000C0H   SFRSYM    DATA     BYTE      P4
      000000D0H.6 SFRSYM    DATA     BIT       AC
      000000F6H   SFRSYM    DATA     BYTE      PWMIF
      000000E2H   SFRSYM    DATA     BYTE      P7M0
      000000CBH   SFRSYM    DATA     BYTE      P6M1
      000000C8H   SFRSYM    DATA     BYTE      P5
      000000A8H.7 SFRSYM    DATA     BIT       EA
      000000E1H   SFRSYM    DATA     BYTE      P7M1
      000000E8H   SFRSYM    DATA     BYTE      P6
      000000AAH   SFRSYM    DATA     BYTE      WKTCL
      000000F8H   SFRSYM    DATA     BYTE      P7
      000000CEH   SFRSYM    DATA     BYTE      SPCTL
      000000D8H.7 SFRSYM    DATA     BIT       CF
      000000F5H   SFRSYM    DATA     BYTE      PWMCR
      000000F9H   SFRSYM    DATA     BYTE      CH
      000000A2H   SFRSYM    DATA     BYTE      P_SW1
      000000BAH   SFRSYM    DATA     BYTE      P_SW2
      000000A8H.5 SFRSYM    DATA     BIT       EADC
      000000A8H   SFRSYM    DATA     BYTE      IE
      000000E9H   SFRSYM    DATA     BYTE      CL
      000000C5H   SFRSYM    DATA     BYTE      IAP_CMD
      000000FAH   SFRSYM    DATA     BYTE      CCAP0H
      000000FBH   SFRSYM    DATA     BYTE      CCAP1H
      000000FCH   SFRSYM    DATA     BYTE      CCAP2H
      000000BDH   SFRSYM    DATA     BYTE      ADC_RES
      000000EAH   SFRSYM    DATA     BYTE      CCAP0L
      000000D8H.6 SFRSYM    DATA     BIT       CR
      000000F7H   SFRSYM    DATA     BYTE      PWMFDCR
      000000EBH   SFRSYM    DATA     BYTE      CCAP1L
      000000DAH   SFRSYM    DATA     BYTE      CCAPM0
      000000ECH   SFRSYM    DATA     BYTE      CCAP2L
      000000DBH   SFRSYM    DATA     BYTE      CCAPM1
      000000DCH   SFRSYM    DATA     BYTE      CCAPM2
      000000A8H.4 SFRSYM    DATA     BIT       ES
      000000B8H.5 SFRSYM    DATA     BIT       PADC
      000000B8H   SFRSYM    DATA     BYTE      IP
      00000098H   SFRSYM    DATA     BIT       RI
      000000B0H.2 SFRSYM    DATA     BIT       INT0
      000000D0H.7 SFRSYM    DATA     BIT       CY
      00000098H.1 SFRSYM    DATA     BIT       TI
      000000B0H.3 SFRSYM    DATA     BIT       INT1
      00000097H   SFRSYM    DATA     BYTE      CLK_DIV
      000000C3H   SFRSYM    DATA     BYTE      IAP_ADDRH
      000000B8H.4 SFRSYM    DATA     BIT       PS
      00000081H   SFRSYM    DATA     BYTE      SP
      000000D9H   SFRSYM    DATA     BYTE      CMOD
      000000D8H   SFRSYM    DATA     BYTE      CCON
LX51 LINKER/LOCATER V4.66.1.0                                                         09/07/2015  13:09:22  PAGE 39


      000000C4H   SFRSYM    DATA     BYTE      IAP_ADDRL
      000000B8H.7 SFRSYM    DATA     BIT       PPCA
      000000D0H.2 SFRSYM    DATA     BIT       OV
      000000E6H   SFRSYM    DATA     BYTE      CMPCR1
      000000E7H   SFRSYM    DATA     BYTE      CMPCR2
      000000A8H.6 SFRSYM    DATA     BIT       ELVD
      00000080H   SFRSYM    DATA     BIT       P00
      000000BCH   SFRSYM    DATA     BYTE      ADC_CONTR
      00000099H   SFRSYM    DATA     BYTE      SBUF
      00000087H   SFRSYM    DATA     BYTE      PCON
      00000090H   SFRSYM    DATA     BIT       P10
      00000080H.1 SFRSYM    DATA     BIT       P01
      000000A0H   SFRSYM    DATA     BIT       P20
      00000090H.1 SFRSYM    DATA     BIT       P11
      00000080H.2 SFRSYM    DATA     BIT       P02
      000000B0H   SFRSYM    DATA     BIT       P30
      000000A0H.1 SFRSYM    DATA     BIT       P21
      00000090H.2 SFRSYM    DATA     BIT       P12
      00000080H.3 SFRSYM    DATA     BIT       P03
      00000098H   SFRSYM    DATA     BYTE      SCON
      000000C0H   SFRSYM    DATA     BIT       P40
      000000B0H.1 SFRSYM    DATA     BIT       P31
      000000A0H.2 SFRSYM    DATA     BIT       P22
      00000090H.3 SFRSYM    DATA     BIT       P13
      00000080H.4 SFRSYM    DATA     BIT       P04
      00000089H   SFRSYM    DATA     BYTE      TMOD
      00000088H   SFRSYM    DATA     BYTE      TCON
      000000C8H   SFRSYM    DATA     BIT       P50
      000000C0H.1 SFRSYM    DATA     BIT       P41
      000000B0H.2 SFRSYM    DATA     BIT       P32
      000000A0H.3 SFRSYM    DATA     BIT       P23
      00000090H.4 SFRSYM    DATA     BIT       P14
      00000080H.5 SFRSYM    DATA     BIT       P05
      000000E8H   SFRSYM    DATA     BIT       P60
      000000C8H.1 SFRSYM    DATA     BIT       P51
      000000C0H.2 SFRSYM    DATA     BIT       P42
      000000B0H.3 SFRSYM    DATA     BIT       P33
      000000A0H.4 SFRSYM    DATA     BIT       P24
      00000090H.5 SFRSYM    DATA     BIT       P15
      00000080H.6 SFRSYM    DATA     BIT       P06
      000000B8H.6 SFRSYM    DATA     BIT       PLVD
      000000F8H   SFRSYM    DATA     BIT       P70
      000000E8H.1 SFRSYM    DATA     BIT       P61
      000000C8H.2 SFRSYM    DATA     BIT       P52
      000000C0H.3 SFRSYM    DATA     BIT       P43
      000000B0H.4 SFRSYM    DATA     BIT       P34
      000000A0H.5 SFRSYM    DATA     BIT       P25
      00000090H.6 SFRSYM    DATA     BIT       P16
      00000080H.7 SFRSYM    DATA     BIT       P07
      000000F8H.1 SFRSYM    DATA     BIT       P71
      000000E8H.2 SFRSYM    DATA     BIT       P62
      000000C8H.3 SFRSYM    DATA     BIT       P53
      000000C0H.4 SFRSYM    DATA     BIT       P44
      000000B0H.5 SFRSYM    DATA     BIT       P35
      000000A0H.6 SFRSYM    DATA     BIT       P26
      00000090H.7 SFRSYM    DATA     BIT       P17
      000000F8H.2 SFRSYM    DATA     BIT       P72
      000000E8H.3 SFRSYM    DATA     BIT       P63
      000000C8H.4 SFRSYM    DATA     BIT       P54
      000000C0H.5 SFRSYM    DATA     BIT       P45
      000000B0H.6 SFRSYM    DATA     BIT       P36
      000000A0H.7 SFRSYM    DATA     BIT       P27
      000000F8H.3 SFRSYM    DATA     BIT       P73
      000000E8H.4 SFRSYM    DATA     BIT       P64
      000000C8H.5 SFRSYM    DATA     BIT       P55
LX51 LINKER/LOCATER V4.66.1.0                                                         09/07/2015  13:09:22  PAGE 40


      000000C0H.6 SFRSYM    DATA     BIT       P46
      000000B0H.7 SFRSYM    DATA     BIT       P37
      000000F8H.4 SFRSYM    DATA     BIT       P74
      000000E8H.5 SFRSYM    DATA     BIT       P65
      000000C8H.6 SFRSYM    DATA     BIT       P56
      000000C0H.7 SFRSYM    DATA     BIT       P47
      000000F8H.5 SFRSYM    DATA     BIT       P75
      000000E8H.6 SFRSYM    DATA     BIT       P66
      000000C8H.7 SFRSYM    DATA     BIT       P57
      000000F8H.6 SFRSYM    DATA     BIT       P76
      000000E8H.7 SFRSYM    DATA     BIT       P67
      00000088H.1 SFRSYM    DATA     BIT       IE0
      000000A1H   SFRSYM    DATA     BYTE      BUS_SPEED
      000000F8H.7 SFRSYM    DATA     BIT       P77
      00000088H.3 SFRSYM    DATA     BIT       IE1
      000000AFH   SFRSYM    DATA     BYTE      IE2
      0000008EH   SFRSYM    DATA     BYTE      AUXR
      000000F0H   SFRSYM    DATA     BYTE      B
      000000C7H   SFRSYM    DATA     BYTE      IAP_CONTR
      000000F1H   SFRSYM    DATA     BYTE      PWMCFG
      000000E0H   SFRSYM    DATA     BYTE      ACC
      000000A8H.1 SFRSYM    DATA     BIT       ET0
      00000088H.5 SFRSYM    DATA     BIT       TF0
      000000A8H.3 SFRSYM    DATA     BIT       ET1
      00000088H.7 SFRSYM    DATA     BIT       TF1
      000000B5H   SFRSYM    DATA     BYTE      IP2
      00000098H.2 SFRSYM    DATA     BIT       RB8
      0000008CH   SFRSYM    DATA     BYTE      TH0
      0000008DH   SFRSYM    DATA     BYTE      TH1
      00000088H   SFRSYM    DATA     BIT       IT0
      000000A8H   SFRSYM    DATA     BIT       EX0
      00000098H.3 SFRSYM    DATA     BIT       TB8
      000000D6H   SFRSYM    DATA     BYTE      T2H
      00000088H.2 SFRSYM    DATA     BIT       IT1
      000000A8H.2 SFRSYM    DATA     BIT       EX1
      000000D4H   SFRSYM    DATA     BYTE      T3H
      000000D0H   SFRSYM    DATA     BIT       P
      00000098H.7 SFRSYM    DATA     BIT       SM0
      000000D2H   SFRSYM    DATA     BYTE      T4H
      0000008AH   SFRSYM    DATA     BYTE      TL0
      00000098H.6 SFRSYM    DATA     BIT       SM1
      0000008BH   SFRSYM    DATA     BYTE      TL1
      00000098H.5 SFRSYM    DATA     BIT       SM2
      000000D7H   SFRSYM    DATA     BYTE      T2L
      000000D5H   SFRSYM    DATA     BYTE      T3L
      000000D3H   SFRSYM    DATA     BYTE      T4L
      000000B8H.1 SFRSYM    DATA     BIT       PT0
      000000B8H.3 SFRSYM    DATA     BIT       PT1
      000000D0H.3 SFRSYM    DATA     BIT       RS0
      000000C2H   SFRSYM    DATA     BYTE      IAP_DATA
      00000088H.4 SFRSYM    DATA     BIT       TR0
      000000D0H.4 SFRSYM    DATA     BIT       RS1
      00000088H.6 SFRSYM    DATA     BIT       TR1
      000000C1H   SFRSYM    DATA     BYTE      WDT_CONTR
      000000B8H   SFRSYM    DATA     BIT       PX0
      000000B8H.2 SFRSYM    DATA     BIT       PX1
      000000F2H   SFRSYM    DATA     BYTE      PCA_PWM0
      000000F3H   SFRSYM    DATA     BYTE      PCA_PWM1
      000000F4H   SFRSYM    DATA     BYTE      PCA_PWM2
      0000009DH   SFRSYM    DATA     BYTE      P1ASF
      00000083H   SFRSYM    DATA     BYTE      DPH
      000000D1H   SFRSYM    DATA     BYTE      T3T4M
      000000D1H   SFRSYM    DATA     BYTE      T4T3M
      000000BEH   SFRSYM    DATA     BYTE      ADC_RESL
      00000082H   SFRSYM    DATA     BYTE      DPL
LX51 LINKER/LOCATER V4.66.1.0                                                         09/07/2015  13:09:22  PAGE 41


      000000CDH   SFRSYM    DATA     BYTE      SPSTAT
      0000009BH   SFRSYM    DATA     BYTE      S2BUF
      00000097H   SFRSYM    DATA     BYTE      PCON2
      000000ADH   SFRSYM    DATA     BYTE      S3BUF
      00000085H   SFRSYM    DATA     BYTE      S4BUF
      00000098H.4 SFRSYM    DATA     BIT       REN
      0000009AH   SFRSYM    DATA     BYTE      S2CON
      000000ACH   SFRSYM    DATA     BYTE      S3CON
      00000084H   SFRSYM    DATA     BYTE      S4CON
      000000B9H   SFRSYM    DATA     BYTE      SADEN
      000000A9H   SFRSYM    DATA     BYTE      SADDR
      000000C6H   SFRSYM    DATA     BYTE      IAP_TRIG
      000000A2H   SFRSYM    DATA     BYTE      AUXR1
      000000D0H.5 SFRSYM    DATA     BIT       F0
      0000008FH   SFRSYM    DATA     BYTE      INT_CLKO
      000000D0H   SFRSYM    DATA     BYTE      PSW
      000000D8H   SFRSYM    DATA     BIT       CCF0
      000000D8H.1 SFRSYM    DATA     BIT       CCF1
      000000CFH   SFRSYM    DATA     BYTE      SPDAT
      00000094H   SFRSYM    DATA     BYTE      P0M0
      01000813H   SYMBOL    CODE     ---       detect_current_state
      01000B4FH   SYMBOL    CODE     ---       init_system_component

      01000A07H   BLOCK     CODE     ---       LVL=0
      ---         BLOCKEND  ---      ---       LVL=0

      01000AFEH   BLOCK     CODE     ---       LVL=0
      00000007H   SYMBOL    DATA     BYTE      dat
      01000AFEH   LINE      CODE     ---       #25
      01000AFEH   LINE      CODE     ---       #26
      01000AFEH   LINE      CODE     ---       #27
      01000B01H   LINE      CODE     ---       #28
      01000B03H   LINE      CODE     ---       #29
      01000B05H   LINE      CODE     ---       #30
      ---         BLOCKEND  ---      ---       LVL=0

      01000A7EH   BLOCK     CODE     ---       LVL=0
      01000A7EH   LINE      CODE     ---       #33
      01000A7EH   LINE      CODE     ---       #34
      01000A7EH   LINE      CODE     ---       #35
      01000A81H   LINE      CODE     ---       #36
      01000A84H   LINE      CODE     ---       #37
      01000A87H   LINE      CODE     ---       #38
      01000A8AH   LINE      CODE     ---       #39
      01000A8DH   LINE      CODE     ---       #40
      ---         BLOCKEND  ---      ---       LVL=0

      01000A28H   BLOCK     CODE     ---       LVL=0
      01000A28H   LINE      CODE     ---       #42
      01000A28H   LINE      CODE     ---       #43
      01000A2EH   LINE      CODE     ---       #44
      01000A34H   LINE      CODE     ---       #45
      01000A3AH   LINE      CODE     ---       #46
      01000A40H   LINE      CODE     ---       #47
      ---         BLOCKEND  ---      ---       LVL=0

      01000813H   BLOCK     CODE     ---       LVL=0
      01000813H   BLOCK     CODE     NEAR LAB  LVL=1
      02000017H   SYMBOL    PDATA    BYTE      display_mode
      ---         BLOCKEND  ---      ---       LVL=1
      01000813H   LINE      CODE     ---       #50
      01000813H   LINE      CODE     ---       #51
      0100081BH   LINE      CODE     ---       #52
      01000820H   LINE      CODE     ---       #53
      01000825H   LINE      CODE     ---       #54
LX51 LINKER/LOCATER V4.66.1.0                                                         09/07/2015  13:09:22  PAGE 42


      01000831H   LINE      CODE     ---       #56
      01000834H   LINE      CODE     ---       #57
      01000834H   LINE      CODE     ---       #58
      01000839H   LINE      CODE     ---       #60
      01000844H   LINE      CODE     ---       #61
      0100084DH   LINE      CODE     ---       #62
      0100084DH   LINE      CODE     ---       #63
      0100084FH   LINE      CODE     ---       #64
      01000858H   LINE      CODE     ---       #65
      01000858H   LINE      CODE     ---       #66
      01000859H   LINE      CODE     ---       #67
      0100085EH   LINE      CODE     ---       #68
      01000860H   LINE      CODE     ---       #70
      01000862H   LINE      CODE     ---       #71
      ---         BLOCKEND  ---      ---       LVL=0

      0100028EH   BLOCK     CODE     ---       LVL=0
      0100028EH   BLOCK     CODE     NEAR LAB  LVL=1
      02000016H   SYMBOL    PDATA    BYTE      time_counter_for_cycle
      ---         BLOCKEND  ---      ---       LVL=1
      0100028EH   LINE      CODE     ---       #74
      0100028EH   LINE      CODE     ---       #75
      0100028EH   LINE      CODE     ---       #76
      01000293H   LINE      CODE     ---       #77
      01000295H   LINE      CODE     ---       #79
      01000298H   LINE      CODE     ---       #80
      0100029BH   LINE      CODE     ---       #81
      0100029EH   LINE      CODE     ---       #83
      010002A0H   LINE      CODE     ---       #84
      010002A2H   LINE      CODE     ---       #86
      010002A5H   LINE      CODE     ---       #87
      010002A5H   LINE      CODE     ---       #89
      010002ABH   LINE      CODE     ---       #93
      010002B1H   LINE      CODE     ---       #94
      010002B8H   LINE      CODE     ---       #95
      010002BEH   LINE      CODE     ---       #97
      010002BEH   LINE      CODE     ---       #99
      010002C4H   LINE      CODE     ---       #100
      010002C6H   LINE      CODE     ---       #101
      010002DBH   LINE      CODE     ---       #103
      010002EBH   LINE      CODE     ---       #104
      010002EBH   LINE      CODE     ---       #105
      010002F0H   LINE      CODE     ---       #106
      010002F0H   LINE      CODE     ---       #107
      010002F5H   LINE      CODE     ---       #108
      010002F5H   LINE      CODE     ---       #110
      010002FAH   LINE      CODE     ---       #111
      010002FAH   LINE      CODE     ---       #112
      010002FFH   LINE      CODE     ---       #113
      01000304H   LINE      CODE     ---       #114
      01000304H   LINE      CODE     ---       #115
      0100030AH   LINE      CODE     ---       #116
      0100030DH   LINE      CODE     ---       #118
      01000310H   LINE      CODE     ---       #119
      01000310H   LINE      CODE     ---       #121
      01000317H   LINE      CODE     ---       #122
      01000317H   LINE      CODE     ---       #123
      0100032EH   LINE      CODE     ---       #124
      01000333H   LINE      CODE     ---       #125
      01000337H   LINE      CODE     ---       #126
      0100033AH   LINE      CODE     ---       #127
      0100033AH   LINE      CODE     ---       #128
      01000343H   LINE      CODE     ---       #129
      01000348H   LINE      CODE     ---       #130
      0100034FH   LINE      CODE     ---       #131
LX51 LINKER/LOCATER V4.66.1.0                                                         09/07/2015  13:09:22  PAGE 43


      0100035AH   LINE      CODE     ---       #133
      0100035DH   LINE      CODE     ---       #134
      0100035DH   LINE      CODE     ---       #135
      01000366H   LINE      CODE     ---       #136
      0100036CH   LINE      CODE     ---       #137
      0100036EH   LINE      CODE     ---       #138
      ---         BLOCKEND  ---      ---       LVL=0

      01000B4FH   BLOCK     CODE     ---       LVL=0
      01000B4FH   LINE      CODE     ---       #144
      01000B4FH   LINE      CODE     ---       #145
      01000B52H   LINE      CODE     ---       #146
      ---         BLOCKEND  ---      ---       LVL=0

      ---         MODULE    ---      ---       E2PROM
      01000A41H   PUBLIC    CODE     ---       _EEPROM_write
      01000AC7H   PUBLIC    CODE     ---       _EEPROM_SectorErase
      01000A8EH   PUBLIC    CODE     ---       _EEPROM_read
      01000AACH   PUBLIC    CODE     ---       DisableEEPROM
      000000D8H.2 SFRSYM    DATA     BIT       CCF2
      00000092H   SFRSYM    DATA     BYTE      P1M0
      00000093H   SFRSYM    DATA     BYTE      P0M1
      00000096H   SFRSYM    DATA     BYTE      P2M0
      00000091H   SFRSYM    DATA     BYTE      P1M1
      00000080H   SFRSYM    DATA     BYTE      P0
      000000B2H   SFRSYM    DATA     BYTE      P3M0
      00000095H   SFRSYM    DATA     BYTE      P2M1
      00000090H   SFRSYM    DATA     BYTE      P1
      000000B4H   SFRSYM    DATA     BYTE      P4M0
      000000B1H   SFRSYM    DATA     BYTE      P3M1
      000000A0H   SFRSYM    DATA     BYTE      P2
      000000ABH   SFRSYM    DATA     BYTE      WKTCH
      000000CAH   SFRSYM    DATA     BYTE      P5M0
      000000B3H   SFRSYM    DATA     BYTE      P4M1
      000000B0H   SFRSYM    DATA     BYTE      P3
      000000CCH   SFRSYM    DATA     BYTE      P6M0
      000000C9H   SFRSYM    DATA     BYTE      P5M1
      000000C0H   SFRSYM    DATA     BYTE      P4
      000000D0H.6 SFRSYM    DATA     BIT       AC
      000000F6H   SFRSYM    DATA     BYTE      PWMIF
      000000E2H   SFRSYM    DATA     BYTE      P7M0
      000000CBH   SFRSYM    DATA     BYTE      P6M1
      000000C8H   SFRSYM    DATA     BYTE      P5
      000000A8H.7 SFRSYM    DATA     BIT       EA
      000000E1H   SFRSYM    DATA     BYTE      P7M1
      000000E8H   SFRSYM    DATA     BYTE      P6
      000000AAH   SFRSYM    DATA     BYTE      WKTCL
      000000F8H   SFRSYM    DATA     BYTE      P7
      000000CEH   SFRSYM    DATA     BYTE      SPCTL
      000000D8H.7 SFRSYM    DATA     BIT       CF
      000000F5H   SFRSYM    DATA     BYTE      PWMCR
      000000F9H   SFRSYM    DATA     BYTE      CH
      000000A2H   SFRSYM    DATA     BYTE      P_SW1
      000000BAH   SFRSYM    DATA     BYTE      P_SW2
      000000A8H.5 SFRSYM    DATA     BIT       EADC
      000000A8H   SFRSYM    DATA     BYTE      IE
      000000E9H   SFRSYM    DATA     BYTE      CL
      000000C5H   SFRSYM    DATA     BYTE      IAP_CMD
      000000FAH   SFRSYM    DATA     BYTE      CCAP0H
      000000FBH   SFRSYM    DATA     BYTE      CCAP1H
      000000FCH   SFRSYM    DATA     BYTE      CCAP2H
      000000BDH   SFRSYM    DATA     BYTE      ADC_RES
      000000EAH   SFRSYM    DATA     BYTE      CCAP0L
      000000D8H.6 SFRSYM    DATA     BIT       CR
      000000F7H   SFRSYM    DATA     BYTE      PWMFDCR
LX51 LINKER/LOCATER V4.66.1.0                                                         09/07/2015  13:09:22  PAGE 44


      000000EBH   SFRSYM    DATA     BYTE      CCAP1L
      000000DAH   SFRSYM    DATA     BYTE      CCAPM0
      000000ECH   SFRSYM    DATA     BYTE      CCAP2L
      000000DBH   SFRSYM    DATA     BYTE      CCAPM1
      000000DCH   SFRSYM    DATA     BYTE      CCAPM2
      000000A8H.4 SFRSYM    DATA     BIT       ES
      000000B8H.5 SFRSYM    DATA     BIT       PADC
      000000B8H   SFRSYM    DATA     BYTE      IP
      00000098H   SFRSYM    DATA     BIT       RI
      000000B0H.2 SFRSYM    DATA     BIT       INT0
      000000D0H.7 SFRSYM    DATA     BIT       CY
      00000098H.1 SFRSYM    DATA     BIT       TI
      000000B0H.3 SFRSYM    DATA     BIT       INT1
      00000097H   SFRSYM    DATA     BYTE      CLK_DIV
      000000C3H   SFRSYM    DATA     BYTE      IAP_ADDRH
      000000B8H.4 SFRSYM    DATA     BIT       PS
      00000081H   SFRSYM    DATA     BYTE      SP
      000000D9H   SFRSYM    DATA     BYTE      CMOD
      000000D8H   SFRSYM    DATA     BYTE      CCON
      000000C4H   SFRSYM    DATA     BYTE      IAP_ADDRL
      000000B8H.7 SFRSYM    DATA     BIT       PPCA
      000000D0H.2 SFRSYM    DATA     BIT       OV
      000000E6H   SFRSYM    DATA     BYTE      CMPCR1
      000000E7H   SFRSYM    DATA     BYTE      CMPCR2
      000000A8H.6 SFRSYM    DATA     BIT       ELVD
      00000080H   SFRSYM    DATA     BIT       P00
      000000BCH   SFRSYM    DATA     BYTE      ADC_CONTR
      00000099H   SFRSYM    DATA     BYTE      SBUF
      00000087H   SFRSYM    DATA     BYTE      PCON
      00000090H   SFRSYM    DATA     BIT       P10
      00000080H.1 SFRSYM    DATA     BIT       P01
      000000A0H   SFRSYM    DATA     BIT       P20
      00000090H.1 SFRSYM    DATA     BIT       P11
      00000080H.2 SFRSYM    DATA     BIT       P02
      000000B0H   SFRSYM    DATA     BIT       P30
      000000A0H.1 SFRSYM    DATA     BIT       P21
      00000090H.2 SFRSYM    DATA     BIT       P12
      00000080H.3 SFRSYM    DATA     BIT       P03
      00000098H   SFRSYM    DATA     BYTE      SCON
      000000C0H   SFRSYM    DATA     BIT       P40
      000000B0H.1 SFRSYM    DATA     BIT       P31
      000000A0H.2 SFRSYM    DATA     BIT       P22
      00000090H.3 SFRSYM    DATA     BIT       P13
      00000080H.4 SFRSYM    DATA     BIT       P04
      00000089H   SFRSYM    DATA     BYTE      TMOD
      00000088H   SFRSYM    DATA     BYTE      TCON
      000000C8H   SFRSYM    DATA     BIT       P50
      000000C0H.1 SFRSYM    DATA     BIT       P41
      000000B0H.2 SFRSYM    DATA     BIT       P32
      000000A0H.3 SFRSYM    DATA     BIT       P23
      00000090H.4 SFRSYM    DATA     BIT       P14
      00000080H.5 SFRSYM    DATA     BIT       P05
      000000E8H   SFRSYM    DATA     BIT       P60
      000000C8H.1 SFRSYM    DATA     BIT       P51
      000000C0H.2 SFRSYM    DATA     BIT       P42
      000000B0H.3 SFRSYM    DATA     BIT       P33
      000000A0H.4 SFRSYM    DATA     BIT       P24
      00000090H.5 SFRSYM    DATA     BIT       P15
      00000080H.6 SFRSYM    DATA     BIT       P06
      000000B8H.6 SFRSYM    DATA     BIT       PLVD
      000000F8H   SFRSYM    DATA     BIT       P70
      000000E8H.1 SFRSYM    DATA     BIT       P61
      000000C8H.2 SFRSYM    DATA     BIT       P52
      000000C0H.3 SFRSYM    DATA     BIT       P43
      000000B0H.4 SFRSYM    DATA     BIT       P34
LX51 LINKER/LOCATER V4.66.1.0                                                         09/07/2015  13:09:22  PAGE 45


      000000A0H.5 SFRSYM    DATA     BIT       P25
      00000090H.6 SFRSYM    DATA     BIT       P16
      00000080H.7 SFRSYM    DATA     BIT       P07
      000000F8H.1 SFRSYM    DATA     BIT       P71
      000000E8H.2 SFRSYM    DATA     BIT       P62
      000000C8H.3 SFRSYM    DATA     BIT       P53
      000000C0H.4 SFRSYM    DATA     BIT       P44
      000000B0H.5 SFRSYM    DATA     BIT       P35
      000000A0H.6 SFRSYM    DATA     BIT       P26
      00000090H.7 SFRSYM    DATA     BIT       P17
      000000F8H.2 SFRSYM    DATA     BIT       P72
      000000E8H.3 SFRSYM    DATA     BIT       P63
      000000C8H.4 SFRSYM    DATA     BIT       P54
      000000C0H.5 SFRSYM    DATA     BIT       P45
      000000B0H.6 SFRSYM    DATA     BIT       P36
      000000A0H.7 SFRSYM    DATA     BIT       P27
      000000F8H.3 SFRSYM    DATA     BIT       P73
      000000E8H.4 SFRSYM    DATA     BIT       P64
      000000C8H.5 SFRSYM    DATA     BIT       P55
      000000C0H.6 SFRSYM    DATA     BIT       P46
      000000B0H.7 SFRSYM    DATA     BIT       P37
      000000F8H.4 SFRSYM    DATA     BIT       P74
      000000E8H.5 SFRSYM    DATA     BIT       P65
      000000C8H.6 SFRSYM    DATA     BIT       P56
      000000C0H.7 SFRSYM    DATA     BIT       P47
      000000F8H.5 SFRSYM    DATA     BIT       P75
      000000E8H.6 SFRSYM    DATA     BIT       P66
      000000C8H.7 SFRSYM    DATA     BIT       P57
      000000F8H.6 SFRSYM    DATA     BIT       P76
      000000E8H.7 SFRSYM    DATA     BIT       P67
      00000088H.1 SFRSYM    DATA     BIT       IE0
      000000A1H   SFRSYM    DATA     BYTE      BUS_SPEED
      000000F8H.7 SFRSYM    DATA     BIT       P77
      00000088H.3 SFRSYM    DATA     BIT       IE1
      000000AFH   SFRSYM    DATA     BYTE      IE2
      0000008EH   SFRSYM    DATA     BYTE      AUXR
      000000F0H   SFRSYM    DATA     BYTE      B
      000000C7H   SFRSYM    DATA     BYTE      IAP_CONTR
      000000F1H   SFRSYM    DATA     BYTE      PWMCFG
      000000E0H   SFRSYM    DATA     BYTE      ACC
      000000A8H.1 SFRSYM    DATA     BIT       ET0
      00000088H.5 SFRSYM    DATA     BIT       TF0
      000000A8H.3 SFRSYM    DATA     BIT       ET1
      00000088H.7 SFRSYM    DATA     BIT       TF1
      000000B5H   SFRSYM    DATA     BYTE      IP2
      00000098H.2 SFRSYM    DATA     BIT       RB8
      0000008CH   SFRSYM    DATA     BYTE      TH0
      0000008DH   SFRSYM    DATA     BYTE      TH1
      00000088H   SFRSYM    DATA     BIT       IT0
      000000A8H   SFRSYM    DATA     BIT       EX0
      00000098H.3 SFRSYM    DATA     BIT       TB8
      000000D6H   SFRSYM    DATA     BYTE      T2H
      00000088H.2 SFRSYM    DATA     BIT       IT1
      000000A8H.2 SFRSYM    DATA     BIT       EX1
      000000D4H   SFRSYM    DATA     BYTE      T3H
      000000D0H   SFRSYM    DATA     BIT       P
      00000098H.7 SFRSYM    DATA     BIT       SM0
      000000D2H   SFRSYM    DATA     BYTE      T4H
      0000008AH   SFRSYM    DATA     BYTE      TL0
      00000098H.6 SFRSYM    DATA     BIT       SM1
      0000008BH   SFRSYM    DATA     BYTE      TL1
      00000098H.5 SFRSYM    DATA     BIT       SM2
      000000D7H   SFRSYM    DATA     BYTE      T2L
      000000D5H   SFRSYM    DATA     BYTE      T3L
      000000D3H   SFRSYM    DATA     BYTE      T4L
LX51 LINKER/LOCATER V4.66.1.0                                                         09/07/2015  13:09:22  PAGE 46


      000000B8H.1 SFRSYM    DATA     BIT       PT0
      000000B8H.3 SFRSYM    DATA     BIT       PT1
      000000D0H.3 SFRSYM    DATA     BIT       RS0
      000000C2H   SFRSYM    DATA     BYTE      IAP_DATA
      00000088H.4 SFRSYM    DATA     BIT       TR0
      000000D0H.4 SFRSYM    DATA     BIT       RS1
      00000088H.6 SFRSYM    DATA     BIT       TR1
      000000C1H   SFRSYM    DATA     BYTE      WDT_CONTR
      000000B8H   SFRSYM    DATA     BIT       PX0
      000000B8H.2 SFRSYM    DATA     BIT       PX1
      000000F2H   SFRSYM    DATA     BYTE      PCA_PWM0
      000000F3H   SFRSYM    DATA     BYTE      PCA_PWM1
      000000F4H   SFRSYM    DATA     BYTE      PCA_PWM2
      0000009DH   SFRSYM    DATA     BYTE      P1ASF
      00000083H   SFRSYM    DATA     BYTE      DPH
      000000D1H   SFRSYM    DATA     BYTE      T3T4M
      000000D1H   SFRSYM    DATA     BYTE      T4T3M
      000000BEH   SFRSYM    DATA     BYTE      ADC_RESL
      00000082H   SFRSYM    DATA     BYTE      DPL
      000000CDH   SFRSYM    DATA     BYTE      SPSTAT
      0000009BH   SFRSYM    DATA     BYTE      S2BUF
      00000097H   SFRSYM    DATA     BYTE      PCON2
      000000ADH   SFRSYM    DATA     BYTE      S3BUF
      00000085H   SFRSYM    DATA     BYTE      S4BUF
      00000098H.4 SFRSYM    DATA     BIT       REN
      0000009AH   SFRSYM    DATA     BYTE      S2CON
      000000ACH   SFRSYM    DATA     BYTE      S3CON
      00000084H   SFRSYM    DATA     BYTE      S4CON
      000000B9H   SFRSYM    DATA     BYTE      SADEN
      000000A9H   SFRSYM    DATA     BYTE      SADDR
      000000C6H   SFRSYM    DATA     BYTE      IAP_TRIG
      000000A2H   SFRSYM    DATA     BYTE      AUXR1
      000000D0H.5 SFRSYM    DATA     BIT       F0
      0000008FH   SFRSYM    DATA     BYTE      INT_CLKO
      000000D0H   SFRSYM    DATA     BYTE      PSW
      000000D8H   SFRSYM    DATA     BIT       CCF0
      000000D8H.1 SFRSYM    DATA     BIT       CCF1
      000000CFH   SFRSYM    DATA     BYTE      SPDAT
      00000094H   SFRSYM    DATA     BYTE      P0M0

      01000AD4H   BLOCK     CODE     ---       LVL=0
      ---         BLOCKEND  ---      ---       LVL=0

      01000AACH   BLOCK     CODE     ---       LVL=0
      01000AACH   LINE      CODE     ---       #5
      01000AACH   LINE      CODE     ---       #6
      01000AACH   LINE      CODE     ---       #7
      01000AAFH   LINE      CODE     ---       #8
      01000AB1H   LINE      CODE     ---       #9
      01000AB3H   LINE      CODE     ---       #10
      01000AB6H   LINE      CODE     ---       #11
      01000AB9H   LINE      CODE     ---       #12
      ---         BLOCKEND  ---      ---       LVL=0

      01000A8EH   BLOCK     CODE     ---       LVL=0
      00000006H   SYMBOL    DATA     WORD      EE_address
      01000A8EH   BLOCK     CODE     NEAR LAB  LVL=1
      00000007H   SYMBOL    DATA     BYTE      dat
      ---         BLOCKEND  ---      ---       LVL=1
      01000A8EH   LINE      CODE     ---       #13
      01000A8EH   LINE      CODE     ---       #14
      01000A8EH   LINE      CODE     ---       #16
      01000A91H   LINE      CODE     ---       #17
      01000A94H   LINE      CODE     ---       #18
      01000A94H   LINE      CODE     ---       #19
LX51 LINKER/LOCATER V4.66.1.0                                                         09/07/2015  13:09:22  PAGE 47


      01000A94H   LINE      CODE     ---       #20
      01000A94H   LINE      CODE     ---       #21
      01000A97H   LINE      CODE     ---       #22
      01000A98H   LINE      CODE     ---       #23
      01000A9AH   LINE      CODE     ---       #24
      01000A9DH   LINE      CODE     ---       #25
      01000A9DH   LINE      CODE     ---       #26
      ---         BLOCKEND  ---      ---       LVL=0

      01000AC7H   BLOCK     CODE     ---       LVL=0
      00000006H   SYMBOL    DATA     WORD      EE_address
      01000AC7H   LINE      CODE     ---       #28
      01000AC7H   LINE      CODE     ---       #29
      01000AC7H   LINE      CODE     ---       #30
      01000ACAH   LINE      CODE     ---       #31
      01000ACDH   LINE      CODE     ---       #32
      01000ACDH   LINE      CODE     ---       #33
      01000ACDH   LINE      CODE     ---       #34
      01000ACDH   LINE      CODE     ---       #35
      01000AD0H   LINE      CODE     ---       #36
      01000AD1H   LINE      CODE     ---       #37
      ---         BLOCKEND  ---      ---       LVL=0

      01000A41H   BLOCK     CODE     ---       LVL=0
      00000006H   SYMBOL    DATA     WORD      EE_address
      00000005H   SYMBOL    DATA     BYTE      dat
      01000A41H   LINE      CODE     ---       #40
      01000A41H   LINE      CODE     ---       #41
      01000A41H   LINE      CODE     ---       #43
      01000A44H   LINE      CODE     ---       #44
      01000A47H   LINE      CODE     ---       #45
      01000A49H   LINE      CODE     ---       #46
      01000A4CH   LINE      CODE     ---       #47
      01000A50H   LINE      CODE     ---       #48
      01000A50H   LINE      CODE     ---       #49
      01000A53H   LINE      CODE     ---       #50
      01000A54H   LINE      CODE     ---       #51
      ---         BLOCKEND  ---      ---       LVL=0

      ---         MODULE    ---      ---       ?C_INIT
      010005CAH   PUBLIC    CODE     ---       ?C_START

      ---         MODULE    ---      ---       ?C?ULCMP
      01000865H   PUBLIC    CODE     ---       ?C?ULCMP

      ---         MODULE    ---      ---       ?C?ULSHR
      01000876H   PUBLIC    CODE     ---       ?C?ULSHR

      ---         MODULE    ---      ---       ?C?LSTPDATA
      01000889H   PUBLIC    CODE     ---       ?C?LSTPDATA

      ---         MODULE    ---      ---       ?C?LSTKPDATA
      01000895H   PUBLIC    CODE     ---       ?C?LSTKPDATA

      ---         MODULE    ---      ---       ?C?ICALL
      010008AEH   PUBLIC    CODE     ---       ?C?ICALL
      010008B2H   PUBLIC    CODE     ---       ?C?ICALL2

Program Size: data=19.2 xdata=24 const=125 code=2901
LX51 RUN COMPLETE.  0 WARNING(S),  0 ERROR(S)
