LX51 LINKER/LOCATER V4.66.1.0                                                           10/08/2016  19:44:16  PAGE 1


LX51 LINKER/LOCATER V4.66.1.0, INVOKED BY:
C:\KEIL\C51\BIN\LX51.EXE STARTUP.obj, sync.obj, main.obj, task.obj, key.obj, led.obj, pwm.obj, display.obj, power.obj, l
>> m567.obj, usart.obj TO lock REMOVEUNUSED


CPU MODE:     8051 MODE
MEMORY MODEL: LARGE


INPUT MODULES INCLUDED:
  STARTUP.obj (?C_STARTUP)
         COMMENT TYPE 1: A51 / ASM51 Assembler
  sync.obj (SYNC)
         COMMENT TYPE 0: C51 V9.52.0.0
  main.obj (MAIN)
         COMMENT TYPE 0: C51 V9.52.0.0
  task.obj (TASK)
         COMMENT TYPE 0: C51 V9.52.0.0
  key.obj (KEY)
         COMMENT TYPE 0: C51 V9.52.0.0
  led.obj (LED)
         COMMENT TYPE 0: C51 V9.52.0.0
  pwm.obj (PWM)
         COMMENT TYPE 0: C51 V9.52.0.0
  display.obj (DISPLAY)
         COMMENT TYPE 0: C51 V9.52.0.0
  power.obj (POWER)
         COMMENT TYPE 0: C51 V9.52.0.0
  lm567.obj (LM567)
         COMMENT TYPE 0: C51 V9.52.0.0
  usart.obj (USART)
         COMMENT TYPE 0: C51 V9.52.0.0
  C:\KEIL\C51\LIB\C51L.LIB (?C_INIT)
         COMMENT TYPE 1: A51 / ASM51 Assembler
  C:\KEIL\C51\LIB\C51L.LIB (?C?COPY)
         COMMENT TYPE 1: A51 / ASM51 Assembler
  C:\KEIL\C51\LIB\C51L.LIB (?C?CLDPTR)
         COMMENT TYPE 1: A51 / ASM51 Assembler
  C:\KEIL\C51\LIB\C51L.LIB (?C?CLDOPTR)
         COMMENT TYPE 1: A51 / ASM51 Assembler
  C:\KEIL\C51\LIB\C51L.LIB (?C?CSTOPTR)
         COMMENT TYPE 1: A51 / ASM51 Assembler
  C:\KEIL\C51\LIB\C51L.LIB (?C?IMUL)
         COMMENT TYPE 1: A51 / ASM51 Assembler
  C:\KEIL\C51\LIB\C51L.LIB (?C?ILDIX)
         COMMENT TYPE 1: A51 / ASM51 Assembler
  C:\KEIL\C51\LIB\C51L.LIB (?C?ILDOPTR)
         COMMENT TYPE 1: A51 / ASM51 Assembler
  C:\KEIL\C51\LIB\C51L.LIB (?C?SLDIV)
         COMMENT TYPE 1: A51 / ASM51 Assembler
  C:\KEIL\C51\LIB\C51L.LIB (?C?SLCMP)
         COMMENT TYPE 1: A51 / ASM51 Assembler
  C:\KEIL\C51\LIB\C51L.LIB (?C?ICALL)
         COMMENT TYPE 1: A51 / ASM51 Assembler
  C:\KEIL\C51\LIB\C51L.LIB (?C?MEMSET)
         COMMENT TYPE 1: A51 / ASM51 Assembler
  C:\KEIL\C51\LIB\C51L.LIB (?C?ULDIV)
         COMMENT TYPE 1: A51 / ASM51 Assembler


ACTIVE MEMORY CLASSES OF MODULE:  lock (?C_STARTUP)

BASE        START       END         USED      MEMORY CLASS
==========================================================
C:000000H   C:000000H   C:00FFFFH   002CD7H   CODE
I:000000H   I:000000H   I:0000FFH   000001H   IDATA
LX51 LINKER/LOCATER V4.66.1.0                                                         10/08/2016  19:44:16  PAGE 2


X:000000H   X:000000H   X:00FFFFH   00016DH   XDATA
I:000020H.0 I:000020H.0 I:00002FH.7 000000H.6 BIT
C:000000H   C:000000H   C:00FFFFH   0001E7H   CONST
I:000000H   I:000000H   I:00007FH   000010H   DATA


MEMORY MAP OF MODULE:  lock (?C_STARTUP)


START     STOP      LENGTH    ALIGN  RELOC    MEMORY CLASS   SEGMENT NAME
=========================================================================

* * * * * * * * * * *   D A T A   M E M O R Y   * * * * * * * * * * * * *
000000H   000007H   000008H   ---    AT..     DATA           "REG BANK 0"
000008H   00000FH   000008H   ---    AT..     DATA           "REG BANK 1"
000010H.0 00001FH.7 000010H.0 ---    ---      **GAP**
000020H.0 000020H.1 000000H.2 BIT    UNIT     BIT            ?BI?POWER
000020H.2 000020H.2 000000H.1 BIT    UNIT     BIT            ?BI?SYNC
000020H.3 000020H.3 000000H.1 BIT    UNIT     BIT            ?BI?DISPLAY
000020H.4 000020H.4 000000H.1 BIT    UNIT     BIT            ?BI?USART
000020H.5 000020H.5 000000H.1 BIT    UNIT     BIT            _BIT_GROUP_
000020H.6 000020H   000000H.2 ---    ---      **GAP**
000021H   000021H   000001H   BYTE   UNIT     IDATA          ?STACK

* * * * * * * * * * *   C O D E   M E M O R Y   * * * * * * * * * * * * *
000000H   000002H   000003H   ---    OFFS..   CODE           ?CO??C_STARTUP?0
000003H   000005H   000003H   BYTE   OFFS..   CODE           ?POWER?00003
000006H   000008H   000003H   BYTE   UNIT     CODE           ?PR?VOLUME_INCREASE_CALLBACK?KEY
000009H   000009H   000001H   BYTE   UNIT     CODE           ?PR?LED_DISPLAY_OFF_DRIVER?DISPLAY
00000AH   00000AH   000001H   BYTE   UNIT     CODE           ?PR?LED_DISPLAY_OFF_HALF_CYCLE_REACHED?DISPLAY
00000BH   00000DH   000003H   BYTE   OFFS..   CODE           ?SYNC?0000B
00000EH   000022H   000015H   BYTE   UNIT     CODE           ?PR?CYCLE_BASED_CONTROL?SYNC
000023H   000025H   000003H   BYTE   OFFS..   CODE           ?LM567?00023
000026H   00050AH   0004E5H   BYTE   UNIT     CODE           ?PR?COLOR_BREATHE_7_HALF_CYCLE_REACHED?DISPLAY
00050BH   000901H   0003F7H   BYTE   UNIT     CODE           ?PR?COLOR_CHASING_7_HALF_CYCLE_REACHED?DISPLAY
000902H   000BDCH   0002DBH   BYTE   UNIT     CODE           ?PR?FIRE_WORK_HALF_CYCLE_REACHED?DISPLAY
000BDDH   000EB0H   0002D4H   BYTE   UNIT     CODE           ?C?LIB_CODE
000EB1H   001124H   000274H   BYTE   UNIT     CODE           ?PR?HOT_WHEELS_HALF_CYCLE_REACHED?DISPLAY
001125H   001351H   00022DH   BYTE   UNIT     CODE           ?PR?RAINBOW_CHASING_HALF_CYCLE_REACHED?DISPLAY
001352H   001554H   000203H   BYTE   UNIT     CODE           ?PR?COLOR_BREATHE_3_CYCLE_REACHED?DISPLAY
001555H   001721H   0001CDH   BYTE   UNIT     CODE           ?PR?MUSIC_SENSOR_HALF_CYCLE_REACHED?DISPLAY
001722H   0018B3H   000192H   BYTE   UNIT     CODE           ?PR?COMBINATION_HALF_CYCLE_REACHED?DISPLAY
0018B4H   0019AEH   0000FBH   BYTE   UNIT     CODE           ?PR?SHORT_KEY_FUNC_DISPATCHER?KEY
0019AFH   001A82H   0000D4H   BYTE   UNIT     CODE           ?PR?KEY_SCAN_TASK?KEY
001A83H   001B50H   0000CEH   BYTE   UNIT     CODE           ?PR?_UART_DISPATCH_GP228_CMD?LM567
001B51H   001C1DH   0000CDH   BYTE   UNIT     CODE           ?PR?_PWMX_CONFIGURATION?PWM
001C1EH   001CE4H   0000C7H   BYTE   UNIT     CODE           ?PR?COLOR_CHASING_7_DRIVER_INIT?DISPLAY
001CE5H   001DA3H   0000BFH   BYTE   UNIT     CODE           ?PR?WHITE_BREATHE_HALF_CYCLE_REACHED?DISPLAY
001DA4H   001E5CH   0000B9H   BYTE   UNIT     CODE           ?PR?_LED_SYC_COLOR?DISPLAY
001E5DH   001EF3H   000097H   BYTE   UNIT     CODE           ?PR?MAIN?MAIN
001EF4H   001F7FH   00008CH   BYTE   UNIT     CODE           ?C_C51STARTUP
001F80H   002008H   000089H   BYTE   UNIT     CODE           ?C_INITSEG
002009H   002090H   000088H   BYTE   UNIT     CODE           ?PR?RAINBOW_CHASING_DRIVER_INIT?DISPLAY
002091H   002110H   000080H   BYTE   UNIT     CODE           ?PR?_LED_COLOR_8BIT?LED
002111H   00218EH   00007EH   BYTE   UNIT     CODE           ?PR?_PWMX_SETUP_DUTYCYCLE_BASED?PWM
00218FH   002208H   00007AH   BYTE   UNIT     CODE           ?PR?UART1_INT?LM567
002209H   002281H   000079H   BYTE   UNIT     CODE           ?PR?IO_KEYSCAN_G?KEY
002282H   0022F6H   000075H   BYTE   UNIT     CODE           ?PR?_COUNT_DOWN_AT?KEY
0022F7H   00235FH   000069H   BYTE   UNIT     CODE           ?PR?LONG_KEY_FUNC_DISPATCHER?KEY
002360H   0023C6H   000067H   BYTE   UNIT     CODE           ?PR?HOT_WHEELS_DRIVER_INIT?DISPLAY
0023C7H   002426H   000060H   BYTE   UNIT     CODE           ?PR?TM0_ISR?SYNC
002427H   002484H   00005EH   BYTE   UNIT     CODE           ?PR?_GETSTRING1?LM567
002485H   0024DCH   000058H   BYTE   UNIT     CODE           ?PR?PWM_INIT?PWM
0024DDH   002533H   000057H   BYTE   UNIT     CODE           ?PR?FIRE_WORK_DRIVER_INIT?DISPLAY
002534H   00258AH   000057H   BYTE   UNIT     CODE           ?PR?_USART_RX_BLOCK?USART
LX51 LINKER/LOCATER V4.66.1.0                                                         10/08/2016  19:44:16  PAGE 3


00258BH   0025DDH   000053H   BYTE   UNIT     CODE           ?PR?LED_CYCLE_BASED_ADJUST?DISPLAY
0025DEH   00262DH   000050H   BYTE   UNIT     CODE           ?PR?COLOR_BREATHE_7_DRIVER_INIT?DISPLAY
00262EH   00267CH   00004FH   BYTE   UNIT     CODE           ?PR?BLE_INIT?LM567
00267DH   0026CAH   00004EH   BYTE   UNIT     CODE           ?PR?COLOR_BREATHE_3_DRIVER_INIT?DISPLAY
0026CBH   002718H   00004EH   BYTE   UNIT     CODE           ?PR?WHITE_BREATHE_DRIVER_INIT?DISPLAY
002719H   002766H   00004EH   BYTE   UNIT     CODE           ?PR?COMBINATION_DRIVER_INIT?DISPLAY
002767H   0027B4H   00004EH   BYTE   UNIT     CODE           ?PR?MUSIC_SENSOR_DRIVER_INIT?DISPLAY
0027B5H   0027FDH   000049H   BYTE   UNIT     CODE           ?PR?MOON_LIGHT_DRIVER_INIT?DISPLAY
0027FEH   002843H   000046H   BYTE   UNIT     CODE           ?PR?_POWER_LEVEL_8BIT?POWER
002844H   002888H   000045H   BYTE   UNIT     CODE           ?PR?_PWMX_SET_EDGE?PWM
002889H   0028CCH   000044H   BYTE   UNIT     CODE           ?C?LDIV
0028CDH   00290EH   000042H   BYTE   UNIT     CODE           ?PR?LED_DISPLAY_OFF_DRIVER_INIT?DISPLAY
00290FH   00294EH   000040H   BYTE   UNIT     CODE           ?PR?_COUNT_DOWN_RELOAD?KEY
00294FH   00298CH   00003EH   BYTE   UNIT     CODE           ?PR?HALF_CYCLE_REACHED?DISPLAY
00298DH   0029C9H   00003DH   BYTE   UNIT     CODE           ?PR?KEY_IO_INIT?KEY
0029CAH   0029F7H   00002EH   BYTE   UNIT     CODE           ?PR?_USART_INIT?USART
0029F8H   002A24H   00002DH   BYTE   UNIT     CODE           ?PR?KEY_DUTY_TASK?KEY
002A25H   002A50H   00002CH   BYTE   UNIT     CODE           ?PR?COUNT_DOWN_INIT_ALL_TASK?KEY
002A51H   002A7AH   00002AH   BYTE   UNIT     CODE           ?PR?LED_CONFIG_CHANGE?LED
002A7BH   002AA4H   00002AH   BYTE   UNIT     CODE           ?PR?LED_MODE_CHANGED?DISPLAY
002AA5H   002AC6H   000022H   BYTE   UNIT     CODE           ?PR?_COUNTDOWN_OFF?SYNC
002AC7H   002AE4H   00001EH   BYTE   UNIT     CODE           ?PR?_CTRL_MODE_CHANGED?DISPLAY
002AE5H   002B00H   00001CH   BYTE   UNIT     CODE           ?PR?COUNT_DOWN_AT_ALL_TASK?KEY
002B01H   002B1BH   00001BH   BYTE   UNIT     CODE           ?PR?_PWMX_GPIO_SET?PWM
002B1CH   002B36H   00001BH   BYTE   UNIT     CODE           ?PR?_CTRL_LUMINS_CHANGED?DISPLAY
002B37H   002B51H   00001BH   BYTE   UNIT     CODE           ?PR?USART_SHARE_TIMER2?USART
002B52H   002B6BH   00001AH   BYTE   UNIT     CODE           ?PR?INIT_SYSTEM_COMPONENT?MAIN
002B6CH   002B84H   000019H   BYTE   UNIT     CODE           ?PR?GETADCRESULT?DISPLAY
002B85H   002B9BH   000017H   BYTE   UNIT     CODE           ?PR?T0_CODE?LED
002B9CH   002BB2H   000017H   BYTE   UNIT     CODE           ?PR?EXINT0?POWER
002BB3H   002BC8H   000016H   BYTE   UNIT     CODE           ?PR?T1_CODE?LED
002BC9H   002BDEH   000016H   BYTE   UNIT     CODE           ?PR?_PWM_SOURCECLK_DUTY?PWM
002BDFH   002BF2H   000014H   BYTE   UNIT     CODE           ?PR?INIT_SYSTEM_TICK?SYNC
002BF3H   002C06H   000014H   BYTE   UNIT     CODE           ?PR?_COUNT_DOWN_INIT?KEY
002C07H   002C19H   000013H   BYTE   UNIT     CODE           ?PR?DECREASE_KEY_HOLD_INTERVAL?KEY
002C1AH   002C2BH   000012H   BYTE   UNIT     CODE           ?PR?_CTRL_SPEED_LEVEL_CHANGED?DISPLAY
002C2CH   002C3CH   000011H   BYTE   UNIT     CODE           ?PR?DISPLAY_STARTUP_INIT?DISPLAY
002C3DH   002C4CH   000010H   BYTE   UNIT     CODE           ?PR?POWER_SELECT_LEVEL?POWER
002C4DH   002C5CH   000010H   BYTE   UNIT     CODE           ?PR?UART_PROCESS_RECIEVED?LM567
002C5DH   002C6BH   00000FH   BYTE   UNIT     CODE           ?PR?INIT_ADC?DISPLAY
002C6CH   002C79H   00000EH   BYTE   UNIT     CODE           ?PR?PWM_PIN_INIT?PWM
002C7AH   002C85H   00000CH   BYTE   UNIT     CODE           ?PR?INIT_SYNC_OBJECT?SYNC
002C86H   002C8FH   00000AH   BYTE   UNIT     CODE           ?PR?_PWMX_SETUP_DUTYCYCLE?PWM
002C90H   002C98H   000009H   BYTE   UNIT     CODE           ?PR?POWER_CONFIG_INIT?POWER
002C99H   002C9FH   000007H   BYTE   UNIT     CODE           ?PR?POWER_OVERLOAD_PROTECT?POWER
002CA0H   002CA5H   000006H   BYTE   UNIT     CODE           ?PR?INSTANT_EFFECTIVE_INIT?MAIN
002CA6H   002CABH   000006H   BYTE   UNIT     CODE           ?PR?INIT_LOGIC_PARAMS?MAIN
002CACH   002CAEH   000003H   BYTE   UNIT     CODE           ?PR?VOLUME_DECREASE_CALLBACK?KEY
002CAFH   002CB1H   000003H   BYTE   UNIT     CODE           ?PR?BLUETOOTH_ON_OFF_CALLBACK?KEY
002CB2H   002CB4H   000003H   BYTE   UNIT     CODE           ?PR?BLUETOOTH_PAIR_CALLBACK?KEY
002CB5H   002CB7H   000003H   BYTE   UNIT     CODE           ?PR?LED_DISPLAY_TASK?DISPLAY
002CB8H   002CBAH   000003H   BYTE   UNIT     CODE           ?PR?MOON_LIGHT_DRIVER?DISPLAY
002CBBH   002CBDH   000003H   BYTE   UNIT     CODE           ?PR?FIRE_WORK_DRIVER?DISPLAY
002CBEH   002CC0H   000003H   BYTE   UNIT     CODE           ?PR?HOT_WHEELS_DRIVER?DISPLAY
002CC1H   002CC3H   000003H   BYTE   UNIT     CODE           ?PR?RAINBOW_CHASING_DRIVER?DISPLAY
002CC4H   002CC6H   000003H   BYTE   UNIT     CODE           ?PR?COLOR_CHASING_7_DRIVER?DISPLAY
002CC7H   002CC9H   000003H   BYTE   UNIT     CODE           ?PR?COLOR_BREATHE_3_DRIVER?DISPLAY
002CCAH   002CCCH   000003H   BYTE   UNIT     CODE           ?PR?COLOR_BREATHE_7_DRIVER?DISPLAY
002CCDH   002CCFH   000003H   BYTE   UNIT     CODE           ?PR?WHITE_BREATHE_DRIVER?DISPLAY
002CD0H   002CD2H   000003H   BYTE   UNIT     CODE           ?PR?COMBINATION_DRIVER?DISPLAY
002CD3H   002CD5H   000003H   BYTE   UNIT     CODE           ?PR?MUSIC_SENSOR_DRIVER?DISPLAY
002CD6H   002CD6H   000001H   BYTE   UNIT     CODE           ?PR?MOON_LIGHT_HALF_CYCLE_REACHED?DISPLAY
002CD7H   002E99H   0001C3H   BYTE   UNIT     CONST          ?CO?DISPLAY
002E9AH   002EBDH   000024H   BYTE   UNIT     CONST          ?CO?PWM

LX51 LINKER/LOCATER V4.66.1.0                                                         10/08/2016  19:44:16  PAGE 4


* * * * * * * * * * *  X D A T A   M E M O R Y  * * * * * * * * * * * * *
000000H   000071H   000072H   BYTE   UNIT     XDATA          ?XD?DISPLAY
000072H   0000D1H   000060H   BYTE   UNIT     XDATA          ?XD?LM567
0000D2H   000117H   000046H   BYTE   UNIT     XDATA          ?XD?USART
000118H   00013DH   000026H   BYTE   UNIT     XDATA          _XDATA_GROUP_
00013EH   00015CH   00001FH   BYTE   UNIT     XDATA          ?XD?KEY
00015DH   000169H   00000DH   BYTE   UNIT     XDATA          ?XD?SYNC
00016AH   00016BH   000002H   BYTE   UNIT     XDATA          ?XD?TASK
00016CH   00016CH   000001H   BYTE   UNIT     XDATA          ?XD?POWER

* * * * * * * * *   R E M O V E D     S E G M E N T S   * * * * * * * *
   *DEL*:           000009H   BYTE   UNIT     CODE           ?PR?SYNC_WITH_ALERT?SYNC
   *DEL*:           00000FH   BYTE   UNIT     CODE           ?PR?DELAY1000MS?KEY
   *DEL*:           000009H   BYTE   UNIT     CODE           ?PR?_COUNT_DOWN_CANCEL?KEY
   *DEL*:           00008BH   BYTE   UNIT     CODE           ?PR?_PWMX_SETUP_WIDE?PWM
   *DEL*:           000003H   BYTE   UNIT     XDATA          ?XD?_PWMX_SETUP_WIDE?PWM
   *DEL*:           000000H.1 BIT    UNIT     BIT            ?BI?_PWMX_SETUP_WIDE?PWM
   *DEL*:           000027H   BYTE   UNIT     CODE           ?PR?_TX1_WRITE2BUFF?LM567
   *DEL*:           000013H   BYTE   UNIT     CODE           ?PR?_PRINTSTRING1?LM567
   *DEL*:           000015H   BYTE   UNIT     CODE           ?PR?_USART_FINISH_RX?USART



OVERLAY MAP OF MODULE:   lock (?C_STARTUP)


FUNCTION/MODULE                                BIT_GROUP   XDATA_GROUP
--> CALLED FUNCTION/MODULE                    START  STOP  START  STOP
======================================================================
?C_C51STARTUP                                 ----- -----  ----- -----
  +--> MAIN/MAIN
  +--> ?C_INITSEG

MAIN/MAIN                                     ----- -----  ----- -----
  +--> INSTANT_EFFECTIVE_INIT/MAIN
  +--> COUNT_DOWN_INIT_ALL_TASK/KEY
  +--> KEY_DUTY_TASK/KEY
  +--> DECREASE_KEY_HOLD_INTERVAL/KEY
  +--> COUNT_DOWN_AT_ALL_TASK/KEY
  +--> UART_PROCESS_RECIEVED/LM567
  +--> _USART_RX_BLOCK/USART
  +--> CYCLE_BASED_CONTROL/SYNC
  +--> LED_DISPLAY_TASK/DISPLAY
  +--> POWER_SELECT_LEVEL/POWER
  +--> _CTRL_MODE_CHANGED/DISPLAY

INSTANT_EFFECTIVE_INIT/MAIN                   ----- -----  ----- -----
  +--> INIT_SYSTEM_COMPONENT/MAIN
  +--> INIT_LOGIC_PARAMS/MAIN

INIT_SYSTEM_COMPONENT/MAIN                    ----- -----  ----- -----
  +--> INIT_SYSTEM_TICK/SYNC
  +--> KEY_IO_INIT/KEY
  +--> POWER_CONFIG_INIT/POWER
  +--> PWM_INIT/PWM
  +--> PWM_PIN_INIT/PWM
  +--> POWER_OVERLOAD_PROTECT/POWER
  +--> INIT_ADC/DISPLAY
  +--> BLE_INIT/LM567

INIT_SYSTEM_TICK/SYNC                         ----- -----  ----- -----

KEY_IO_INIT/KEY                               ----- -----  ----- -----

POWER_CONFIG_INIT/POWER                       ----- -----  ----- -----
LX51 LINKER/LOCATER V4.66.1.0                                                         10/08/2016  19:44:16  PAGE 5



PWM_INIT/PWM                                  ----- -----  0118H 0120H
  +--> _PWMX_CONFIGURATION/PWM
  +--> _PWM_SOURCECLK_DUTY/PWM

_PWMX_CONFIGURATION/PWM                       ----- -----  0121H 0123H
  +--> _PWMX_SET_EDGE/PWM
  +--> ?CO?PWM

_PWMX_SET_EDGE/PWM                            ----- -----  ----- -----
  +--> ?CO?PWM

?CO?PWM                                       ----- -----  ----- -----

_PWM_SOURCECLK_DUTY/PWM                       ----- -----  ----- -----

PWM_PIN_INIT/PWM                              ----- -----  ----- -----
  +--> _PWMX_SETUP_DUTYCYCLE/PWM

_PWMX_SETUP_DUTYCYCLE/PWM                     ----- -----  ----- -----
  +--> _PWMX_SETUP_DUTYCYCLE_BASED/PWM

_PWMX_SETUP_DUTYCYCLE_BASED/PWM               ----- -----  013BH 013DH
  +--> _PWMX_GPIO_SET/PWM
  +--> _PWMX_SET_EDGE/PWM

_PWMX_GPIO_SET/PWM                            20H.5 20H.5  ----- -----

POWER_OVERLOAD_PROTECT/POWER                  ----- -----  ----- -----

INIT_ADC/DISPLAY                              ----- -----  ----- -----

BLE_INIT/LM567                                ----- -----  ----- -----
  +--> _USART_INIT/USART
  +--> USART_SHARE_TIMER2/USART

_USART_INIT/USART                             ----- -----  ----- -----

USART_SHARE_TIMER2/USART                      ----- -----  ----- -----

INIT_LOGIC_PARAMS/MAIN                        ----- -----  ----- -----
  +--> INIT_SYNC_OBJECT/SYNC
  +--> DISPLAY_STARTUP_INIT/DISPLAY

INIT_SYNC_OBJECT/SYNC                         ----- -----  ----- -----

DISPLAY_STARTUP_INIT/DISPLAY                  ----- -----  ----- -----
  +--> LED_DISPLAY_OFF_DRIVER_INIT/DISPLAY
  +--> LED_CONFIG_CHANGE/LED

LED_DISPLAY_OFF_DRIVER_INIT/DISPLAY           ----- -----  ----- -----

LED_CONFIG_CHANGE/LED                         ----- -----  013AH 013AH
  +--> _LED_COLOR_8BIT/LED

_LED_COLOR_8BIT/LED                           ----- -----  013BH 013BH
  +--> T1_CODE/LED
  +--> T0_CODE/LED

T1_CODE/LED                                   ----- -----  ----- -----

T0_CODE/LED                                   ----- -----  ----- -----

COUNT_DOWN_INIT_ALL_TASK/KEY                  ----- -----  ----- -----
  +--> VOLUME_INCREASE_CALLBACK/KEY
LX51 LINKER/LOCATER V4.66.1.0                                                         10/08/2016  19:44:16  PAGE 6


  +--> _COUNT_DOWN_INIT/KEY
  +--> VOLUME_DECREASE_CALLBACK/KEY
  +--> BLUETOOTH_ON_OFF_CALLBACK/KEY
  +--> BLUETOOTH_PAIR_CALLBACK/KEY

VOLUME_INCREASE_CALLBACK/KEY                  ----- -----  ----- -----

_COUNT_DOWN_INIT/KEY                          ----- -----  ----- -----

VOLUME_DECREASE_CALLBACK/KEY                  ----- -----  ----- -----

BLUETOOTH_ON_OFF_CALLBACK/KEY                 ----- -----  ----- -----

BLUETOOTH_PAIR_CALLBACK/KEY                   ----- -----  ----- -----

KEY_DUTY_TASK/KEY                             ----- -----  ----- -----
  +--> KEY_SCAN_TASK/KEY
  +--> SHORT_KEY_FUNC_DISPATCHER/KEY
  +--> LONG_KEY_FUNC_DISPATCHER/KEY

KEY_SCAN_TASK/KEY                             ----- -----  ----- -----
  +--> IO_KEYSCAN_G/KEY

IO_KEYSCAN_G/KEY                              ----- -----  ----- -----

SHORT_KEY_FUNC_DISPATCHER/KEY                 ----- -----  ----- -----
  +--> _CTRL_MODE_CHANGED/DISPLAY
  +--> POWER_SELECT_LEVEL/POWER
  +--> _COUNT_DOWN_RELOAD/KEY

_CTRL_MODE_CHANGED/DISPLAY                    ----- -----  ----- -----
  +--> LED_MODE_CHANGED/DISPLAY

LED_MODE_CHANGED/DISPLAY                      ----- -----  ----- -----
  +--> ?CO?DISPLAY
  +--> LED_CONFIG_CHANGE/LED

?CO?DISPLAY                                   ----- -----  ----- -----
  +--> LED_DISPLAY_OFF_DRIVER_INIT/DISPLAY
  +--> MOON_LIGHT_DRIVER_INIT/DISPLAY
  +--> FIRE_WORK_DRIVER_INIT/DISPLAY
  +--> HOT_WHEELS_DRIVER_INIT/DISPLAY
  +--> RAINBOW_CHASING_DRIVER_INIT/DISPLAY
  +--> COLOR_CHASING_7_DRIVER_INIT/DISPLAY
  +--> COLOR_BREATHE_3_DRIVER_INIT/DISPLAY
  +--> COLOR_BREATHE_7_DRIVER_INIT/DISPLAY
  +--> WHITE_BREATHE_DRIVER_INIT/DISPLAY
  +--> COMBINATION_DRIVER_INIT/DISPLAY
  +--> MUSIC_SENSOR_DRIVER_INIT/DISPLAY
  +--> LED_DISPLAY_OFF_DRIVER/DISPLAY
  +--> MOON_LIGHT_DRIVER/DISPLAY
  +--> FIRE_WORK_DRIVER/DISPLAY
  +--> HOT_WHEELS_DRIVER/DISPLAY
  +--> RAINBOW_CHASING_DRIVER/DISPLAY
  +--> COLOR_CHASING_7_DRIVER/DISPLAY
  +--> COLOR_BREATHE_3_DRIVER/DISPLAY
  +--> COLOR_BREATHE_7_DRIVER/DISPLAY
  +--> WHITE_BREATHE_DRIVER/DISPLAY
  +--> COMBINATION_DRIVER/DISPLAY
  +--> MUSIC_SENSOR_DRIVER/DISPLAY
  +--> LED_DISPLAY_OFF_HALF_CYCLE_REACHED/DISPLAY
  +--> MOON_LIGHT_HALF_CYCLE_REACHED/DISPLAY
  +--> FIRE_WORK_HALF_CYCLE_REACHED/DISPLAY
  +--> HOT_WHEELS_HALF_CYCLE_REACHED/DISPLAY
  +--> RAINBOW_CHASING_HALF_CYCLE_REACHED/DISPLAY
LX51 LINKER/LOCATER V4.66.1.0                                                         10/08/2016  19:44:16  PAGE 7


  +--> COLOR_CHASING_7_HALF_CYCLE_REACHED/DISPLAY
  +--> COLOR_BREATHE_3_CYCLE_REACHED/DISPLAY
  +--> COLOR_BREATHE_7_HALF_CYCLE_REACHED/DISPLAY
  +--> WHITE_BREATHE_HALF_CYCLE_REACHED/DISPLAY
  +--> COMBINATION_HALF_CYCLE_REACHED/DISPLAY
  +--> MUSIC_SENSOR_HALF_CYCLE_REACHED/DISPLAY

MOON_LIGHT_DRIVER_INIT/DISPLAY                ----- -----  ----- -----

FIRE_WORK_DRIVER_INIT/DISPLAY                 ----- -----  ----- -----

HOT_WHEELS_DRIVER_INIT/DISPLAY                ----- -----  ----- -----

RAINBOW_CHASING_DRIVER_INIT/DISPLAY           ----- -----  ----- -----

COLOR_CHASING_7_DRIVER_INIT/DISPLAY           ----- -----  ----- -----

COLOR_BREATHE_3_DRIVER_INIT/DISPLAY           ----- -----  ----- -----

COLOR_BREATHE_7_DRIVER_INIT/DISPLAY           ----- -----  ----- -----

WHITE_BREATHE_DRIVER_INIT/DISPLAY             ----- -----  ----- -----

COMBINATION_DRIVER_INIT/DISPLAY               ----- -----  ----- -----

MUSIC_SENSOR_DRIVER_INIT/DISPLAY              ----- -----  ----- -----

LED_DISPLAY_OFF_DRIVER/DISPLAY                ----- -----  ----- -----

MOON_LIGHT_DRIVER/DISPLAY                     ----- -----  ----- -----
  +--> LED_CONFIG_CHANGE/LED

FIRE_WORK_DRIVER/DISPLAY                      ----- -----  ----- -----
  +--> LED_CONFIG_CHANGE/LED

HOT_WHEELS_DRIVER/DISPLAY                     ----- -----  ----- -----
  +--> LED_CONFIG_CHANGE/LED

RAINBOW_CHASING_DRIVER/DISPLAY                ----- -----  ----- -----
  +--> LED_CONFIG_CHANGE/LED

COLOR_CHASING_7_DRIVER/DISPLAY                ----- -----  ----- -----
  +--> LED_CONFIG_CHANGE/LED

COLOR_BREATHE_3_DRIVER/DISPLAY                ----- -----  ----- -----
  +--> LED_CONFIG_CHANGE/LED

COLOR_BREATHE_7_DRIVER/DISPLAY                ----- -----  ----- -----
  +--> LED_CONFIG_CHANGE/LED

WHITE_BREATHE_DRIVER/DISPLAY                  ----- -----  ----- -----
  +--> LED_CONFIG_CHANGE/LED

COMBINATION_DRIVER/DISPLAY                    ----- -----  ----- -----
  +--> LED_CONFIG_CHANGE/LED

MUSIC_SENSOR_DRIVER/DISPLAY                   ----- -----  ----- -----
  +--> LED_CONFIG_CHANGE/LED

LED_DISPLAY_OFF_HALF_CYCLE_REACHED/DISPL+     ----- -----  ----- -----
... AY

MOON_LIGHT_HALF_CYCLE_REACHED/DISPLAY         ----- -----  ----- -----

FIRE_WORK_HALF_CYCLE_REACHED/DISPLAY          ----- -----  ----- -----
LX51 LINKER/LOCATER V4.66.1.0                                                         10/08/2016  19:44:16  PAGE 8



HOT_WHEELS_HALF_CYCLE_REACHED/DISPLAY         ----- -----  ----- -----

RAINBOW_CHASING_HALF_CYCLE_REACHED/DISPL+     ----- -----  ----- -----
... AY

COLOR_CHASING_7_HALF_CYCLE_REACHED/DISPL+     ----- -----  ----- -----
... AY

COLOR_BREATHE_3_CYCLE_REACHED/DISPLAY         ----- -----  ----- -----

COLOR_BREATHE_7_HALF_CYCLE_REACHED/DISPL+     ----- -----  ----- -----
... AY

WHITE_BREATHE_HALF_CYCLE_REACHED/DISPLAY      ----- -----  ----- -----

COMBINATION_HALF_CYCLE_REACHED/DISPLAY        ----- -----  ----- -----

MUSIC_SENSOR_HALF_CYCLE_REACHED/DISPLAY       ----- -----  ----- -----
  +--> GETADCRESULT/DISPLAY

GETADCRESULT/DISPLAY                          ----- -----  ----- -----

POWER_SELECT_LEVEL/POWER                      ----- -----  ----- -----
  +--> _POWER_LEVEL_8BIT/POWER

_POWER_LEVEL_8BIT/POWER                       ----- -----  013AH 013AH
  +--> _PWMX_SETUP_DUTYCYCLE/PWM

_COUNT_DOWN_RELOAD/KEY                        ----- -----  0118H 0119H

LONG_KEY_FUNC_DISPATCHER/KEY                  ----- -----  ----- -----
  +--> _COUNT_DOWN_RELOAD/KEY

DECREASE_KEY_HOLD_INTERVAL/KEY                ----- -----  ----- -----

COUNT_DOWN_AT_ALL_TASK/KEY                    ----- -----  ----- -----
  +--> _COUNT_DOWN_AT/KEY

_COUNT_DOWN_AT/KEY                            ----- -----  0118H 0119H

UART_PROCESS_RECIEVED/LM567                   ----- -----  0118H 0137H
  +--> _GETSTRING1/LM567
  +--> _UART_DISPATCH_GP228_CMD/LM567

_GETSTRING1/LM567                             ----- -----  0138H 013AH

_UART_DISPATCH_GP228_CMD/LM567                ----- -----  0138H 0139H
  +--> _CTRL_MODE_CHANGED/DISPLAY
  +--> POWER_SELECT_LEVEL/POWER
  +--> _LED_SYC_COLOR/DISPLAY
  +--> _COUNTDOWN_OFF/SYNC
  +--> _CTRL_LUMINS_CHANGED/DISPLAY
  +--> _CTRL_SPEED_LEVEL_CHANGED/DISPLAY

_LED_SYC_COLOR/DISPLAY                        ----- -----  ----- -----
  +--> LED_CONFIG_CHANGE/LED

_COUNTDOWN_OFF/SYNC                           ----- -----  ----- -----

_CTRL_LUMINS_CHANGED/DISPLAY                  ----- -----  ----- -----

_CTRL_SPEED_LEVEL_CHANGED/DISPLAY             ----- -----  ----- -----

_USART_RX_BLOCK/USART                         ----- -----  ----- -----
LX51 LINKER/LOCATER V4.66.1.0                                                         10/08/2016  19:44:16  PAGE 9



CYCLE_BASED_CONTROL/SYNC                      ----- -----  ----- -----

LED_DISPLAY_TASK/DISPLAY                      ----- -----  ----- -----
  +--> LED_CYCLE_BASED_ADJUST/DISPLAY

LED_CYCLE_BASED_ADJUST/DISPLAY                ----- -----  ----- -----
  +--> ?CO?DISPLAY
  +--> HALF_CYCLE_REACHED/DISPLAY

HALF_CYCLE_REACHED/DISPLAY                    ----- -----  ----- -----
  +--> ?CO?DISPLAY
  +--> LED_CONFIG_CHANGE/LED

?C_INITSEG                                    ----- -----  ----- -----

*** NEW ROOT ********************************

TM0_ISR/SYNC                                  ----- -----  ----- -----

*** NEW ROOT ********************************

EXINT0/POWER                                  ----- -----  ----- -----

*** NEW ROOT ********************************

UART1_INT/LM567                               ----- -----  ----- -----



PUBLIC SYMBOLS OF MODULE:  lock (?C_STARTUP)


      VALUE       CLASS    TYPE      PUBLIC SYMBOL NAME
      =================================================
*DEL*:00000000H.0 BIT      BIT       ?_PWMx_Setup_Wide?BIT
      01000CECH   CODE     ---       ?C?CLDOPTR
      01000CD3H   CODE     ---       ?C?CLDPTR
      00000000H   NUMBER   ---       ?C?CODESEG
      01000CADH   CODE     ---       ?C?COPY
      01000D19H   CODE     ---       ?C?CSTOPTR
      01000DB1H   CODE     ---       ?C?ICALL
      01000DB5H   CODE     ---       ?C?ICALL2
      01000D4DH   CODE     ---       ?C?ILDIX
      01000D63H   CODE     ---       ?C?ILDOPTR
      01000D3BH   CODE     ---       ?C?IMUL
      01000DB7H   CODE     ---       ?C?MEMSET
      01000D9BH   CODE     ---       ?C?SLCMP
      01002889H   CODE     ---       ?C?SLDIV
      01000E1FH   CODE     ---       ?C?ULDIV
      00000000H   NUMBER   ---       ?C?XDATASEG
      01001F3BH   CODE     ---       ?C_START
      01000000H   CODE     ---       ?C_STARTUP
      01002282H   CODE     ---       _count_down_at
*DEL*:00000000H   CODE     ---       _count_down_cancel
      01002BF3H   CODE     ---       _count_down_init
      01002912H   CODE     ---       _count_down_reload
      01002AA5H   CODE     ---       _countdown_off
      01002B1CH   CODE     ---       _ctrl_lumins_changed
      01002AC7H   CODE     ---       _ctrl_mode_changed
      01002C1AH   CODE     ---       _ctrl_speed_level_changed
      01002091H   CODE     ---       _led_color_8bit
      01001DA4H   CODE     ---       _led_syc_color
      010027FEH   CODE     ---       _power_level_8bit
      01002BC9H   CODE     ---       _PWM_SourceClk_Duty
LX51 LINKER/LOCATER V4.66.1.0                                                         10/08/2016  19:44:16  PAGE 10


      01001B51H   CODE     ---       _PWMx_Configuration
      01002C86H   CODE     ---       _PWMx_Setup_DutyCycle
      01002111H   CODE     ---       _PWMx_Setup_DutyCycle_Based
*DEL*:00000000H   CODE     ---       _PWMx_Setup_Wide
*DEL*:00000000H   CODE     ---       _TX1_write2buff
*DEL*:00000000H   CODE     ---       _USART_Finish_Rx
      010029CAH   CODE     ---       _USART_Init
      01002534H   CODE     ---       _USART_RX_Block
*SFR* 000000D0H.6 DATA     BIT       AC
*SFR* 000000E0H   DATA     BYTE      ACC
*SFR* 000000E0H   DATA     BIT       ACC0
*SFR* 000000E0H.1 DATA     BIT       ACC1
*SFR* 000000E0H.2 DATA     BIT       ACC2
*SFR* 000000E0H.3 DATA     BIT       ACC3
*SFR* 000000E0H.4 DATA     BIT       ACC4
*SFR* 000000E0H.5 DATA     BIT       ACC5
*SFR* 000000E0H.6 DATA     BIT       ACC6
*SFR* 000000E0H.7 DATA     BIT       ACC7
*SFR* 000000BCH   DATA     BYTE      ADC_CONTR
*SFR* 000000BDH   DATA     BYTE      ADC_RES
*SFR* 000000BEH   DATA     BYTE      ADC_RESL
*SFR* 0000008EH   DATA     BYTE      AUXR
*SFR* 000000A2H   DATA     BYTE      AUXR1
*SFR* 0000008FH   DATA     BYTE      AUXR2
*SFR* 000000F0H   DATA     BYTE      B
*SFR* 000000F0H   DATA     BIT       B0
*SFR* 000000F0H.1 DATA     BIT       B1
*SFR* 000000F0H.2 DATA     BIT       B2
*SFR* 000000F0H.3 DATA     BIT       B3
*SFR* 000000F0H.4 DATA     BIT       B4
*SFR* 000000F0H.5 DATA     BIT       B5
*SFR* 000000F0H.6 DATA     BIT       B6
*SFR* 000000F0H.7 DATA     BIT       B7
      0100262EH   CODE     ---       BLE_Init
      0200014CH   XDATA    ---       bluetooth_on_off
      01002CAFH   CODE     ---       bluetooth_on_off_callback
      02000159H   XDATA    ---       bluetooth_pair
      01002CB2H   CODE     ---       bluetooth_pair_callback
*SFR* 000000A1H   DATA     BYTE      BUS_SPEED
*SFR* 000000FAH   DATA     BYTE      CCAP0H
*SFR* 000000EAH   DATA     BYTE      CCAP0L
*SFR* 000000FBH   DATA     BYTE      CCAP1H
*SFR* 000000EBH   DATA     BYTE      CCAP1L
*SFR* 000000FCH   DATA     BYTE      CCAP2H
*SFR* 000000ECH   DATA     BYTE      CCAP2L
*SFR* 000000DAH   DATA     BYTE      CCAPM0
*SFR* 000000DBH   DATA     BYTE      CCAPM1
*SFR* 000000DCH   DATA     BYTE      CCAPM2
*SFR* 000000D8H   DATA     BIT       CCF0
*SFR* 000000D8H.1 DATA     BIT       CCF1
*SFR* 000000D8H.2 DATA     BIT       CCF2
*SFR* 000000D8H   DATA     BYTE      CCON
*SFR* 00000090H.1 DATA     BIT       CCP0
*SFR* 00000090H   DATA     BIT       CCP1
*SFR* 000000B0H.7 DATA     BIT       CCP2
*SFR* 000000D8H.7 DATA     BIT       CF
*SFR* 000000F9H   DATA     BYTE      CH
*SFR* 000000E9H   DATA     BYTE      CL
*SFR* 00000097H   DATA     BYTE      CLK_DIV
*SFR* 000000B0H.5 DATA     BIT       CLKOUT0
*SFR* 000000B0H.4 DATA     BIT       CLKOUT1
*SFR* 000000D9H   DATA     BYTE      CMOD
*SFR* 000000E6H   DATA     BYTE      CMPCR1
*SFR* 000000E7H   DATA     BYTE      CMPCR2
      0200003AH   XDATA    WORD      cnt_for_cycle_breathe_7
LX51 LINKER/LOCATER V4.66.1.0                                                         10/08/2016  19:44:16  PAGE 11


      02000038H   XDATA    WORD      cnt_for_cycle_color_breathe_3
      0200006CH   XDATA    BYTE      cnt_for_cycle_color_chasing_7
      0200006DH   XDATA    BYTE      cnt_for_cycle_combination
      02000030H   XDATA    BYTE      cnt_for_cycle_fire_work
      02000071H   XDATA    BYTE      cnt_for_cycle_hot_wheels
      0200006EH   XDATA    BYTE      cnt_for_cycle_music_sensor
      02000070H   XDATA    BYTE      cnt_for_cycle_rainbow_chasing
      02000034H   XDATA    WORD      cnt_for_cycle_white_breathe
      02000037H   XDATA    BYTE      cnt_for_one_cycle_fire_work
      02000033H   XDATA    BYTE      cnt_for_one_cycle_hot_wheels
      020000D2H   XDATA    ---       COM1
      01002AE5H   CODE     ---       count_down_at_all_task
      01002A25H   CODE     ---       count_down_init_all_task
      00000020H.2 BIT      BIT       countdown_signal_start
*SFR* 000000D8H.6 DATA     BIT       CR
*SFR* 000000D0H.7 DATA     BIT       CY
      0100000EH   CODE     ---       cycle_based_control
      01002C07H   CODE     ---       decrease_key_hold_interval
*DEL*:00000000H   CODE     ---       Delay1000ms
      01002C2CH   CODE     ---       display_startup_init
*SFR* 00000083H   DATA     BYTE      DPH
*SFR* 00000082H   DATA     BYTE      DPL
*SFR* 000000A8H.7 DATA     BIT       EA
*SFR* 000000A8H.5 DATA     BIT       EADC
*SFR* 000000A8H.6 DATA     BIT       ELVD
*SFR* 000000A8H.4 DATA     BIT       ES
*SFR* 000000A8H.1 DATA     BIT       ET0
*SFR* 000000A8H.3 DATA     BIT       ET1
*SFR* 000000A8H   DATA     BIT       EX0
*SFR* 000000A8H.2 DATA     BIT       EX1
      01002B9CH   CODE     ---       exint0
*SFR* 000000D0H.5 DATA     BIT       F0
*SFR* 000000D0H.1 DATA     BIT       F1
*SFR* 000000C3H   DATA     BYTE      IAP_ADDRH
*SFR* 000000C4H   DATA     BYTE      IAP_ADDRL
*SFR* 000000C5H   DATA     BYTE      IAP_CMD
*SFR* 000000C7H   DATA     BYTE      IAP_CONTR
*SFR* 000000C2H   DATA     BYTE      IAP_DATA
*SFR* 000000C6H   DATA     BYTE      IAP_TRIG
*SFR* 000000A8H   DATA     BYTE      IE
*SFR* 00000088H.1 DATA     BIT       IE0
*SFR* 00000088H.3 DATA     BIT       IE1
*SFR* 000000AFH   DATA     BYTE      IE2
      01002C5DH   CODE     ---       init_adc
      01002C7AH   CODE     ---       init_sync_object
      01002BDFH   CODE     ---       init_system_tick
      01002CA0H   CODE     ---       instant_effective_init
*SFR* 000000B0H.2 DATA     BIT       INT0
*SFR* 000000B0H.3 DATA     BIT       INT1
*SFR* 0000008FH   DATA     BYTE      INT_CLKO
      0200016AH   XDATA    WORD      INT_PROC
      02000154H   XDATA    BYTE      interval_bluetooth_pair_hold
      02000144H   XDATA    BYTE      interval_volume_decrease_hold
      02000147H   XDATA    BYTE      interval_volume_increase_hold
      01002209H   CODE     ---       IO_KeyScan_G
*SFR* 000000B8H   DATA     BYTE      IP
*SFR* 000000B5H   DATA     BYTE      IP2
*SFR* 000000B7H   DATA     BYTE      IPH
*SFR* 000000B6H   DATA     BYTE      IPH2
*SFR* 000000C3H   DATA     BYTE      ISP_ADDRH
*SFR* 000000C4H   DATA     BYTE      ISP_ADDRL
*SFR* 000000C5H   DATA     BYTE      ISP_CMD
*SFR* 000000C7H   DATA     BYTE      ISP_CONTR
*SFR* 000000C2H   DATA     BYTE      ISP_DATA
*SFR* 000000C6H   DATA     BYTE      ISP_TRIG
LX51 LINKER/LOCATER V4.66.1.0                                                         10/08/2016  19:44:16  PAGE 12


*SFR* 00000088H   DATA     BIT       IT0
*SFR* 00000088H.2 DATA     BIT       IT1
      010029F8H   CODE     ---       key_duty_task
      0100298DH   CODE     ---       key_io_init
      010019AFH   CODE     ---       key_scan_task
      01002A51H   CODE     ---       led_config_change
      02000000H   XDATA    ---       led_config_logic
      0200003CH   XDATA    ---       led_config_set
      01002CB5H   CODE     ---       led_display_task
      02000166H   XDATA    ---       led_flicker
      02000032H   XDATA    BYTE      led_logic_speed
      01002A7BH   CODE     ---       led_mode_changed
      02000036H   XDATA    BYTE      led_mode_logic
      0200006FH   XDATA    BYTE      led_mode_set
      00000020H.3 BIT      BIT       led_toggle_status
      0200015DH   XDATA    ---       local_time
      010022F7H   CODE     ---       long_key_func_dispatcher
      01001E5DH   CODE     ---       main
      02000160H   XDATA    ---       minute_count_down
*SFR* 000000D0H.2 DATA     BIT       OV
*SFR* 000000D0H   DATA     BIT       P
*SFR* 00000080H   DATA     BYTE      P0
*SFR* 00000080H   DATA     BIT       P00
*SFR* 00000080H.1 DATA     BIT       P01
*SFR* 00000080H.2 DATA     BIT       P02
*SFR* 00000080H.3 DATA     BIT       P03
*SFR* 00000080H.4 DATA     BIT       P04
*SFR* 00000080H.5 DATA     BIT       P05
*SFR* 00000080H.6 DATA     BIT       P06
*SFR* 00000080H.7 DATA     BIT       P07
*SFR* 00000094H   DATA     BYTE      P0M0
*SFR* 00000093H   DATA     BYTE      P0M1
*SFR* 00000090H   DATA     BYTE      P1
*SFR* 00000090H   DATA     BIT       P10
*SFR* 00000090H.1 DATA     BIT       P11
*SFR* 00000090H.2 DATA     BIT       P12
*SFR* 00000090H.3 DATA     BIT       P13
*SFR* 00000090H.4 DATA     BIT       P14
*SFR* 00000090H.5 DATA     BIT       P15
*SFR* 00000090H.6 DATA     BIT       P16
*SFR* 00000090H.7 DATA     BIT       P17
*SFR* 0000009DH   DATA     BYTE      P1ASF
*SFR* 00000092H   DATA     BYTE      P1M0
*SFR* 00000091H   DATA     BYTE      P1M1
*SFR* 000000A0H   DATA     BYTE      P2
*SFR* 000000A0H   DATA     BIT       P20
*SFR* 000000A0H.1 DATA     BIT       P21
*SFR* 000000A0H.2 DATA     BIT       P22
*SFR* 000000A0H.3 DATA     BIT       P23
*SFR* 000000A0H.4 DATA     BIT       P24
*SFR* 000000A0H.5 DATA     BIT       P25
*SFR* 000000A0H.6 DATA     BIT       P26
*SFR* 000000A0H.7 DATA     BIT       P27
*SFR* 00000096H   DATA     BYTE      P2M0
*SFR* 00000095H   DATA     BYTE      P2M1
*SFR* 000000B0H   DATA     BYTE      P3
*SFR* 000000B0H   DATA     BIT       P30
*SFR* 000000B0H.1 DATA     BIT       P31
*SFR* 000000B0H.2 DATA     BIT       P32
*SFR* 000000B0H.3 DATA     BIT       P33
*SFR* 000000B0H.4 DATA     BIT       P34
*SFR* 000000B0H.5 DATA     BIT       P35
*SFR* 000000B0H.6 DATA     BIT       P36
*SFR* 000000B0H.7 DATA     BIT       P37
*SFR* 000000B2H   DATA     BYTE      P3M0
LX51 LINKER/LOCATER V4.66.1.0                                                         10/08/2016  19:44:16  PAGE 13


*SFR* 000000B1H   DATA     BYTE      P3M1
*SFR* 000000C0H   DATA     BYTE      P4
*SFR* 000000C0H   DATA     BIT       P40
*SFR* 000000C0H.1 DATA     BIT       P41
*SFR* 000000C0H.2 DATA     BIT       P42
*SFR* 000000C0H.3 DATA     BIT       P43
*SFR* 000000C0H.4 DATA     BIT       P44
*SFR* 000000C0H.5 DATA     BIT       P45
*SFR* 000000C0H.6 DATA     BIT       P46
*SFR* 000000C0H.7 DATA     BIT       P47
*SFR* 000000B4H   DATA     BYTE      P4M0
*SFR* 000000B3H   DATA     BYTE      P4M1
*SFR* 000000C8H   DATA     BYTE      P5
*SFR* 000000C8H   DATA     BIT       P50
*SFR* 000000C8H.1 DATA     BIT       P51
*SFR* 000000C8H.2 DATA     BIT       P52
*SFR* 000000C8H.3 DATA     BIT       P53
*SFR* 000000C8H.4 DATA     BIT       P54
*SFR* 000000C8H.5 DATA     BIT       P55
*SFR* 000000C8H.6 DATA     BIT       P56
*SFR* 000000C8H.7 DATA     BIT       P57
*SFR* 000000CAH   DATA     BYTE      P5M0
*SFR* 000000C9H   DATA     BYTE      P5M1
*SFR* 000000E8H   DATA     BYTE      P6
*SFR* 000000E8H   DATA     BIT       P60
*SFR* 000000E8H.1 DATA     BIT       P61
*SFR* 000000E8H.2 DATA     BIT       P62
*SFR* 000000E8H.3 DATA     BIT       P63
*SFR* 000000E8H.4 DATA     BIT       P64
*SFR* 000000E8H.5 DATA     BIT       P65
*SFR* 000000E8H.6 DATA     BIT       P66
*SFR* 000000E8H.7 DATA     BIT       P67
*SFR* 000000CCH   DATA     BYTE      P6M0
*SFR* 000000CBH   DATA     BYTE      P6M1
*SFR* 000000F8H   DATA     BYTE      P7
*SFR* 000000F8H   DATA     BIT       P70
*SFR* 000000F8H.1 DATA     BIT       P71
*SFR* 000000F8H.2 DATA     BIT       P72
*SFR* 000000F8H.3 DATA     BIT       P73
*SFR* 000000F8H.4 DATA     BIT       P74
*SFR* 000000F8H.5 DATA     BIT       P75
*SFR* 000000F8H.6 DATA     BIT       P76
*SFR* 000000F8H.7 DATA     BIT       P77
*SFR* 000000E2H   DATA     BYTE      P7M0
*SFR* 000000E1H   DATA     BYTE      P7M1
*SFR* 000000A2H   DATA     BYTE      P_SW1
*SFR* 000000BAH   DATA     BYTE      P_SW2
*SFR* 000000B8H.5 DATA     BIT       PADC
*SFR* 000000F2H   DATA     BYTE      PCA_PWM0
*SFR* 000000F3H   DATA     BYTE      PCA_PWM1
*SFR* 000000F4H   DATA     BYTE      PCA_PWM2
*SFR* 00000087H   DATA     BYTE      PCON
*SFR* 00000097H   DATA     BYTE      PCON2
*SFR* 000000B8H.6 DATA     BIT       PLVD
      01002C90H   CODE     ---       power_config_init
      0200016CH   XDATA    BYTE      power_level_set
      01002C99H   CODE     ---       power_overload_protect
      01002C3DH   CODE     ---       power_select_level
      00000020H.0 BIT      BIT       power_status
*SFR* 000000B8H.7 DATA     BIT       PPCA
*SFR* 000000B8H.4 DATA     BIT       PS
*SFR* 000000D0H   DATA     BYTE      PSW
*SFR* 000000B8H.1 DATA     BIT       PT0
*SFR* 000000B8H.3 DATA     BIT       PT1
*SFR* 000000B0H.7 DATA     BIT       PWM2
LX51 LINKER/LOCATER V4.66.1.0                                                         10/08/2016  19:44:16  PAGE 14


*SFR* 000000A0H.1 DATA     BIT       PWM3
*SFR* 000000A0H.3 DATA     BIT       PWM5
*SFR* 00000090H.7 DATA     BIT       PWM7
      01002485H   CODE     ---       PWM_Init
      01002C6CH   CODE     ---       PWM_Pin_Init
*SFR* 000000F1H   DATA     BYTE      PWMCFG
*SFR* 000000F5H   DATA     BYTE      PWMCR
*SFR* 000000F7H   DATA     BYTE      PWMFDCR
*SFR* 000000F6H   DATA     BYTE      PWMIF
*SFR* 000000B8H   DATA     BIT       PX0
*SFR* 000000B8H.2 DATA     BIT       PX1
*SFR* 00000098H.2 DATA     BIT       RB8
*SFR* 000000B0H.7 DATA     BIT       RD
*SFR* 00000098H.4 DATA     BIT       REN
*SFR* 00000098H   DATA     BIT       RI
*SFR* 000000D6H   DATA     BYTE      RL_T2H
*SFR* 000000D7H   DATA     BYTE      RL_T2L
*SFR* 000000D4H   DATA     BYTE      RL_T3H
*SFR* 000000D5H   DATA     BYTE      RL_T3L
*SFR* 000000D2H   DATA     BYTE      RL_T4H
*SFR* 000000D3H   DATA     BYTE      RL_T4L
*SFR* 0000008CH   DATA     BYTE      RL_TH0
*SFR* 0000008DH   DATA     BYTE      RL_TH1
*SFR* 0000008AH   DATA     BYTE      RL_TL0
*SFR* 0000008BH   DATA     BYTE      RL_TL1
*SFR* 000000D0H.3 DATA     BIT       RS0
*SFR* 000000D0H.4 DATA     BIT       RS1
*SFR* 000000B0H   DATA     BIT       RXD
*SFR* 00000090H   DATA     BIT       RXD2
*SFR* 0000009BH   DATA     BYTE      S2BUF
*SFR* 0000009AH   DATA     BYTE      S2CON
*SFR* 000000ADH   DATA     BYTE      S3BUF
*SFR* 000000ACH   DATA     BYTE      S3CON
*SFR* 00000085H   DATA     BYTE      S4BUF
*SFR* 00000084H   DATA     BYTE      S4CON
*SFR* 000000A9H   DATA     BYTE      SADDR
*SFR* 000000B9H   DATA     BYTE      SADEN
*SFR* 00000099H   DATA     BYTE      SBUF
*SFR* 00000098H   DATA     BYTE      SCON
      010018B4H   CODE     ---       short_key_func_dispatcher
*SFR* 00000098H.7 DATA     BIT       SM0
*SFR* 00000098H.6 DATA     BIT       SM1
*SFR* 00000098H.5 DATA     BIT       SM2
*SFR* 00000081H   DATA     BYTE      SP
*SFR* 000000CEH   DATA     BYTE      SPCTL
*SFR* 000000CFH   DATA     BYTE      SPDAT
      02000031H   XDATA    BYTE      speed
*SFR* 00000090H.4 DATA     BIT       SPI_MISO
*SFR* 000000A0H.2 DATA     BIT       SPI_MISO_2
*SFR* 000000C0H.1 DATA     BIT       SPI_MISO_3
*SFR* 00000090H.3 DATA     BIT       SPI_MOSI
*SFR* 000000A0H.3 DATA     BIT       SPI_MOSI_2
*SFR* 000000C0H   DATA     BIT       SPI_MOSI_3
*SFR* 00000090H.5 DATA     BIT       SPI_SCLK
*SFR* 000000A0H.1 DATA     BIT       SPI_SCLK_2
*SFR* 000000C0H.3 DATA     BIT       SPI_SCLK_3
*SFR* 00000090H.2 DATA     BIT       SPI_SS
*SFR* 000000A0H.4 DATA     BIT       SPI_SS_2
*SFR* 000000C8H.4 DATA     BIT       SPI_SS_3
*SFR* 000000CDH   DATA     BYTE      SPSTAT
*DEL*:00000000H   CODE     ---       sync_with_alert
      00000020H.1 BIT      BIT       sys_status
*SFR* 000000B0H.4 DATA     BIT       T0
      01002B85H   CODE     ---       T0_code
*SFR* 000000B0H.5 DATA     BIT       T1
LX51 LINKER/LOCATER V4.66.1.0                                                         10/08/2016  19:44:16  PAGE 15


      01002BB3H   CODE     ---       T1_code
*SFR* 000000D6H   DATA     BYTE      T2H
*SFR* 000000D7H   DATA     BYTE      T2L
*SFR* 000000D4H   DATA     BYTE      T3H
*SFR* 000000D5H   DATA     BYTE      T3L
*SFR* 000000D2H   DATA     BYTE      T4H
*SFR* 000000D3H   DATA     BYTE      T4L
*SFR* 000000D1H   DATA     BYTE      T4T3M
*SFR* 00000098H.3 DATA     BIT       TB8
*SFR* 00000088H   DATA     BYTE      TCON
*SFR* 00000088H.5 DATA     BIT       TF0
*SFR* 00000088H.7 DATA     BIT       TF1
*SFR* 0000008CH   DATA     BYTE      TH0
*SFR* 0000008DH   DATA     BYTE      TH1
*SFR* 000000D6H   DATA     BYTE      TH2
*SFR* 000000D4H   DATA     BYTE      TH3
*SFR* 000000D2H   DATA     BYTE      TH4
*SFR* 00000098H.1 DATA     BIT       TI
*SFR* 0000008AH   DATA     BYTE      TL0
*SFR* 0000008BH   DATA     BYTE      TL1
*SFR* 000000D7H   DATA     BYTE      TL2
*SFR* 000000D5H   DATA     BYTE      TL3
*SFR* 000000D3H   DATA     BYTE      TL4
      010023C7H   CODE     ---       tm0_isr
*SFR* 00000089H   DATA     BYTE      TMOD
*SFR* 00000088H.4 DATA     BIT       TR0
*SFR* 00000088H.6 DATA     BIT       TR1
*SFR* 000000B0H.1 DATA     BIT       TXD
*SFR* 00000090H.1 DATA     BIT       TXD2
      0100218FH   CODE     ---       UART1_int
      01002C4DH   CODE     ---       uart_process_recieved
      01002B37H   CODE     ---       USART_Share_Timer2
      02000150H   XDATA    ---       volume_decrease
      01002CACH   CODE     ---       volume_decrease_callback
      02000155H   XDATA    ---       volume_increase
      01000006H   CODE     ---       volume_increase_callback
*SFR* 0000008FH   DATA     BYTE      WAKE_CLKO
*SFR* 000000C1H   DATA     BYTE      WDT_CONTR
*SFR* 000000ABH   DATA     BYTE      WKTCH
*SFR* 000000AAH   DATA     BYTE      WKTCL
*SFR* 000000B0H.6 DATA     BIT       WR



SYMBOL TABLE OF MODULE:  lock (?C_STARTUP)

      VALUE       REP       CLASS    TYPE      SYMBOL NAME
      ====================================================
      ---         MODULE    ---      ---       ?C_STARTUP
      01000000H   PUBLIC    CODE     ---       ?C_STARTUP
      000000E0H   SYMBOL    DATA     ---       ACC
      000000F0H   SYMBOL    DATA     ---       B
      00000083H   SYMBOL    DATA     ---       DPH
      00000082H   SYMBOL    DATA     ---       DPL
      00000000H   SYMBOL    NUMBER   ---       IBPSTACK
      00000100H   SYMBOL    NUMBER   ---       IBPSTACKTOP
      00000080H   SYMBOL    NUMBER   ---       IDATALEN
      01001EF7H   SYMBOL    CODE     ---       IDATALOOP
      00000000H   SYMBOL    NUMBER   ---       PBPSTACK
      00000100H   SYMBOL    NUMBER   ---       PBPSTACKTOP
      00000000H   SYMBOL    NUMBER   ---       PDATALEN
      00000000H   SYMBOL    NUMBER   ---       PDATASTART
      00000000H   SYMBOL    NUMBER   ---       PPAGE
      00000000H   SYMBOL    NUMBER   ---       PPAGEENABLE
      000000A0H   SYMBOL    DATA     ---       PPAGE_SFR
LX51 LINKER/LOCATER V4.66.1.0                                                         10/08/2016  19:44:16  PAGE 16


      00000081H   SYMBOL    DATA     ---       SP
      01001EF4H   SYMBOL    CODE     ---       STARTUP1
      00000000H   SYMBOL    NUMBER   ---       XBPSTACK
      00000000H   SYMBOL    NUMBER   ---       XBPSTACKTOP
      00000000H   SYMBOL    NUMBER   ---       XDATALEN
      00000000H   SYMBOL    NUMBER   ---       XDATASTART
      01000000H   LINE      CODE     ---       #126
      01001EF4H   LINE      CODE     ---       #133
      01001EF6H   LINE      CODE     ---       #134
      01001EF7H   LINE      CODE     ---       #135
      01001EF8H   LINE      CODE     ---       #136
      01001EFAH   LINE      CODE     ---       #185
      01001EFDH   LINE      CODE     ---       #196

      ---         MODULE    ---      ---       SYNC
      02000166H   PUBLIC    XDATA    ---       led_flicker
      00000020H.2 PUBLIC    BIT      BIT       countdown_signal_start
      02000160H   PUBLIC    XDATA    ---       minute_count_down
      0200015DH   PUBLIC    XDATA    ---       local_time
      010023C7H   PUBLIC    CODE     ---       tm0_isr
      01002AA5H   PUBLIC    CODE     ---       _countdown_off
      0100000EH   PUBLIC    CODE     ---       cycle_based_control
      01002BDFH   PUBLIC    CODE     ---       init_system_tick
      01002C7AH   PUBLIC    CODE     ---       init_sync_object
      000000D8H.2 SFRSYM    DATA     BIT       CCF2
      000000E0H.7 SFRSYM    DATA     BIT       ACC7
      00000093H   SFRSYM    DATA     BYTE      P0M1
      00000092H   SFRSYM    DATA     BYTE      P1M0
      00000096H   SFRSYM    DATA     BYTE      P2M0
      00000091H   SFRSYM    DATA     BYTE      P1M1
      00000080H   SFRSYM    DATA     BYTE      P0
      000000B2H   SFRSYM    DATA     BYTE      P3M0
      00000095H   SFRSYM    DATA     BYTE      P2M1
      00000090H   SFRSYM    DATA     BYTE      P1
      000000B4H   SFRSYM    DATA     BYTE      P4M0
      000000B1H   SFRSYM    DATA     BYTE      P3M1
      000000A0H   SFRSYM    DATA     BYTE      P2
      000000CAH   SFRSYM    DATA     BYTE      P5M0
      000000B3H   SFRSYM    DATA     BYTE      P4M1
      000000B0H   SFRSYM    DATA     BYTE      P3
      000000ABH   SFRSYM    DATA     BYTE      WKTCH
      000000B0H.4 SFRSYM    DATA     BIT       T0
      000000D0H.6 SFRSYM    DATA     BIT       AC
      000000CCH   SFRSYM    DATA     BYTE      P6M0
      000000C9H   SFRSYM    DATA     BYTE      P5M1
      000000C0H   SFRSYM    DATA     BYTE      P4
      000000B0H.5 SFRSYM    DATA     BIT       CLKOUT0
      000000B0H.5 SFRSYM    DATA     BIT       T1
      000000F6H   SFRSYM    DATA     BYTE      PWMIF
      000000E2H   SFRSYM    DATA     BYTE      P7M0
      000000CBH   SFRSYM    DATA     BYTE      P6M1
      000000C8H   SFRSYM    DATA     BYTE      P5
      000000C6H   SFRSYM    DATA     BYTE      ISP_TRIG
      000000A8H.7 SFRSYM    DATA     BIT       EA
      000000B0H.4 SFRSYM    DATA     BIT       CLKOUT1
      000000A0H.4 SFRSYM    DATA     BIT       SPI_SS_2
      000000E8H   SFRSYM    DATA     BYTE      P6
      000000E1H   SFRSYM    DATA     BYTE      P7M1
      000000C8H.4 SFRSYM    DATA     BIT       SPI_SS_3
      00000090H.4 SFRSYM    DATA     BIT       SPI_MISO
      00000090H.3 SFRSYM    DATA     BIT       SPI_MOSI
      00000090H.1 SFRSYM    DATA     BIT       CCP0
      000000F8H   SFRSYM    DATA     BYTE      P7
      000000AAH   SFRSYM    DATA     BYTE      WKTCL
      00000090H   SFRSYM    DATA     BIT       CCP1
LX51 LINKER/LOCATER V4.66.1.0                                                         10/08/2016  19:44:16  PAGE 17


      000000CEH   SFRSYM    DATA     BYTE      SPCTL
      000000D8H.7 SFRSYM    DATA     BIT       CF
      000000B0H.7 SFRSYM    DATA     BIT       CCP2
      000000F9H   SFRSYM    DATA     BYTE      CH
      000000F5H   SFRSYM    DATA     BYTE      PWMCR
      000000A2H   SFRSYM    DATA     BYTE      P_SW1
      000000BAH   SFRSYM    DATA     BYTE      P_SW2
      000000A8H.5 SFRSYM    DATA     BIT       EADC
      000000A0H.1 SFRSYM    DATA     BIT       SPI_SCLK_2
      000000A8H   SFRSYM    DATA     BYTE      IE
      000000C0H.3 SFRSYM    DATA     BIT       SPI_SCLK_3
      000000E9H   SFRSYM    DATA     BYTE      CL
      000000C5H   SFRSYM    DATA     BYTE      IAP_CMD
      000000FAH   SFRSYM    DATA     BYTE      CCAP0H
      000000FBH   SFRSYM    DATA     BYTE      CCAP1H
      000000FCH   SFRSYM    DATA     BYTE      CCAP2H
      000000BDH   SFRSYM    DATA     BYTE      ADC_RES
      000000B6H   SFRSYM    DATA     BYTE      IPH2
      000000D8H.6 SFRSYM    DATA     BIT       CR
      000000EAH   SFRSYM    DATA     BYTE      CCAP0L
      000000B0H.7 SFRSYM    DATA     BIT       RD
      000000F7H   SFRSYM    DATA     BYTE      PWMFDCR
      000000EBH   SFRSYM    DATA     BYTE      CCAP1L
      000000DAH   SFRSYM    DATA     BYTE      CCAPM0
      000000ECH   SFRSYM    DATA     BYTE      CCAP2L
      000000DBH   SFRSYM    DATA     BYTE      CCAPM1
      000000A8H.4 SFRSYM    DATA     BIT       ES
      000000DCH   SFRSYM    DATA     BYTE      CCAPM2
      000000B8H.5 SFRSYM    DATA     BIT       PADC
      000000A0H.2 SFRSYM    DATA     BIT       SPI_MISO_2
      000000A0H.3 SFRSYM    DATA     BIT       SPI_MOSI_2
      000000B8H   SFRSYM    DATA     BYTE      IP
      000000C0H.1 SFRSYM    DATA     BIT       SPI_MISO_3
      000000C0H   SFRSYM    DATA     BIT       SPI_MOSI_3
      00000098H   SFRSYM    DATA     BIT       RI
      000000B0H.2 SFRSYM    DATA     BIT       INT0
      000000D0H.7 SFRSYM    DATA     BIT       CY
      00000098H.1 SFRSYM    DATA     BIT       TI
      000000B0H.3 SFRSYM    DATA     BIT       INT1
      00000097H   SFRSYM    DATA     BYTE      CLK_DIV
      000000C3H   SFRSYM    DATA     BYTE      IAP_ADDRH
      00000090H   SFRSYM    DATA     BIT       RXD2
      000000C5H   SFRSYM    DATA     BYTE      ISP_CMD
      000000B8H.4 SFRSYM    DATA     BIT       PS
      00000090H.1 SFRSYM    DATA     BIT       TXD2
      00000081H   SFRSYM    DATA     BYTE      SP
      000000D9H   SFRSYM    DATA     BYTE      CMOD
      000000D8H   SFRSYM    DATA     BYTE      CCON
      000000C4H   SFRSYM    DATA     BYTE      IAP_ADDRL
      000000B8H.7 SFRSYM    DATA     BIT       PPCA
      000000D0H.2 SFRSYM    DATA     BIT       OV
      000000B0H.7 SFRSYM    DATA     BIT       PWM2
      000000A0H.1 SFRSYM    DATA     BIT       PWM3
      000000E6H   SFRSYM    DATA     BYTE      CMPCR1
      000000B0H.6 SFRSYM    DATA     BIT       WR
      000000E7H   SFRSYM    DATA     BYTE      CMPCR2
      000000A0H.3 SFRSYM    DATA     BIT       PWM5
      00000090H.7 SFRSYM    DATA     BIT       PWM7
      000000A8H.6 SFRSYM    DATA     BIT       ELVD
      00000080H   SFRSYM    DATA     BIT       P00
      00000090H   SFRSYM    DATA     BIT       P10
      00000080H.1 SFRSYM    DATA     BIT       P01
      000000BCH   SFRSYM    DATA     BYTE      ADC_CONTR
      00000099H   SFRSYM    DATA     BYTE      SBUF
      00000087H   SFRSYM    DATA     BYTE      PCON
LX51 LINKER/LOCATER V4.66.1.0                                                         10/08/2016  19:44:16  PAGE 18


      000000A0H   SFRSYM    DATA     BIT       P20
      00000090H.1 SFRSYM    DATA     BIT       P11
      00000080H.2 SFRSYM    DATA     BIT       P02
      000000C3H   SFRSYM    DATA     BYTE      ISP_ADDRH
      000000B0H   SFRSYM    DATA     BIT       P30
      000000A0H.1 SFRSYM    DATA     BIT       P21
      00000090H.2 SFRSYM    DATA     BIT       P12
      00000080H.3 SFRSYM    DATA     BIT       P03
      000000C0H   SFRSYM    DATA     BIT       P40
      000000B0H.1 SFRSYM    DATA     BIT       P31
      000000A0H.2 SFRSYM    DATA     BIT       P22
      00000090H.3 SFRSYM    DATA     BIT       P13
      00000080H.4 SFRSYM    DATA     BIT       P04
      00000098H   SFRSYM    DATA     BYTE      SCON
      0000008FH   SFRSYM    DATA     BYTE      WAKE_CLKO
      000000C8H   SFRSYM    DATA     BIT       P50
      000000C0H.1 SFRSYM    DATA     BIT       P41
      000000B0H.2 SFRSYM    DATA     BIT       P32
      000000A0H.3 SFRSYM    DATA     BIT       P23
      00000090H.4 SFRSYM    DATA     BIT       P14
      00000080H.5 SFRSYM    DATA     BIT       P05
      00000089H   SFRSYM    DATA     BYTE      TMOD
      00000088H   SFRSYM    DATA     BYTE      TCON
      000000E8H   SFRSYM    DATA     BIT       P60
      000000C8H.1 SFRSYM    DATA     BIT       P51
      000000C0H.2 SFRSYM    DATA     BIT       P42
      000000B0H.3 SFRSYM    DATA     BIT       P33
      000000A0H.4 SFRSYM    DATA     BIT       P24
      00000090H.5 SFRSYM    DATA     BIT       P15
      00000080H.6 SFRSYM    DATA     BIT       P06
      000000C4H   SFRSYM    DATA     BYTE      ISP_ADDRL
      000000B8H.6 SFRSYM    DATA     BIT       PLVD
      000000F8H   SFRSYM    DATA     BIT       P70
      000000E8H.1 SFRSYM    DATA     BIT       P61
      000000C8H.2 SFRSYM    DATA     BIT       P52
      000000C0H.3 SFRSYM    DATA     BIT       P43
      000000B0H.4 SFRSYM    DATA     BIT       P34
      000000A0H.5 SFRSYM    DATA     BIT       P25
      00000090H.6 SFRSYM    DATA     BIT       P16
      00000080H.7 SFRSYM    DATA     BIT       P07
      000000F8H.1 SFRSYM    DATA     BIT       P71
      000000E8H.2 SFRSYM    DATA     BIT       P62
      000000C8H.3 SFRSYM    DATA     BIT       P53
      000000C0H.4 SFRSYM    DATA     BIT       P44
      000000B0H.5 SFRSYM    DATA     BIT       P35
      000000A0H.6 SFRSYM    DATA     BIT       P26
      00000090H.7 SFRSYM    DATA     BIT       P17
      000000F8H.2 SFRSYM    DATA     BIT       P72
      000000E8H.3 SFRSYM    DATA     BIT       P63
      000000C8H.4 SFRSYM    DATA     BIT       P54
      000000C0H.5 SFRSYM    DATA     BIT       P45
      000000B0H.6 SFRSYM    DATA     BIT       P36
      000000A0H.7 SFRSYM    DATA     BIT       P27
      000000F8H.3 SFRSYM    DATA     BIT       P73
      000000E8H.4 SFRSYM    DATA     BIT       P64
      000000C8H.5 SFRSYM    DATA     BIT       P55
      000000C0H.6 SFRSYM    DATA     BIT       P46
      000000B0H.7 SFRSYM    DATA     BIT       P37
      000000F8H.4 SFRSYM    DATA     BIT       P74
      000000E8H.5 SFRSYM    DATA     BIT       P65
      000000C8H.6 SFRSYM    DATA     BIT       P56
      000000C0H.7 SFRSYM    DATA     BIT       P47
      000000F8H.5 SFRSYM    DATA     BIT       P75
      000000E8H.6 SFRSYM    DATA     BIT       P66
      000000C8H.7 SFRSYM    DATA     BIT       P57
LX51 LINKER/LOCATER V4.66.1.0                                                         10/08/2016  19:44:16  PAGE 19


      000000F8H.6 SFRSYM    DATA     BIT       P76
      000000E8H.7 SFRSYM    DATA     BIT       P67
      000000F8H.7 SFRSYM    DATA     BIT       P77
      00000088H.1 SFRSYM    DATA     BIT       IE0
      000000A1H   SFRSYM    DATA     BYTE      BUS_SPEED
      00000088H.3 SFRSYM    DATA     BIT       IE1
      000000AFH   SFRSYM    DATA     BYTE      IE2
      000000F0H   SFRSYM    DATA     BYTE      B
      0000008EH   SFRSYM    DATA     BYTE      AUXR
      000000C7H   SFRSYM    DATA     BYTE      IAP_CONTR
      000000F1H   SFRSYM    DATA     BYTE      PWMCFG
      000000E0H   SFRSYM    DATA     BYTE      ACC
      000000A8H.1 SFRSYM    DATA     BIT       ET0
      000000A8H.3 SFRSYM    DATA     BIT       ET1
      00000088H.5 SFRSYM    DATA     BIT       TF0
      00000088H.7 SFRSYM    DATA     BIT       TF1
      000000B5H   SFRSYM    DATA     BYTE      IP2
      0000008CH   SFRSYM    DATA     BYTE      RL_TH0
      00000098H.2 SFRSYM    DATA     BIT       RB8
      0000008DH   SFRSYM    DATA     BYTE      RL_TH1
      0000008CH   SFRSYM    DATA     BYTE      TH0
      000000A8H   SFRSYM    DATA     BIT       EX0
      00000088H   SFRSYM    DATA     BIT       IT0
      000000D6H   SFRSYM    DATA     BYTE      RL_T2H
      0000008DH   SFRSYM    DATA     BYTE      TH1
      000000A8H.2 SFRSYM    DATA     BIT       EX1
      00000098H.3 SFRSYM    DATA     BIT       TB8
      00000088H.2 SFRSYM    DATA     BIT       IT1
      000000D4H   SFRSYM    DATA     BYTE      RL_T3H
      000000D6H   SFRSYM    DATA     BYTE      TH2
      000000D6H   SFRSYM    DATA     BYTE      T2H
      000000D0H   SFRSYM    DATA     BIT       P
      000000D2H   SFRSYM    DATA     BYTE      RL_T4H
      000000D4H   SFRSYM    DATA     BYTE      TH3
      000000D4H   SFRSYM    DATA     BYTE      T3H
      0000008AH   SFRSYM    DATA     BYTE      RL_TL0
      00000098H.7 SFRSYM    DATA     BIT       SM0
      000000D2H   SFRSYM    DATA     BYTE      TH4
      000000D2H   SFRSYM    DATA     BYTE      T4H
      0000008BH   SFRSYM    DATA     BYTE      RL_TL1
      0000008AH   SFRSYM    DATA     BYTE      TL0
      00000098H.6 SFRSYM    DATA     BIT       SM1
      000000D7H   SFRSYM    DATA     BYTE      RL_T2L
      0000008BH   SFRSYM    DATA     BYTE      TL1
      00000098H.5 SFRSYM    DATA     BIT       SM2
      000000D5H   SFRSYM    DATA     BYTE      RL_T3L
      000000D7H   SFRSYM    DATA     BYTE      TL2
      000000D7H   SFRSYM    DATA     BYTE      T2L
      000000D3H   SFRSYM    DATA     BYTE      RL_T4L
      000000D5H   SFRSYM    DATA     BYTE      TL3
      000000D5H   SFRSYM    DATA     BYTE      T3L
      000000B8H.1 SFRSYM    DATA     BIT       PT0
      000000D3H   SFRSYM    DATA     BYTE      TL4
      000000D3H   SFRSYM    DATA     BYTE      T4L
      000000B8H.3 SFRSYM    DATA     BIT       PT1
      000000D0H.3 SFRSYM    DATA     BIT       RS0
      000000C7H   SFRSYM    DATA     BYTE      ISP_CONTR
      00000088H.4 SFRSYM    DATA     BIT       TR0
      000000D0H.4 SFRSYM    DATA     BIT       RS1
      000000C2H   SFRSYM    DATA     BYTE      IAP_DATA
      00000088H.6 SFRSYM    DATA     BIT       TR1
      000000B8H   SFRSYM    DATA     BIT       PX0
      000000C1H   SFRSYM    DATA     BYTE      WDT_CONTR
      000000B8H.2 SFRSYM    DATA     BIT       PX1
      000000F2H   SFRSYM    DATA     BYTE      PCA_PWM0
LX51 LINKER/LOCATER V4.66.1.0                                                         10/08/2016  19:44:16  PAGE 20


      000000F3H   SFRSYM    DATA     BYTE      PCA_PWM1
      000000F4H   SFRSYM    DATA     BYTE      PCA_PWM2
      0000009DH   SFRSYM    DATA     BYTE      P1ASF
      00000083H   SFRSYM    DATA     BYTE      DPH
      000000D1H   SFRSYM    DATA     BYTE      T4T3M
      000000BEH   SFRSYM    DATA     BYTE      ADC_RESL
      00000082H   SFRSYM    DATA     BYTE      DPL
      000000CDH   SFRSYM    DATA     BYTE      SPSTAT
      000000B7H   SFRSYM    DATA     BYTE      IPH
      0000009BH   SFRSYM    DATA     BYTE      S2BUF
      00000097H   SFRSYM    DATA     BYTE      PCON2
      000000ADH   SFRSYM    DATA     BYTE      S3BUF
      00000098H.4 SFRSYM    DATA     BIT       REN
      00000085H   SFRSYM    DATA     BYTE      S4BUF
      0000009AH   SFRSYM    DATA     BYTE      S2CON
      000000ACH   SFRSYM    DATA     BYTE      S3CON
      000000C2H   SFRSYM    DATA     BYTE      ISP_DATA
      00000084H   SFRSYM    DATA     BYTE      S4CON
      000000B9H   SFRSYM    DATA     BYTE      SADEN
      000000B0H   SFRSYM    DATA     BIT       RXD
      000000A9H   SFRSYM    DATA     BYTE      SADDR
      000000B0H.1 SFRSYM    DATA     BIT       TXD
      000000F0H   SFRSYM    DATA     BIT       B0
      000000F0H.1 SFRSYM    DATA     BIT       B1
      000000C6H   SFRSYM    DATA     BYTE      IAP_TRIG
      000000A2H   SFRSYM    DATA     BYTE      AUXR1
      000000F0H.2 SFRSYM    DATA     BIT       B2
      00000090H.2 SFRSYM    DATA     BIT       SPI_SS
      0000008FH   SFRSYM    DATA     BYTE      AUXR2
      000000F0H.3 SFRSYM    DATA     BIT       B3
      000000F0H.4 SFRSYM    DATA     BIT       B4
      000000D0H.5 SFRSYM    DATA     BIT       F0
      000000F0H.5 SFRSYM    DATA     BIT       B5
      000000D0H.1 SFRSYM    DATA     BIT       F1
      0000008FH   SFRSYM    DATA     BYTE      INT_CLKO
      000000F0H.6 SFRSYM    DATA     BIT       B6
      000000E0H   SFRSYM    DATA     BIT       ACC0
      000000F0H.7 SFRSYM    DATA     BIT       B7
      000000E0H.1 SFRSYM    DATA     BIT       ACC1
      000000E0H.2 SFRSYM    DATA     BIT       ACC2
      000000E0H.3 SFRSYM    DATA     BIT       ACC3
      000000D0H   SFRSYM    DATA     BYTE      PSW
      000000E0H.4 SFRSYM    DATA     BIT       ACC4
      00000090H.5 SFRSYM    DATA     BIT       SPI_SCLK
      000000D8H   SFRSYM    DATA     BIT       CCF0
      000000E0H.5 SFRSYM    DATA     BIT       ACC5
      000000D8H.1 SFRSYM    DATA     BIT       CCF1
      000000E0H.6 SFRSYM    DATA     BIT       ACC6
      000000CFH   SFRSYM    DATA     BYTE      SPDAT
      00000094H   SFRSYM    DATA     BYTE      P0M0
      0200015FH   SYMBOL    XDATA    BYTE      key_task_interval
      02000165H   SYMBOL    XDATA    BYTE      second_task_interval

      01002C7AH   BLOCK     CODE     ---       LVL=0
      01002C7AH   LINE      CODE     ---       #27
      01002C7AH   LINE      CODE     ---       #28
      01002C80H   LINE      CODE     ---       #29
      01002C85H   LINE      CODE     ---       #30
      ---         BLOCKEND  ---      ---       LVL=0

      01002BDFH   BLOCK     CODE     ---       LVL=0
      01002BDFH   LINE      CODE     ---       #33
      01002BDFH   LINE      CODE     ---       #34
      01002BE2H   LINE      CODE     ---       #35
      01002BE5H   LINE      CODE     ---       #36
LX51 LINKER/LOCATER V4.66.1.0                                                         10/08/2016  19:44:16  PAGE 21


      01002BE8H   LINE      CODE     ---       #37
      01002BEEH   LINE      CODE     ---       #38
      01002BF0H   LINE      CODE     ---       #39
      01002BF2H   LINE      CODE     ---       #40
      ---         BLOCKEND  ---      ---       LVL=0
      00000007H   SYMBOL    DATA     BYTE      i
      00000006H   SYMBOL    DATA     BYTE      j

      0100000EH   BLOCK     CODE     ---       LVL=0
      0100000EH   LINE      CODE     ---       #55
      0100000EH   LINE      CODE     ---       #57
      01000014H   LINE      CODE     ---       #58
      01000022H   LINE      CODE     ---       #59
      01000022H   LINE      CODE     ---       #61
      ---         BLOCKEND  ---      ---       LVL=0

      01002AA5H   BLOCK     CODE     ---       LVL=0
      00000007H   SYMBOL    DATA     BYTE      time_index
      01002AA5H   BLOCK     CODE     NEAR LAB  LVL=1
      00000007H   SYMBOL    DATA     BYTE      minute
      ---         BLOCKEND  ---      ---       LVL=1
      01002AA5H   LINE      CODE     ---       #65
      01002AA5H   LINE      CODE     ---       #66
      01002AA5H   LINE      CODE     ---       #67
      01002AB1H   LINE      CODE     ---       #68
      01002AB3H   LINE      CODE     ---       #69
      01002AB6H   LINE      CODE     ---       #71
      01002AB6H   LINE      CODE     ---       #72
      01002AB8H   LINE      CODE     ---       #73
      01002ABEH   LINE      CODE     ---       #74
      01002AC3H   LINE      CODE     ---       #75
      01002AC6H   LINE      CODE     ---       #76
      01002AC6H   LINE      CODE     ---       #77
      ---         BLOCKEND  ---      ---       LVL=0

      010023C7H   BLOCK     CODE     ---       LVL=0
      010023C7H   LINE      CODE     ---       #80
      010023D2H   LINE      CODE     ---       #82
      010023D9H   LINE      CODE     ---       #83
      010023E1H   LINE      CODE     ---       #84
      010023E8H   LINE      CODE     ---       #85
      010023EEH   LINE      CODE     ---       #86
      010023EEH   LINE      CODE     ---       #88
      010023F1H   LINE      CODE     ---       #89
      010023F1H   LINE      CODE     ---       #90
      010023F9H   LINE      CODE     ---       #91
      010023F9H   LINE      CODE     ---       #92
      01002402H   LINE      CODE     ---       #93
      01002402H   LINE      CODE     ---       #94
      01002405H   LINE      CODE     ---       #95
      0100240FH   LINE      CODE     ---       #96
      0100240FH   LINE      CODE     ---       #97
      01002411H   LINE      CODE     ---       #98
      01002418H   LINE      CODE     ---       #99
      01002418H   LINE      CODE     ---       #101
      01002418H   LINE      CODE     ---       #102
      0100241EH   LINE      CODE     ---       #103
      0100241EH   LINE      CODE     ---       #104
      0100241EH   LINE      CODE     ---       #105
      ---         BLOCKEND  ---      ---       LVL=0

      ---         MODULE    ---      ---       MAIN
      01001E5DH   PUBLIC    CODE     ---       main
      01002CA0H   PUBLIC    CODE     ---       instant_effective_init
      000000D8H.2 SFRSYM    DATA     BIT       CCF2
LX51 LINKER/LOCATER V4.66.1.0                                                         10/08/2016  19:44:16  PAGE 22


      000000E0H.7 SFRSYM    DATA     BIT       ACC7
      00000093H   SFRSYM    DATA     BYTE      P0M1
      00000092H   SFRSYM    DATA     BYTE      P1M0
      00000096H   SFRSYM    DATA     BYTE      P2M0
      00000091H   SFRSYM    DATA     BYTE      P1M1
      00000080H   SFRSYM    DATA     BYTE      P0
      000000B2H   SFRSYM    DATA     BYTE      P3M0
      00000095H   SFRSYM    DATA     BYTE      P2M1
      00000090H   SFRSYM    DATA     BYTE      P1
      000000B4H   SFRSYM    DATA     BYTE      P4M0
      000000B1H   SFRSYM    DATA     BYTE      P3M1
      000000A0H   SFRSYM    DATA     BYTE      P2
      000000CAH   SFRSYM    DATA     BYTE      P5M0
      000000B3H   SFRSYM    DATA     BYTE      P4M1
      000000B0H   SFRSYM    DATA     BYTE      P3
      000000ABH   SFRSYM    DATA     BYTE      WKTCH
      000000B0H.4 SFRSYM    DATA     BIT       T0
      000000D0H.6 SFRSYM    DATA     BIT       AC
      000000CCH   SFRSYM    DATA     BYTE      P6M0
      000000C9H   SFRSYM    DATA     BYTE      P5M1
      000000C0H   SFRSYM    DATA     BYTE      P4
      000000B0H.5 SFRSYM    DATA     BIT       CLKOUT0
      000000B0H.5 SFRSYM    DATA     BIT       T1
      000000F6H   SFRSYM    DATA     BYTE      PWMIF
      000000E2H   SFRSYM    DATA     BYTE      P7M0
      000000CBH   SFRSYM    DATA     BYTE      P6M1
      000000C8H   SFRSYM    DATA     BYTE      P5
      000000C6H   SFRSYM    DATA     BYTE      ISP_TRIG
      000000A8H.7 SFRSYM    DATA     BIT       EA
      000000B0H.4 SFRSYM    DATA     BIT       CLKOUT1
      000000A0H.4 SFRSYM    DATA     BIT       SPI_SS_2
      000000E8H   SFRSYM    DATA     BYTE      P6
      000000E1H   SFRSYM    DATA     BYTE      P7M1
      000000C8H.4 SFRSYM    DATA     BIT       SPI_SS_3
      00000090H.4 SFRSYM    DATA     BIT       SPI_MISO
      00000090H.3 SFRSYM    DATA     BIT       SPI_MOSI
      00000090H.1 SFRSYM    DATA     BIT       CCP0
      000000F8H   SFRSYM    DATA     BYTE      P7
      000000AAH   SFRSYM    DATA     BYTE      WKTCL
      00000090H   SFRSYM    DATA     BIT       CCP1
      000000CEH   SFRSYM    DATA     BYTE      SPCTL
      000000D8H.7 SFRSYM    DATA     BIT       CF
      000000B0H.7 SFRSYM    DATA     BIT       CCP2
      000000F9H   SFRSYM    DATA     BYTE      CH
      000000F5H   SFRSYM    DATA     BYTE      PWMCR
      000000A2H   SFRSYM    DATA     BYTE      P_SW1
      000000BAH   SFRSYM    DATA     BYTE      P_SW2
      000000A8H.5 SFRSYM    DATA     BIT       EADC
      000000A0H.1 SFRSYM    DATA     BIT       SPI_SCLK_2
      000000A8H   SFRSYM    DATA     BYTE      IE
      000000C0H.3 SFRSYM    DATA     BIT       SPI_SCLK_3
      000000E9H   SFRSYM    DATA     BYTE      CL
      000000C5H   SFRSYM    DATA     BYTE      IAP_CMD
      000000FAH   SFRSYM    DATA     BYTE      CCAP0H
      000000FBH   SFRSYM    DATA     BYTE      CCAP1H
      000000FCH   SFRSYM    DATA     BYTE      CCAP2H
      000000BDH   SFRSYM    DATA     BYTE      ADC_RES
      000000B6H   SFRSYM    DATA     BYTE      IPH2
      000000D8H.6 SFRSYM    DATA     BIT       CR
      000000EAH   SFRSYM    DATA     BYTE      CCAP0L
      000000B0H.7 SFRSYM    DATA     BIT       RD
      000000F7H   SFRSYM    DATA     BYTE      PWMFDCR
      000000EBH   SFRSYM    DATA     BYTE      CCAP1L
      000000DAH   SFRSYM    DATA     BYTE      CCAPM0
      000000ECH   SFRSYM    DATA     BYTE      CCAP2L
LX51 LINKER/LOCATER V4.66.1.0                                                         10/08/2016  19:44:16  PAGE 23


      000000DBH   SFRSYM    DATA     BYTE      CCAPM1
      000000A8H.4 SFRSYM    DATA     BIT       ES
      000000DCH   SFRSYM    DATA     BYTE      CCAPM2
      000000B8H.5 SFRSYM    DATA     BIT       PADC
      000000A0H.2 SFRSYM    DATA     BIT       SPI_MISO_2
      000000A0H.3 SFRSYM    DATA     BIT       SPI_MOSI_2
      000000B8H   SFRSYM    DATA     BYTE      IP
      000000C0H.1 SFRSYM    DATA     BIT       SPI_MISO_3
      000000C0H   SFRSYM    DATA     BIT       SPI_MOSI_3
      00000098H   SFRSYM    DATA     BIT       RI
      000000B0H.2 SFRSYM    DATA     BIT       INT0
      000000D0H.7 SFRSYM    DATA     BIT       CY
      00000098H.1 SFRSYM    DATA     BIT       TI
      000000B0H.3 SFRSYM    DATA     BIT       INT1
      00000097H   SFRSYM    DATA     BYTE      CLK_DIV
      000000C3H   SFRSYM    DATA     BYTE      IAP_ADDRH
      00000090H   SFRSYM    DATA     BIT       RXD2
      000000C5H   SFRSYM    DATA     BYTE      ISP_CMD
      000000B8H.4 SFRSYM    DATA     BIT       PS
      00000090H.1 SFRSYM    DATA     BIT       TXD2
      00000081H   SFRSYM    DATA     BYTE      SP
      000000D9H   SFRSYM    DATA     BYTE      CMOD
      000000D8H   SFRSYM    DATA     BYTE      CCON
      000000C4H   SFRSYM    DATA     BYTE      IAP_ADDRL
      000000B8H.7 SFRSYM    DATA     BIT       PPCA
      000000D0H.2 SFRSYM    DATA     BIT       OV
      000000B0H.7 SFRSYM    DATA     BIT       PWM2
      000000A0H.1 SFRSYM    DATA     BIT       PWM3
      000000E6H   SFRSYM    DATA     BYTE      CMPCR1
      000000B0H.6 SFRSYM    DATA     BIT       WR
      000000E7H   SFRSYM    DATA     BYTE      CMPCR2
      000000A0H.3 SFRSYM    DATA     BIT       PWM5
      00000090H.7 SFRSYM    DATA     BIT       PWM7
      000000A8H.6 SFRSYM    DATA     BIT       ELVD
      00000080H   SFRSYM    DATA     BIT       P00
      00000090H   SFRSYM    DATA     BIT       P10
      00000080H.1 SFRSYM    DATA     BIT       P01
      000000BCH   SFRSYM    DATA     BYTE      ADC_CONTR
      00000099H   SFRSYM    DATA     BYTE      SBUF
      00000087H   SFRSYM    DATA     BYTE      PCON
      000000A0H   SFRSYM    DATA     BIT       P20
      00000090H.1 SFRSYM    DATA     BIT       P11
      00000080H.2 SFRSYM    DATA     BIT       P02
      000000C3H   SFRSYM    DATA     BYTE      ISP_ADDRH
      000000B0H   SFRSYM    DATA     BIT       P30
      000000A0H.1 SFRSYM    DATA     BIT       P21
      00000090H.2 SFRSYM    DATA     BIT       P12
      00000080H.3 SFRSYM    DATA     BIT       P03
      000000C0H   SFRSYM    DATA     BIT       P40
      000000B0H.1 SFRSYM    DATA     BIT       P31
      000000A0H.2 SFRSYM    DATA     BIT       P22
      00000090H.3 SFRSYM    DATA     BIT       P13
      00000080H.4 SFRSYM    DATA     BIT       P04
      00000098H   SFRSYM    DATA     BYTE      SCON
      0000008FH   SFRSYM    DATA     BYTE      WAKE_CLKO
      000000C8H   SFRSYM    DATA     BIT       P50
      000000C0H.1 SFRSYM    DATA     BIT       P41
      000000B0H.2 SFRSYM    DATA     BIT       P32
      000000A0H.3 SFRSYM    DATA     BIT       P23
      00000090H.4 SFRSYM    DATA     BIT       P14
      00000080H.5 SFRSYM    DATA     BIT       P05
      00000089H   SFRSYM    DATA     BYTE      TMOD
      00000088H   SFRSYM    DATA     BYTE      TCON
      000000E8H   SFRSYM    DATA     BIT       P60
      000000C8H.1 SFRSYM    DATA     BIT       P51
LX51 LINKER/LOCATER V4.66.1.0                                                         10/08/2016  19:44:16  PAGE 24


      000000C0H.2 SFRSYM    DATA     BIT       P42
      000000B0H.3 SFRSYM    DATA     BIT       P33
      000000A0H.4 SFRSYM    DATA     BIT       P24
      00000090H.5 SFRSYM    DATA     BIT       P15
      00000080H.6 SFRSYM    DATA     BIT       P06
      000000C4H   SFRSYM    DATA     BYTE      ISP_ADDRL
      000000B8H.6 SFRSYM    DATA     BIT       PLVD
      000000F8H   SFRSYM    DATA     BIT       P70
      000000E8H.1 SFRSYM    DATA     BIT       P61
      000000C8H.2 SFRSYM    DATA     BIT       P52
      000000C0H.3 SFRSYM    DATA     BIT       P43
      000000B0H.4 SFRSYM    DATA     BIT       P34
      000000A0H.5 SFRSYM    DATA     BIT       P25
      00000090H.6 SFRSYM    DATA     BIT       P16
      00000080H.7 SFRSYM    DATA     BIT       P07
      000000F8H.1 SFRSYM    DATA     BIT       P71
      000000E8H.2 SFRSYM    DATA     BIT       P62
      000000C8H.3 SFRSYM    DATA     BIT       P53
      000000C0H.4 SFRSYM    DATA     BIT       P44
      000000B0H.5 SFRSYM    DATA     BIT       P35
      000000A0H.6 SFRSYM    DATA     BIT       P26
      00000090H.7 SFRSYM    DATA     BIT       P17
      000000F8H.2 SFRSYM    DATA     BIT       P72
      000000E8H.3 SFRSYM    DATA     BIT       P63
      000000C8H.4 SFRSYM    DATA     BIT       P54
      000000C0H.5 SFRSYM    DATA     BIT       P45
      000000B0H.6 SFRSYM    DATA     BIT       P36
      000000A0H.7 SFRSYM    DATA     BIT       P27
      000000F8H.3 SFRSYM    DATA     BIT       P73
      000000E8H.4 SFRSYM    DATA     BIT       P64
      000000C8H.5 SFRSYM    DATA     BIT       P55
      000000C0H.6 SFRSYM    DATA     BIT       P46
      000000B0H.7 SFRSYM    DATA     BIT       P37
      000000F8H.4 SFRSYM    DATA     BIT       P74
      000000E8H.5 SFRSYM    DATA     BIT       P65
      000000C8H.6 SFRSYM    DATA     BIT       P56
      000000C0H.7 SFRSYM    DATA     BIT       P47
      000000F8H.5 SFRSYM    DATA     BIT       P75
      000000E8H.6 SFRSYM    DATA     BIT       P66
      000000C8H.7 SFRSYM    DATA     BIT       P57
      000000F8H.6 SFRSYM    DATA     BIT       P76
      000000E8H.7 SFRSYM    DATA     BIT       P67
      000000F8H.7 SFRSYM    DATA     BIT       P77
      00000088H.1 SFRSYM    DATA     BIT       IE0
      000000A1H   SFRSYM    DATA     BYTE      BUS_SPEED
      00000088H.3 SFRSYM    DATA     BIT       IE1
      000000AFH   SFRSYM    DATA     BYTE      IE2
      000000F0H   SFRSYM    DATA     BYTE      B
      0000008EH   SFRSYM    DATA     BYTE      AUXR
      000000C7H   SFRSYM    DATA     BYTE      IAP_CONTR
      000000F1H   SFRSYM    DATA     BYTE      PWMCFG
      000000E0H   SFRSYM    DATA     BYTE      ACC
      000000A8H.1 SFRSYM    DATA     BIT       ET0
      000000A8H.3 SFRSYM    DATA     BIT       ET1
      00000088H.5 SFRSYM    DATA     BIT       TF0
      00000088H.7 SFRSYM    DATA     BIT       TF1
      000000B5H   SFRSYM    DATA     BYTE      IP2
      0000008CH   SFRSYM    DATA     BYTE      RL_TH0
      00000098H.2 SFRSYM    DATA     BIT       RB8
      0000008DH   SFRSYM    DATA     BYTE      RL_TH1
      0000008CH   SFRSYM    DATA     BYTE      TH0
      000000A8H   SFRSYM    DATA     BIT       EX0
      00000088H   SFRSYM    DATA     BIT       IT0
      000000D6H   SFRSYM    DATA     BYTE      RL_T2H
      0000008DH   SFRSYM    DATA     BYTE      TH1
LX51 LINKER/LOCATER V4.66.1.0                                                         10/08/2016  19:44:16  PAGE 25


      000000A8H.2 SFRSYM    DATA     BIT       EX1
      00000098H.3 SFRSYM    DATA     BIT       TB8
      00000088H.2 SFRSYM    DATA     BIT       IT1
      000000D4H   SFRSYM    DATA     BYTE      RL_T3H
      000000D6H   SFRSYM    DATA     BYTE      TH2
      000000D6H   SFRSYM    DATA     BYTE      T2H
      000000D0H   SFRSYM    DATA     BIT       P
      000000D2H   SFRSYM    DATA     BYTE      RL_T4H
      000000D4H   SFRSYM    DATA     BYTE      TH3
      000000D4H   SFRSYM    DATA     BYTE      T3H
      0000008AH   SFRSYM    DATA     BYTE      RL_TL0
      00000098H.7 SFRSYM    DATA     BIT       SM0
      000000D2H   SFRSYM    DATA     BYTE      TH4
      000000D2H   SFRSYM    DATA     BYTE      T4H
      0000008BH   SFRSYM    DATA     BYTE      RL_TL1
      0000008AH   SFRSYM    DATA     BYTE      TL0
      00000098H.6 SFRSYM    DATA     BIT       SM1
      000000D7H   SFRSYM    DATA     BYTE      RL_T2L
      0000008BH   SFRSYM    DATA     BYTE      TL1
      00000098H.5 SFRSYM    DATA     BIT       SM2
      000000D5H   SFRSYM    DATA     BYTE      RL_T3L
      000000D7H   SFRSYM    DATA     BYTE      TL2
      000000D7H   SFRSYM    DATA     BYTE      T2L
      000000D3H   SFRSYM    DATA     BYTE      RL_T4L
      000000D5H   SFRSYM    DATA     BYTE      TL3
      000000D5H   SFRSYM    DATA     BYTE      T3L
      000000B8H.1 SFRSYM    DATA     BIT       PT0
      000000D3H   SFRSYM    DATA     BYTE      TL4
      000000D3H   SFRSYM    DATA     BYTE      T4L
      000000B8H.3 SFRSYM    DATA     BIT       PT1
      000000D0H.3 SFRSYM    DATA     BIT       RS0
      000000C7H   SFRSYM    DATA     BYTE      ISP_CONTR
      00000088H.4 SFRSYM    DATA     BIT       TR0
      000000D0H.4 SFRSYM    DATA     BIT       RS1
      000000C2H   SFRSYM    DATA     BYTE      IAP_DATA
      00000088H.6 SFRSYM    DATA     BIT       TR1
      000000B8H   SFRSYM    DATA     BIT       PX0
      000000C1H   SFRSYM    DATA     BYTE      WDT_CONTR
      000000B8H.2 SFRSYM    DATA     BIT       PX1
      000000F2H   SFRSYM    DATA     BYTE      PCA_PWM0
      000000F3H   SFRSYM    DATA     BYTE      PCA_PWM1
      000000F4H   SFRSYM    DATA     BYTE      PCA_PWM2
      0000009DH   SFRSYM    DATA     BYTE      P1ASF
      00000083H   SFRSYM    DATA     BYTE      DPH
      000000D1H   SFRSYM    DATA     BYTE      T4T3M
      000000BEH   SFRSYM    DATA     BYTE      ADC_RESL
      00000082H   SFRSYM    DATA     BYTE      DPL
      000000CDH   SFRSYM    DATA     BYTE      SPSTAT
      000000B7H   SFRSYM    DATA     BYTE      IPH
      0000009BH   SFRSYM    DATA     BYTE      S2BUF
      00000097H   SFRSYM    DATA     BYTE      PCON2
      000000ADH   SFRSYM    DATA     BYTE      S3BUF
      00000098H.4 SFRSYM    DATA     BIT       REN
      00000085H   SFRSYM    DATA     BYTE      S4BUF
      0000009AH   SFRSYM    DATA     BYTE      S2CON
      000000ACH   SFRSYM    DATA     BYTE      S3CON
      000000C2H   SFRSYM    DATA     BYTE      ISP_DATA
      00000084H   SFRSYM    DATA     BYTE      S4CON
      000000B9H   SFRSYM    DATA     BYTE      SADEN
      000000B0H   SFRSYM    DATA     BIT       RXD
      000000A9H   SFRSYM    DATA     BYTE      SADDR
      000000B0H.1 SFRSYM    DATA     BIT       TXD
      000000F0H   SFRSYM    DATA     BIT       B0
      000000F0H.1 SFRSYM    DATA     BIT       B1
      000000C6H   SFRSYM    DATA     BYTE      IAP_TRIG
LX51 LINKER/LOCATER V4.66.1.0                                                         10/08/2016  19:44:16  PAGE 26


      000000A2H   SFRSYM    DATA     BYTE      AUXR1
      000000F0H.2 SFRSYM    DATA     BIT       B2
      00000090H.2 SFRSYM    DATA     BIT       SPI_SS
      0000008FH   SFRSYM    DATA     BYTE      AUXR2
      000000F0H.3 SFRSYM    DATA     BIT       B3
      000000F0H.4 SFRSYM    DATA     BIT       B4
      000000D0H.5 SFRSYM    DATA     BIT       F0
      000000F0H.5 SFRSYM    DATA     BIT       B5
      000000D0H.1 SFRSYM    DATA     BIT       F1
      0000008FH   SFRSYM    DATA     BYTE      INT_CLKO
      000000F0H.6 SFRSYM    DATA     BIT       B6
      000000E0H   SFRSYM    DATA     BIT       ACC0
      000000F0H.7 SFRSYM    DATA     BIT       B7
      000000E0H.1 SFRSYM    DATA     BIT       ACC1
      000000E0H.2 SFRSYM    DATA     BIT       ACC2
      000000E0H.3 SFRSYM    DATA     BIT       ACC3
      000000D0H   SFRSYM    DATA     BYTE      PSW
      000000E0H.4 SFRSYM    DATA     BIT       ACC4
      00000090H.5 SFRSYM    DATA     BIT       SPI_SCLK
      000000D8H   SFRSYM    DATA     BIT       CCF0
      000000E0H.5 SFRSYM    DATA     BIT       ACC5
      000000D8H.1 SFRSYM    DATA     BIT       CCF1
      000000E0H.6 SFRSYM    DATA     BIT       ACC6
      000000CFH   SFRSYM    DATA     BYTE      SPDAT
      00000094H   SFRSYM    DATA     BYTE      P0M0
      01002CA6H   SYMBOL    CODE     ---       init_logic_params
      01002B52H   SYMBOL    CODE     ---       init_system_component

      01002CA0H   BLOCK     CODE     ---       LVL=0
      01002CA0H   LINE      CODE     ---       #25
      01002CA0H   LINE      CODE     ---       #26
      01002CA3H   LINE      CODE     ---       #27
      ---         BLOCKEND  ---      ---       LVL=0

      01001E5DH   BLOCK     CODE     ---       LVL=0
      01001E5DH   LINE      CODE     ---       #32
      01001E5DH   LINE      CODE     ---       #33
      01001E5DH   LINE      CODE     ---       #35
      01001E5FH   LINE      CODE     ---       #37
      01001E62H   LINE      CODE     ---       #38
      01001E65H   LINE      CODE     ---       #43
      01001E67H   LINE      CODE     ---       #46
      01001E67H   LINE      CODE     ---       #48
      01001E6DH   LINE      CODE     ---       #50
      01001E74H   LINE      CODE     ---       #51
      01001E74H   LINE      CODE     ---       #52
      01001E77H   LINE      CODE     ---       #53
      01001E7AH   LINE      CODE     ---       #54
      01001E7DH   LINE      CODE     ---       #56
      01001E84H   LINE      CODE     ---       #57
      01001E86H   LINE      CODE     ---       #58
      01001E86H   LINE      CODE     ---       #60
      01001E8DH   LINE      CODE     ---       #61
      01001E8DH   LINE      CODE     ---       #62
      01001E90H   LINE      CODE     ---       #63
      01001E97H   LINE      CODE     ---       #64
      01001E99H   LINE      CODE     ---       #65
      01001E99H   LINE      CODE     ---       #69
      01001EA0H   LINE      CODE     ---       #70
      01001EA0H   LINE      CODE     ---       #71
      01001EA9H   LINE      CODE     ---       #72
      01001EB0H   LINE      CODE     ---       #73
      01001EB3H   LINE      CODE     ---       #74
      01001EB6H   LINE      CODE     ---       #75
      01001EBDH   LINE      CODE     ---       #76
LX51 LINKER/LOCATER V4.66.1.0                                                         10/08/2016  19:44:16  PAGE 27


      01001EBFH   LINE      CODE     ---       #77
      01001EBFH   LINE      CODE     ---       #79
      01001EC6H   LINE      CODE     ---       #82
      01001EC8H   LINE      CODE     ---       #83
      01001ECBH   LINE      CODE     ---       #84
      01001ED0H   LINE      CODE     ---       #85
      01001ED7H   LINE      CODE     ---       #86
      01001ED9H   LINE      CODE     ---       #87
      01001EDBH   LINE      CODE     ---       #88
      01001EDBH   LINE      CODE     ---       #90
      01001EE2H   LINE      CODE     ---       #91
      01001EE7H   LINE      CODE     ---       #92
      01001EEAH   LINE      CODE     ---       #93
      01001EF1H   LINE      CODE     ---       #94
      ---         BLOCKEND  ---      ---       LVL=0

      01002B52H   BLOCK     CODE     ---       LVL=0
      01002B52H   LINE      CODE     ---       #101
      01002B52H   LINE      CODE     ---       #103
      01002B55H   LINE      CODE     ---       #106
      01002B58H   LINE      CODE     ---       #107
      01002B5BH   LINE      CODE     ---       #110
      01002B5EH   LINE      CODE     ---       #111
      01002B61H   LINE      CODE     ---       #112
      01002B63H   LINE      CODE     ---       #115
      01002B66H   LINE      CODE     ---       #116
      01002B69H   LINE      CODE     ---       #117
      ---         BLOCKEND  ---      ---       LVL=0

      01002CA6H   BLOCK     CODE     ---       LVL=0
      01002CA6H   LINE      CODE     ---       #122
      01002CA6H   LINE      CODE     ---       #123
      01002CA9H   LINE      CODE     ---       #124
      ---         BLOCKEND  ---      ---       LVL=0

      ---         MODULE    ---      ---       TASK
      0200016AH   PUBLIC    XDATA    WORD      INT_PROC
      000000D8H.2 SFRSYM    DATA     BIT       CCF2
      000000E0H.7 SFRSYM    DATA     BIT       ACC7
      00000093H   SFRSYM    DATA     BYTE      P0M1
      00000092H   SFRSYM    DATA     BYTE      P1M0
      00000096H   SFRSYM    DATA     BYTE      P2M0
      00000091H   SFRSYM    DATA     BYTE      P1M1
      00000080H   SFRSYM    DATA     BYTE      P0
      000000B2H   SFRSYM    DATA     BYTE      P3M0
      00000095H   SFRSYM    DATA     BYTE      P2M1
      00000090H   SFRSYM    DATA     BYTE      P1
      000000B4H   SFRSYM    DATA     BYTE      P4M0
      000000B1H   SFRSYM    DATA     BYTE      P3M1
      000000A0H   SFRSYM    DATA     BYTE      P2
      000000CAH   SFRSYM    DATA     BYTE      P5M0
      000000B3H   SFRSYM    DATA     BYTE      P4M1
      000000B0H   SFRSYM    DATA     BYTE      P3
      000000ABH   SFRSYM    DATA     BYTE      WKTCH
      000000B0H.4 SFRSYM    DATA     BIT       T0
      000000D0H.6 SFRSYM    DATA     BIT       AC
      000000CCH   SFRSYM    DATA     BYTE      P6M0
      000000C9H   SFRSYM    DATA     BYTE      P5M1
      000000C0H   SFRSYM    DATA     BYTE      P4
      000000B0H.5 SFRSYM    DATA     BIT       CLKOUT0
      000000B0H.5 SFRSYM    DATA     BIT       T1
      000000F6H   SFRSYM    DATA     BYTE      PWMIF
      000000E2H   SFRSYM    DATA     BYTE      P7M0
      000000CBH   SFRSYM    DATA     BYTE      P6M1
      000000C8H   SFRSYM    DATA     BYTE      P5
LX51 LINKER/LOCATER V4.66.1.0                                                         10/08/2016  19:44:16  PAGE 28


      000000C6H   SFRSYM    DATA     BYTE      ISP_TRIG
      000000A8H.7 SFRSYM    DATA     BIT       EA
      000000B0H.4 SFRSYM    DATA     BIT       CLKOUT1
      000000A0H.4 SFRSYM    DATA     BIT       SPI_SS_2
      000000E8H   SFRSYM    DATA     BYTE      P6
      000000E1H   SFRSYM    DATA     BYTE      P7M1
      000000C8H.4 SFRSYM    DATA     BIT       SPI_SS_3
      00000090H.4 SFRSYM    DATA     BIT       SPI_MISO
      00000090H.3 SFRSYM    DATA     BIT       SPI_MOSI
      00000090H.1 SFRSYM    DATA     BIT       CCP0
      000000F8H   SFRSYM    DATA     BYTE      P7
      000000AAH   SFRSYM    DATA     BYTE      WKTCL
      00000090H   SFRSYM    DATA     BIT       CCP1
      000000CEH   SFRSYM    DATA     BYTE      SPCTL
      000000D8H.7 SFRSYM    DATA     BIT       CF
      000000B0H.7 SFRSYM    DATA     BIT       CCP2
      000000F9H   SFRSYM    DATA     BYTE      CH
      000000F5H   SFRSYM    DATA     BYTE      PWMCR
      000000A2H   SFRSYM    DATA     BYTE      P_SW1
      000000BAH   SFRSYM    DATA     BYTE      P_SW2
      000000A8H.5 SFRSYM    DATA     BIT       EADC
      000000A0H.1 SFRSYM    DATA     BIT       SPI_SCLK_2
      000000A8H   SFRSYM    DATA     BYTE      IE
      000000C0H.3 SFRSYM    DATA     BIT       SPI_SCLK_3
      000000E9H   SFRSYM    DATA     BYTE      CL
      000000C5H   SFRSYM    DATA     BYTE      IAP_CMD
      000000FAH   SFRSYM    DATA     BYTE      CCAP0H
      000000FBH   SFRSYM    DATA     BYTE      CCAP1H
      000000FCH   SFRSYM    DATA     BYTE      CCAP2H
      000000BDH   SFRSYM    DATA     BYTE      ADC_RES
      000000B6H   SFRSYM    DATA     BYTE      IPH2
      000000D8H.6 SFRSYM    DATA     BIT       CR
      000000EAH   SFRSYM    DATA     BYTE      CCAP0L
      000000B0H.7 SFRSYM    DATA     BIT       RD
      000000F7H   SFRSYM    DATA     BYTE      PWMFDCR
      000000EBH   SFRSYM    DATA     BYTE      CCAP1L
      000000DAH   SFRSYM    DATA     BYTE      CCAPM0
      000000ECH   SFRSYM    DATA     BYTE      CCAP2L
      000000DBH   SFRSYM    DATA     BYTE      CCAPM1
      000000A8H.4 SFRSYM    DATA     BIT       ES
      000000DCH   SFRSYM    DATA     BYTE      CCAPM2
      000000B8H.5 SFRSYM    DATA     BIT       PADC
      000000A0H.2 SFRSYM    DATA     BIT       SPI_MISO_2
      000000A0H.3 SFRSYM    DATA     BIT       SPI_MOSI_2
      000000B8H   SFRSYM    DATA     BYTE      IP
      000000C0H.1 SFRSYM    DATA     BIT       SPI_MISO_3
      000000C0H   SFRSYM    DATA     BIT       SPI_MOSI_3
      00000098H   SFRSYM    DATA     BIT       RI
      000000B0H.2 SFRSYM    DATA     BIT       INT0
      000000D0H.7 SFRSYM    DATA     BIT       CY
      00000098H.1 SFRSYM    DATA     BIT       TI
      000000B0H.3 SFRSYM    DATA     BIT       INT1
      00000097H   SFRSYM    DATA     BYTE      CLK_DIV
      000000C3H   SFRSYM    DATA     BYTE      IAP_ADDRH
      00000090H   SFRSYM    DATA     BIT       RXD2
      000000C5H   SFRSYM    DATA     BYTE      ISP_CMD
      000000B8H.4 SFRSYM    DATA     BIT       PS
      00000090H.1 SFRSYM    DATA     BIT       TXD2
      00000081H   SFRSYM    DATA     BYTE      SP
      000000D9H   SFRSYM    DATA     BYTE      CMOD
      000000D8H   SFRSYM    DATA     BYTE      CCON
      000000C4H   SFRSYM    DATA     BYTE      IAP_ADDRL
      000000B8H.7 SFRSYM    DATA     BIT       PPCA
      000000D0H.2 SFRSYM    DATA     BIT       OV
      000000B0H.7 SFRSYM    DATA     BIT       PWM2
LX51 LINKER/LOCATER V4.66.1.0                                                         10/08/2016  19:44:16  PAGE 29


      000000A0H.1 SFRSYM    DATA     BIT       PWM3
      000000E6H   SFRSYM    DATA     BYTE      CMPCR1
      000000B0H.6 SFRSYM    DATA     BIT       WR
      000000E7H   SFRSYM    DATA     BYTE      CMPCR2
      000000A0H.3 SFRSYM    DATA     BIT       PWM5
      00000090H.7 SFRSYM    DATA     BIT       PWM7
      000000A8H.6 SFRSYM    DATA     BIT       ELVD
      00000080H   SFRSYM    DATA     BIT       P00
      00000090H   SFRSYM    DATA     BIT       P10
      00000080H.1 SFRSYM    DATA     BIT       P01
      000000BCH   SFRSYM    DATA     BYTE      ADC_CONTR
      00000099H   SFRSYM    DATA     BYTE      SBUF
      00000087H   SFRSYM    DATA     BYTE      PCON
      000000A0H   SFRSYM    DATA     BIT       P20
      00000090H.1 SFRSYM    DATA     BIT       P11
      00000080H.2 SFRSYM    DATA     BIT       P02
      000000C3H   SFRSYM    DATA     BYTE      ISP_ADDRH
      000000B0H   SFRSYM    DATA     BIT       P30
      000000A0H.1 SFRSYM    DATA     BIT       P21
      00000090H.2 SFRSYM    DATA     BIT       P12
      00000080H.3 SFRSYM    DATA     BIT       P03
      000000C0H   SFRSYM    DATA     BIT       P40
      000000B0H.1 SFRSYM    DATA     BIT       P31
      000000A0H.2 SFRSYM    DATA     BIT       P22
      00000090H.3 SFRSYM    DATA     BIT       P13
      00000080H.4 SFRSYM    DATA     BIT       P04
      00000098H   SFRSYM    DATA     BYTE      SCON
      0000008FH   SFRSYM    DATA     BYTE      WAKE_CLKO
      000000C8H   SFRSYM    DATA     BIT       P50
      000000C0H.1 SFRSYM    DATA     BIT       P41
      000000B0H.2 SFRSYM    DATA     BIT       P32
      000000A0H.3 SFRSYM    DATA     BIT       P23
      00000090H.4 SFRSYM    DATA     BIT       P14
      00000080H.5 SFRSYM    DATA     BIT       P05
      00000089H   SFRSYM    DATA     BYTE      TMOD
      00000088H   SFRSYM    DATA     BYTE      TCON
      000000E8H   SFRSYM    DATA     BIT       P60
      000000C8H.1 SFRSYM    DATA     BIT       P51
      000000C0H.2 SFRSYM    DATA     BIT       P42
      000000B0H.3 SFRSYM    DATA     BIT       P33
      000000A0H.4 SFRSYM    DATA     BIT       P24
      00000090H.5 SFRSYM    DATA     BIT       P15
      00000080H.6 SFRSYM    DATA     BIT       P06
      000000C4H   SFRSYM    DATA     BYTE      ISP_ADDRL
      000000B8H.6 SFRSYM    DATA     BIT       PLVD
      000000F8H   SFRSYM    DATA     BIT       P70
      000000E8H.1 SFRSYM    DATA     BIT       P61
      000000C8H.2 SFRSYM    DATA     BIT       P52
      000000C0H.3 SFRSYM    DATA     BIT       P43
      000000B0H.4 SFRSYM    DATA     BIT       P34
      000000A0H.5 SFRSYM    DATA     BIT       P25
      00000090H.6 SFRSYM    DATA     BIT       P16
      00000080H.7 SFRSYM    DATA     BIT       P07
      000000F8H.1 SFRSYM    DATA     BIT       P71
      000000E8H.2 SFRSYM    DATA     BIT       P62
      000000C8H.3 SFRSYM    DATA     BIT       P53
      000000C0H.4 SFRSYM    DATA     BIT       P44
      000000B0H.5 SFRSYM    DATA     BIT       P35
      000000A0H.6 SFRSYM    DATA     BIT       P26
      00000090H.7 SFRSYM    DATA     BIT       P17
      000000F8H.2 SFRSYM    DATA     BIT       P72
      000000E8H.3 SFRSYM    DATA     BIT       P63
      000000C8H.4 SFRSYM    DATA     BIT       P54
      000000C0H.5 SFRSYM    DATA     BIT       P45
      000000B0H.6 SFRSYM    DATA     BIT       P36
LX51 LINKER/LOCATER V4.66.1.0                                                         10/08/2016  19:44:16  PAGE 30


      000000A0H.7 SFRSYM    DATA     BIT       P27
      000000F8H.3 SFRSYM    DATA     BIT       P73
      000000E8H.4 SFRSYM    DATA     BIT       P64
      000000C8H.5 SFRSYM    DATA     BIT       P55
      000000C0H.6 SFRSYM    DATA     BIT       P46
      000000B0H.7 SFRSYM    DATA     BIT       P37
      000000F8H.4 SFRSYM    DATA     BIT       P74
      000000E8H.5 SFRSYM    DATA     BIT       P65
      000000C8H.6 SFRSYM    DATA     BIT       P56
      000000C0H.7 SFRSYM    DATA     BIT       P47
      000000F8H.5 SFRSYM    DATA     BIT       P75
      000000E8H.6 SFRSYM    DATA     BIT       P66
      000000C8H.7 SFRSYM    DATA     BIT       P57
      000000F8H.6 SFRSYM    DATA     BIT       P76
      000000E8H.7 SFRSYM    DATA     BIT       P67
      000000F8H.7 SFRSYM    DATA     BIT       P77
      00000088H.1 SFRSYM    DATA     BIT       IE0
      000000A1H   SFRSYM    DATA     BYTE      BUS_SPEED
      00000088H.3 SFRSYM    DATA     BIT       IE1
      000000AFH   SFRSYM    DATA     BYTE      IE2
      000000F0H   SFRSYM    DATA     BYTE      B
      0000008EH   SFRSYM    DATA     BYTE      AUXR
      000000C7H   SFRSYM    DATA     BYTE      IAP_CONTR
      000000F1H   SFRSYM    DATA     BYTE      PWMCFG
      000000E0H   SFRSYM    DATA     BYTE      ACC
      000000A8H.1 SFRSYM    DATA     BIT       ET0
      000000A8H.3 SFRSYM    DATA     BIT       ET1
      00000088H.5 SFRSYM    DATA     BIT       TF0
      00000088H.7 SFRSYM    DATA     BIT       TF1
      000000B5H   SFRSYM    DATA     BYTE      IP2
      0000008CH   SFRSYM    DATA     BYTE      RL_TH0
      00000098H.2 SFRSYM    DATA     BIT       RB8
      0000008DH   SFRSYM    DATA     BYTE      RL_TH1
      0000008CH   SFRSYM    DATA     BYTE      TH0
      000000A8H   SFRSYM    DATA     BIT       EX0
      00000088H   SFRSYM    DATA     BIT       IT0
      000000D6H   SFRSYM    DATA     BYTE      RL_T2H
      0000008DH   SFRSYM    DATA     BYTE      TH1
      000000A8H.2 SFRSYM    DATA     BIT       EX1
      00000098H.3 SFRSYM    DATA     BIT       TB8
      00000088H.2 SFRSYM    DATA     BIT       IT1
      000000D4H   SFRSYM    DATA     BYTE      RL_T3H
      000000D6H   SFRSYM    DATA     BYTE      TH2
      000000D6H   SFRSYM    DATA     BYTE      T2H
      000000D0H   SFRSYM    DATA     BIT       P
      000000D2H   SFRSYM    DATA     BYTE      RL_T4H
      000000D4H   SFRSYM    DATA     BYTE      TH3
      000000D4H   SFRSYM    DATA     BYTE      T3H
      0000008AH   SFRSYM    DATA     BYTE      RL_TL0
      00000098H.7 SFRSYM    DATA     BIT       SM0
      000000D2H   SFRSYM    DATA     BYTE      TH4
      000000D2H   SFRSYM    DATA     BYTE      T4H
      0000008BH   SFRSYM    DATA     BYTE      RL_TL1
      0000008AH   SFRSYM    DATA     BYTE      TL0
      00000098H.6 SFRSYM    DATA     BIT       SM1
      000000D7H   SFRSYM    DATA     BYTE      RL_T2L
      0000008BH   SFRSYM    DATA     BYTE      TL1
      00000098H.5 SFRSYM    DATA     BIT       SM2
      000000D5H   SFRSYM    DATA     BYTE      RL_T3L
      000000D7H   SFRSYM    DATA     BYTE      TL2
      000000D7H   SFRSYM    DATA     BYTE      T2L
      000000D3H   SFRSYM    DATA     BYTE      RL_T4L
      000000D5H   SFRSYM    DATA     BYTE      TL3
      000000D5H   SFRSYM    DATA     BYTE      T3L
      000000B8H.1 SFRSYM    DATA     BIT       PT0
LX51 LINKER/LOCATER V4.66.1.0                                                         10/08/2016  19:44:16  PAGE 31


      000000D3H   SFRSYM    DATA     BYTE      TL4
      000000D3H   SFRSYM    DATA     BYTE      T4L
      000000B8H.3 SFRSYM    DATA     BIT       PT1
      000000D0H.3 SFRSYM    DATA     BIT       RS0
      000000C7H   SFRSYM    DATA     BYTE      ISP_CONTR
      00000088H.4 SFRSYM    DATA     BIT       TR0
      000000D0H.4 SFRSYM    DATA     BIT       RS1
      000000C2H   SFRSYM    DATA     BYTE      IAP_DATA
      00000088H.6 SFRSYM    DATA     BIT       TR1
      000000B8H   SFRSYM    DATA     BIT       PX0
      000000C1H   SFRSYM    DATA     BYTE      WDT_CONTR
      000000B8H.2 SFRSYM    DATA     BIT       PX1
      000000F2H   SFRSYM    DATA     BYTE      PCA_PWM0
      000000F3H   SFRSYM    DATA     BYTE      PCA_PWM1
      000000F4H   SFRSYM    DATA     BYTE      PCA_PWM2
      0000009DH   SFRSYM    DATA     BYTE      P1ASF
      00000083H   SFRSYM    DATA     BYTE      DPH
      000000D1H   SFRSYM    DATA     BYTE      T4T3M
      000000BEH   SFRSYM    DATA     BYTE      ADC_RESL
      00000082H   SFRSYM    DATA     BYTE      DPL
      000000CDH   SFRSYM    DATA     BYTE      SPSTAT
      000000B7H   SFRSYM    DATA     BYTE      IPH
      0000009BH   SFRSYM    DATA     BYTE      S2BUF
      00000097H   SFRSYM    DATA     BYTE      PCON2
      000000ADH   SFRSYM    DATA     BYTE      S3BUF
      00000098H.4 SFRSYM    DATA     BIT       REN
      00000085H   SFRSYM    DATA     BYTE      S4BUF
      0000009AH   SFRSYM    DATA     BYTE      S2CON
      000000ACH   SFRSYM    DATA     BYTE      S3CON
      000000C2H   SFRSYM    DATA     BYTE      ISP_DATA
      00000084H   SFRSYM    DATA     BYTE      S4CON
      000000B9H   SFRSYM    DATA     BYTE      SADEN
      000000B0H   SFRSYM    DATA     BIT       RXD
      000000A9H   SFRSYM    DATA     BYTE      SADDR
      000000B0H.1 SFRSYM    DATA     BIT       TXD
      000000F0H   SFRSYM    DATA     BIT       B0
      000000F0H.1 SFRSYM    DATA     BIT       B1
      000000C6H   SFRSYM    DATA     BYTE      IAP_TRIG
      000000A2H   SFRSYM    DATA     BYTE      AUXR1
      000000F0H.2 SFRSYM    DATA     BIT       B2
      00000090H.2 SFRSYM    DATA     BIT       SPI_SS
      0000008FH   SFRSYM    DATA     BYTE      AUXR2
      000000F0H.3 SFRSYM    DATA     BIT       B3
      000000F0H.4 SFRSYM    DATA     BIT       B4
      000000D0H.5 SFRSYM    DATA     BIT       F0
      000000F0H.5 SFRSYM    DATA     BIT       B5
      000000D0H.1 SFRSYM    DATA     BIT       F1
      0000008FH   SFRSYM    DATA     BYTE      INT_CLKO
      000000F0H.6 SFRSYM    DATA     BIT       B6
      000000E0H   SFRSYM    DATA     BIT       ACC0
      000000F0H.7 SFRSYM    DATA     BIT       B7
      000000E0H.1 SFRSYM    DATA     BIT       ACC1
      000000E0H.2 SFRSYM    DATA     BIT       ACC2
      000000E0H.3 SFRSYM    DATA     BIT       ACC3
      000000D0H   SFRSYM    DATA     BYTE      PSW
      000000E0H.4 SFRSYM    DATA     BIT       ACC4
      00000090H.5 SFRSYM    DATA     BIT       SPI_SCLK
      000000D8H   SFRSYM    DATA     BIT       CCF0
      000000E0H.5 SFRSYM    DATA     BIT       ACC5
      000000D8H.1 SFRSYM    DATA     BIT       CCF1
      000000E0H.6 SFRSYM    DATA     BIT       ACC6
      000000CFH   SFRSYM    DATA     BYTE      SPDAT
      00000094H   SFRSYM    DATA     BYTE      P0M0

      ---         MODULE    ---      ---       KEY
LX51 LINKER/LOCATER V4.66.1.0                                                         10/08/2016  19:44:16  PAGE 32


      02000159H   PUBLIC    XDATA    ---       bluetooth_pair
      02000155H   PUBLIC    XDATA    ---       volume_increase
      02000154H   PUBLIC    XDATA    BYTE      interval_bluetooth_pair_hold
      02000150H   PUBLIC    XDATA    ---       volume_decrease
      0200014CH   PUBLIC    XDATA    ---       bluetooth_on_off
      02000147H   PUBLIC    XDATA    BYTE      interval_volume_increase_hold
      02000144H   PUBLIC    XDATA    BYTE      interval_volume_decrease_hold
      010029F8H   PUBLIC    CODE     ---       key_duty_task
      010022F7H   PUBLIC    CODE     ---       long_key_func_dispatcher
      01002C07H   PUBLIC    CODE     ---       decrease_key_hold_interval
      010018B4H   PUBLIC    CODE     ---       short_key_func_dispatcher
      01002A25H   PUBLIC    CODE     ---       count_down_init_all_task
      01002AE5H   PUBLIC    CODE     ---       count_down_at_all_task
      01002282H   PUBLIC    CODE     ---       _count_down_at
      01002912H   PUBLIC    CODE     ---       _count_down_reload
      01002BF3H   PUBLIC    CODE     ---       _count_down_init
      01002CB2H   PUBLIC    CODE     ---       bluetooth_pair_callback
      01002CAFH   PUBLIC    CODE     ---       bluetooth_on_off_callback
      01002CACH   PUBLIC    CODE     ---       volume_decrease_callback
      01000006H   PUBLIC    CODE     ---       volume_increase_callback
      010019AFH   PUBLIC    CODE     ---       key_scan_task
      01002209H   PUBLIC    CODE     ---       IO_KeyScan_G
      0100298DH   PUBLIC    CODE     ---       key_io_init
      000000D8H.2 SFRSYM    DATA     BIT       CCF2
      000000E0H.7 SFRSYM    DATA     BIT       ACC7
      00000093H   SFRSYM    DATA     BYTE      P0M1
      00000092H   SFRSYM    DATA     BYTE      P1M0
      00000096H   SFRSYM    DATA     BYTE      P2M0
      00000091H   SFRSYM    DATA     BYTE      P1M1
      00000080H   SFRSYM    DATA     BYTE      P0
      000000B2H   SFRSYM    DATA     BYTE      P3M0
      00000095H   SFRSYM    DATA     BYTE      P2M1
      00000090H   SFRSYM    DATA     BYTE      P1
      000000B4H   SFRSYM    DATA     BYTE      P4M0
      000000B1H   SFRSYM    DATA     BYTE      P3M1
      000000A0H   SFRSYM    DATA     BYTE      P2
      000000CAH   SFRSYM    DATA     BYTE      P5M0
      000000B3H   SFRSYM    DATA     BYTE      P4M1
      000000B0H   SFRSYM    DATA     BYTE      P3
      000000ABH   SFRSYM    DATA     BYTE      WKTCH
      000000B0H.4 SFRSYM    DATA     BIT       T0
      000000D0H.6 SFRSYM    DATA     BIT       AC
      000000CCH   SFRSYM    DATA     BYTE      P6M0
      000000C9H   SFRSYM    DATA     BYTE      P5M1
      000000C0H   SFRSYM    DATA     BYTE      P4
      000000B0H.5 SFRSYM    DATA     BIT       CLKOUT0
      000000B0H.5 SFRSYM    DATA     BIT       T1
      000000F6H   SFRSYM    DATA     BYTE      PWMIF
      000000E2H   SFRSYM    DATA     BYTE      P7M0
      000000CBH   SFRSYM    DATA     BYTE      P6M1
      000000C8H   SFRSYM    DATA     BYTE      P5
      000000C6H   SFRSYM    DATA     BYTE      ISP_TRIG
      000000A8H.7 SFRSYM    DATA     BIT       EA
      000000B0H.4 SFRSYM    DATA     BIT       CLKOUT1
      000000A0H.4 SFRSYM    DATA     BIT       SPI_SS_2
      000000E8H   SFRSYM    DATA     BYTE      P6
      000000E1H   SFRSYM    DATA     BYTE      P7M1
      000000C8H.4 SFRSYM    DATA     BIT       SPI_SS_3
      00000090H.4 SFRSYM    DATA     BIT       SPI_MISO
      00000090H.3 SFRSYM    DATA     BIT       SPI_MOSI
      00000090H.1 SFRSYM    DATA     BIT       CCP0
      000000F8H   SFRSYM    DATA     BYTE      P7
      000000AAH   SFRSYM    DATA     BYTE      WKTCL
      00000090H   SFRSYM    DATA     BIT       CCP1
      000000CEH   SFRSYM    DATA     BYTE      SPCTL
LX51 LINKER/LOCATER V4.66.1.0                                                         10/08/2016  19:44:16  PAGE 33


      000000D8H.7 SFRSYM    DATA     BIT       CF
      000000B0H.7 SFRSYM    DATA     BIT       CCP2
      000000F9H   SFRSYM    DATA     BYTE      CH
      000000F5H   SFRSYM    DATA     BYTE      PWMCR
      000000A2H   SFRSYM    DATA     BYTE      P_SW1
      000000BAH   SFRSYM    DATA     BYTE      P_SW2
      000000A8H.5 SFRSYM    DATA     BIT       EADC
      000000A0H.1 SFRSYM    DATA     BIT       SPI_SCLK_2
      000000A8H   SFRSYM    DATA     BYTE      IE
      000000C0H.3 SFRSYM    DATA     BIT       SPI_SCLK_3
      000000E9H   SFRSYM    DATA     BYTE      CL
      000000C5H   SFRSYM    DATA     BYTE      IAP_CMD
      000000FAH   SFRSYM    DATA     BYTE      CCAP0H
      000000FBH   SFRSYM    DATA     BYTE      CCAP1H
      000000FCH   SFRSYM    DATA     BYTE      CCAP2H
      000000BDH   SFRSYM    DATA     BYTE      ADC_RES
      000000B6H   SFRSYM    DATA     BYTE      IPH2
      000000D8H.6 SFRSYM    DATA     BIT       CR
      000000EAH   SFRSYM    DATA     BYTE      CCAP0L
      000000B0H.7 SFRSYM    DATA     BIT       RD
      000000F7H   SFRSYM    DATA     BYTE      PWMFDCR
      000000EBH   SFRSYM    DATA     BYTE      CCAP1L
      000000DAH   SFRSYM    DATA     BYTE      CCAPM0
      000000ECH   SFRSYM    DATA     BYTE      CCAP2L
      000000DBH   SFRSYM    DATA     BYTE      CCAPM1
      000000A8H.4 SFRSYM    DATA     BIT       ES
      000000DCH   SFRSYM    DATA     BYTE      CCAPM2
      000000B8H.5 SFRSYM    DATA     BIT       PADC
      000000A0H.2 SFRSYM    DATA     BIT       SPI_MISO_2
      000000A0H.3 SFRSYM    DATA     BIT       SPI_MOSI_2
      000000B8H   SFRSYM    DATA     BYTE      IP
      000000C0H.1 SFRSYM    DATA     BIT       SPI_MISO_3
      000000C0H   SFRSYM    DATA     BIT       SPI_MOSI_3
      00000098H   SFRSYM    DATA     BIT       RI
      000000B0H.2 SFRSYM    DATA     BIT       INT0
      000000D0H.7 SFRSYM    DATA     BIT       CY
      00000098H.1 SFRSYM    DATA     BIT       TI
      000000B0H.3 SFRSYM    DATA     BIT       INT1
      00000097H   SFRSYM    DATA     BYTE      CLK_DIV
      000000C3H   SFRSYM    DATA     BYTE      IAP_ADDRH
      00000090H   SFRSYM    DATA     BIT       RXD2
      000000C5H   SFRSYM    DATA     BYTE      ISP_CMD
      000000B8H.4 SFRSYM    DATA     BIT       PS
      00000090H.1 SFRSYM    DATA     BIT       TXD2
      00000081H   SFRSYM    DATA     BYTE      SP
      000000D9H   SFRSYM    DATA     BYTE      CMOD
      000000D8H   SFRSYM    DATA     BYTE      CCON
      000000C4H   SFRSYM    DATA     BYTE      IAP_ADDRL
      000000B8H.7 SFRSYM    DATA     BIT       PPCA
      000000D0H.2 SFRSYM    DATA     BIT       OV
      000000B0H.7 SFRSYM    DATA     BIT       PWM2
      000000A0H.1 SFRSYM    DATA     BIT       PWM3
      000000E6H   SFRSYM    DATA     BYTE      CMPCR1
      000000B0H.6 SFRSYM    DATA     BIT       WR
      000000E7H   SFRSYM    DATA     BYTE      CMPCR2
      000000A0H.3 SFRSYM    DATA     BIT       PWM5
      00000090H.7 SFRSYM    DATA     BIT       PWM7
      000000A8H.6 SFRSYM    DATA     BIT       ELVD
      00000080H   SFRSYM    DATA     BIT       P00
      00000090H   SFRSYM    DATA     BIT       P10
      00000080H.1 SFRSYM    DATA     BIT       P01
      000000BCH   SFRSYM    DATA     BYTE      ADC_CONTR
      00000099H   SFRSYM    DATA     BYTE      SBUF
      00000087H   SFRSYM    DATA     BYTE      PCON
      000000A0H   SFRSYM    DATA     BIT       P20
LX51 LINKER/LOCATER V4.66.1.0                                                         10/08/2016  19:44:16  PAGE 34


      00000090H.1 SFRSYM    DATA     BIT       P11
      00000080H.2 SFRSYM    DATA     BIT       P02
      000000C3H   SFRSYM    DATA     BYTE      ISP_ADDRH
      000000B0H   SFRSYM    DATA     BIT       P30
      000000A0H.1 SFRSYM    DATA     BIT       P21
      00000090H.2 SFRSYM    DATA     BIT       P12
      00000080H.3 SFRSYM    DATA     BIT       P03
      000000C0H   SFRSYM    DATA     BIT       P40
      000000B0H.1 SFRSYM    DATA     BIT       P31
      000000A0H.2 SFRSYM    DATA     BIT       P22
      00000090H.3 SFRSYM    DATA     BIT       P13
      00000080H.4 SFRSYM    DATA     BIT       P04
      00000098H   SFRSYM    DATA     BYTE      SCON
      0000008FH   SFRSYM    DATA     BYTE      WAKE_CLKO
      000000C8H   SFRSYM    DATA     BIT       P50
      000000C0H.1 SFRSYM    DATA     BIT       P41
      000000B0H.2 SFRSYM    DATA     BIT       P32
      000000A0H.3 SFRSYM    DATA     BIT       P23
      00000090H.4 SFRSYM    DATA     BIT       P14
      00000080H.5 SFRSYM    DATA     BIT       P05
      00000089H   SFRSYM    DATA     BYTE      TMOD
      00000088H   SFRSYM    DATA     BYTE      TCON
      000000E8H   SFRSYM    DATA     BIT       P60
      000000C8H.1 SFRSYM    DATA     BIT       P51
      000000C0H.2 SFRSYM    DATA     BIT       P42
      000000B0H.3 SFRSYM    DATA     BIT       P33
      000000A0H.4 SFRSYM    DATA     BIT       P24
      00000090H.5 SFRSYM    DATA     BIT       P15
      00000080H.6 SFRSYM    DATA     BIT       P06
      000000C4H   SFRSYM    DATA     BYTE      ISP_ADDRL
      000000B8H.6 SFRSYM    DATA     BIT       PLVD
      000000F8H   SFRSYM    DATA     BIT       P70
      000000E8H.1 SFRSYM    DATA     BIT       P61
      000000C8H.2 SFRSYM    DATA     BIT       P52
      000000C0H.3 SFRSYM    DATA     BIT       P43
      000000B0H.4 SFRSYM    DATA     BIT       P34
      000000A0H.5 SFRSYM    DATA     BIT       P25
      00000090H.6 SFRSYM    DATA     BIT       P16
      00000080H.7 SFRSYM    DATA     BIT       P07
      000000F8H.1 SFRSYM    DATA     BIT       P71
      000000E8H.2 SFRSYM    DATA     BIT       P62
      000000C8H.3 SFRSYM    DATA     BIT       P53
      000000C0H.4 SFRSYM    DATA     BIT       P44
      000000B0H.5 SFRSYM    DATA     BIT       P35
      000000A0H.6 SFRSYM    DATA     BIT       P26
      00000090H.7 SFRSYM    DATA     BIT       P17
      000000F8H.2 SFRSYM    DATA     BIT       P72
      000000E8H.3 SFRSYM    DATA     BIT       P63
      000000C8H.4 SFRSYM    DATA     BIT       P54
      000000C0H.5 SFRSYM    DATA     BIT       P45
      000000B0H.6 SFRSYM    DATA     BIT       P36
      000000A0H.7 SFRSYM    DATA     BIT       P27
      000000F8H.3 SFRSYM    DATA     BIT       P73
      000000E8H.4 SFRSYM    DATA     BIT       P64
      000000C8H.5 SFRSYM    DATA     BIT       P55
      000000C0H.6 SFRSYM    DATA     BIT       P46
      000000B0H.7 SFRSYM    DATA     BIT       P37
      000000F8H.4 SFRSYM    DATA     BIT       P74
      000000E8H.5 SFRSYM    DATA     BIT       P65
      000000C8H.6 SFRSYM    DATA     BIT       P56
      000000C0H.7 SFRSYM    DATA     BIT       P47
      000000F8H.5 SFRSYM    DATA     BIT       P75
      000000E8H.6 SFRSYM    DATA     BIT       P66
      000000C8H.7 SFRSYM    DATA     BIT       P57
      000000F8H.6 SFRSYM    DATA     BIT       P76
LX51 LINKER/LOCATER V4.66.1.0                                                         10/08/2016  19:44:16  PAGE 35


      000000E8H.7 SFRSYM    DATA     BIT       P67
      000000F8H.7 SFRSYM    DATA     BIT       P77
      00000088H.1 SFRSYM    DATA     BIT       IE0
      000000A1H   SFRSYM    DATA     BYTE      BUS_SPEED
      00000088H.3 SFRSYM    DATA     BIT       IE1
      000000AFH   SFRSYM    DATA     BYTE      IE2
      000000F0H   SFRSYM    DATA     BYTE      B
      0000008EH   SFRSYM    DATA     BYTE      AUXR
      000000C7H   SFRSYM    DATA     BYTE      IAP_CONTR
      000000F1H   SFRSYM    DATA     BYTE      PWMCFG
      000000E0H   SFRSYM    DATA     BYTE      ACC
      000000A8H.1 SFRSYM    DATA     BIT       ET0
      000000A8H.3 SFRSYM    DATA     BIT       ET1
      00000088H.5 SFRSYM    DATA     BIT       TF0
      00000088H.7 SFRSYM    DATA     BIT       TF1
      000000B5H   SFRSYM    DATA     BYTE      IP2
      0000008CH   SFRSYM    DATA     BYTE      RL_TH0
      00000098H.2 SFRSYM    DATA     BIT       RB8
      0000008DH   SFRSYM    DATA     BYTE      RL_TH1
      0000008CH   SFRSYM    DATA     BYTE      TH0
      000000A8H   SFRSYM    DATA     BIT       EX0
      00000088H   SFRSYM    DATA     BIT       IT0
      000000D6H   SFRSYM    DATA     BYTE      RL_T2H
      0000008DH   SFRSYM    DATA     BYTE      TH1
      000000A8H.2 SFRSYM    DATA     BIT       EX1
      00000098H.3 SFRSYM    DATA     BIT       TB8
      00000088H.2 SFRSYM    DATA     BIT       IT1
      000000D4H   SFRSYM    DATA     BYTE      RL_T3H
      000000D6H   SFRSYM    DATA     BYTE      TH2
      000000D6H   SFRSYM    DATA     BYTE      T2H
      000000D0H   SFRSYM    DATA     BIT       P
      000000D2H   SFRSYM    DATA     BYTE      RL_T4H
      000000D4H   SFRSYM    DATA     BYTE      TH3
      000000D4H   SFRSYM    DATA     BYTE      T3H
      0000008AH   SFRSYM    DATA     BYTE      RL_TL0
      00000098H.7 SFRSYM    DATA     BIT       SM0
      000000D2H   SFRSYM    DATA     BYTE      TH4
      000000D2H   SFRSYM    DATA     BYTE      T4H
      0000008BH   SFRSYM    DATA     BYTE      RL_TL1
      0000008AH   SFRSYM    DATA     BYTE      TL0
      00000098H.6 SFRSYM    DATA     BIT       SM1
      000000D7H   SFRSYM    DATA     BYTE      RL_T2L
      0000008BH   SFRSYM    DATA     BYTE      TL1
      00000098H.5 SFRSYM    DATA     BIT       SM2
      000000D5H   SFRSYM    DATA     BYTE      RL_T3L
      000000D7H   SFRSYM    DATA     BYTE      TL2
      000000D7H   SFRSYM    DATA     BYTE      T2L
      000000D3H   SFRSYM    DATA     BYTE      RL_T4L
      000000D5H   SFRSYM    DATA     BYTE      TL3
      000000D5H   SFRSYM    DATA     BYTE      T3L
      000000B8H.1 SFRSYM    DATA     BIT       PT0
      000000D3H   SFRSYM    DATA     BYTE      TL4
      000000D3H   SFRSYM    DATA     BYTE      T4L
      000000B8H.3 SFRSYM    DATA     BIT       PT1
      000000D0H.3 SFRSYM    DATA     BIT       RS0
      000000C7H   SFRSYM    DATA     BYTE      ISP_CONTR
      00000088H.4 SFRSYM    DATA     BIT       TR0
      000000D0H.4 SFRSYM    DATA     BIT       RS1
      000000C2H   SFRSYM    DATA     BYTE      IAP_DATA
      00000088H.6 SFRSYM    DATA     BIT       TR1
      000000B8H   SFRSYM    DATA     BIT       PX0
      000000C1H   SFRSYM    DATA     BYTE      WDT_CONTR
      000000B8H.2 SFRSYM    DATA     BIT       PX1
      000000F2H   SFRSYM    DATA     BYTE      PCA_PWM0
      000000F3H   SFRSYM    DATA     BYTE      PCA_PWM1
LX51 LINKER/LOCATER V4.66.1.0                                                         10/08/2016  19:44:16  PAGE 36


      000000F4H   SFRSYM    DATA     BYTE      PCA_PWM2
      0000009DH   SFRSYM    DATA     BYTE      P1ASF
      00000083H   SFRSYM    DATA     BYTE      DPH
      000000D1H   SFRSYM    DATA     BYTE      T4T3M
      000000BEH   SFRSYM    DATA     BYTE      ADC_RESL
      00000082H   SFRSYM    DATA     BYTE      DPL
      000000CDH   SFRSYM    DATA     BYTE      SPSTAT
      000000B7H   SFRSYM    DATA     BYTE      IPH
      0000009BH   SFRSYM    DATA     BYTE      S2BUF
      00000097H   SFRSYM    DATA     BYTE      PCON2
      000000ADH   SFRSYM    DATA     BYTE      S3BUF
      00000098H.4 SFRSYM    DATA     BIT       REN
      00000085H   SFRSYM    DATA     BYTE      S4BUF
      0000009AH   SFRSYM    DATA     BYTE      S2CON
      000000ACH   SFRSYM    DATA     BYTE      S3CON
      000000C2H   SFRSYM    DATA     BYTE      ISP_DATA
      00000084H   SFRSYM    DATA     BYTE      S4CON
      000000B9H   SFRSYM    DATA     BYTE      SADEN
      000000B0H   SFRSYM    DATA     BIT       RXD
      000000A9H   SFRSYM    DATA     BYTE      SADDR
      000000B0H.1 SFRSYM    DATA     BIT       TXD
      000000F0H   SFRSYM    DATA     BIT       B0
      000000F0H.1 SFRSYM    DATA     BIT       B1
      000000C6H   SFRSYM    DATA     BYTE      IAP_TRIG
      000000A2H   SFRSYM    DATA     BYTE      AUXR1
      000000F0H.2 SFRSYM    DATA     BIT       B2
      00000090H.2 SFRSYM    DATA     BIT       SPI_SS
      0000008FH   SFRSYM    DATA     BYTE      AUXR2
      000000F0H.3 SFRSYM    DATA     BIT       B3
      000000F0H.4 SFRSYM    DATA     BIT       B4
      000000D0H.5 SFRSYM    DATA     BIT       F0
      000000F0H.5 SFRSYM    DATA     BIT       B5
      000000D0H.1 SFRSYM    DATA     BIT       F1
      0000008FH   SFRSYM    DATA     BYTE      INT_CLKO
      000000F0H.6 SFRSYM    DATA     BIT       B6
      000000E0H   SFRSYM    DATA     BIT       ACC0
      000000F0H.7 SFRSYM    DATA     BIT       B7
      000000E0H.1 SFRSYM    DATA     BIT       ACC1
      000000E0H.2 SFRSYM    DATA     BIT       ACC2
      000000E0H.3 SFRSYM    DATA     BIT       ACC3
      000000D0H   SFRSYM    DATA     BYTE      PSW
      000000E0H.4 SFRSYM    DATA     BIT       ACC4
      00000090H.5 SFRSYM    DATA     BIT       SPI_SCLK
      000000D8H   SFRSYM    DATA     BIT       CCF0
      000000E0H.5 SFRSYM    DATA     BIT       ACC5
      000000D8H.1 SFRSYM    DATA     BIT       CCF1
      000000E0H.6 SFRSYM    DATA     BIT       ACC6
      000000CFH   SFRSYM    DATA     BYTE      SPDAT
      00000094H   SFRSYM    DATA     BYTE      P0M0
      02000140H   SYMBOL    XDATA    WORD      g_LongKeyCode
      02000142H   SYMBOL    XDATA    WORD      g_ShortKeyCode
      02000145H   SYMBOL    XDATA    WORD      g_PreKey
      02000148H   SYMBOL    XDATA    WORD      g_NowKey
      0200014AH   SYMBOL    XDATA    WORD      g_LongKeyCodePre
      00000007H   SYMBOL    DATA     BYTE      i
      00000006H   SYMBOL    DATA     BYTE      j
      00000005H   SYMBOL    DATA     BYTE      k

      0100298DH   BLOCK     CODE     ---       LVL=0
      0100298DH   LINE      CODE     ---       #41
      0100298DH   LINE      CODE     ---       #42
      0100298DH   LINE      CODE     ---       #44
      01002993H   LINE      CODE     ---       #45
      01002999H   LINE      CODE     ---       #47
      0100299FH   LINE      CODE     ---       #49
LX51 LINKER/LOCATER V4.66.1.0                                                         10/08/2016  19:44:16  PAGE 37


      010029A5H   LINE      CODE     ---       #51
      010029ABH   LINE      CODE     ---       #52
      010029B1H   LINE      CODE     ---       #53
      010029B7H   LINE      CODE     ---       #55
      010029BDH   LINE      CODE     ---       #57
      010029C3H   LINE      CODE     ---       #62
      010029C5H   LINE      CODE     ---       #63
      010029C7H   LINE      CODE     ---       #64
      010029C9H   LINE      CODE     ---       #66
      ---         BLOCKEND  ---      ---       LVL=0

      01002209H   BLOCK     CODE     ---       LVL=0
      01002209H   BLOCK     CODE     NEAR LAB  LVL=1
      00000006H   SYMBOL    DATA     WORD      key
      ---         BLOCKEND  ---      ---       LVL=1
      01002209H   LINE      CODE     ---       #71
      01002209H   LINE      CODE     ---       #72
      0100220BH   LINE      CODE     ---       #73
      01002218H   LINE      CODE     ---       #74
      01002225H   LINE      CODE     ---       #75
      01002232H   LINE      CODE     ---       #76
      0100223FH   LINE      CODE     ---       #77
      0100224CH   LINE      CODE     ---       #78
      01002259H   LINE      CODE     ---       #79
      01002266H   LINE      CODE     ---       #80
      01002273H   LINE      CODE     ---       #81
      01002281H   LINE      CODE     ---       #82
      01002281H   LINE      CODE     ---       #83
      ---         BLOCKEND  ---      ---       LVL=0

      010019AFH   BLOCK     CODE     ---       LVL=0
      010019AFH   BLOCK     CODE     NEAR LAB  LVL=1
      00000006H   SYMBOL    DATA     WORD      key
      0200013EH   SYMBOL    XDATA    WORD      CntPlus
      ---         BLOCKEND  ---      ---       LVL=1
      010019AFH   LINE      CODE     ---       #100
      010019AFH   LINE      CODE     ---       #101
      010019BAH   LINE      CODE     ---       #103
      010019C9H   LINE      CODE     ---       #104
      010019D1H   LINE      CODE     ---       #105
      010019F7H   LINE      CODE     ---       #108
      01001A1FH   LINE      CODE     ---       #109
      01001A1FH   LINE      CODE     ---       #110
      01001A34H   LINE      CODE     ---       #111
      01001A34H   LINE      CODE     ---       #112
      01001A46H   LINE      CODE     ---       #113
      01001A46H   LINE      CODE     ---       #114
      01001A55H   LINE      CODE     ---       #115
      01001A55H   LINE      CODE     ---       #116
      01001A57H   LINE      CODE     ---       #118
      01001A57H   LINE      CODE     ---       #119
      01001A5EH   LINE      CODE     ---       #120
      01001A70H   LINE      CODE     ---       #121
      01001A82H   LINE      CODE     ---       #122
      01001A82H   LINE      CODE     ---       #123
      ---         BLOCKEND  ---      ---       LVL=0

      01000006H   BLOCK     CODE     ---       LVL=0
      01000006H   LINE      CODE     ---       #136
      01000006H   LINE      CODE     ---       #137
      01000006H   LINE      CODE     ---       #138
      01000008H   LINE      CODE     ---       #139
      ---         BLOCKEND  ---      ---       LVL=0

      01002CACH   BLOCK     CODE     ---       LVL=0
LX51 LINKER/LOCATER V4.66.1.0                                                         10/08/2016  19:44:16  PAGE 38


      01002CACH   LINE      CODE     ---       #140
      01002CACH   LINE      CODE     ---       #141
      01002CACH   LINE      CODE     ---       #142
      01002CAEH   LINE      CODE     ---       #143
      ---         BLOCKEND  ---      ---       LVL=0

      01002CAFH   BLOCK     CODE     ---       LVL=0
      01002CAFH   LINE      CODE     ---       #144
      01002CAFH   LINE      CODE     ---       #145
      01002CAFH   LINE      CODE     ---       #146
      01002CB1H   LINE      CODE     ---       #147
      ---         BLOCKEND  ---      ---       LVL=0

      01002CB2H   BLOCK     CODE     ---       LVL=0
      01002CB2H   LINE      CODE     ---       #148
      01002CB2H   LINE      CODE     ---       #149
      01002CB2H   LINE      CODE     ---       #150
      01002CB4H   LINE      CODE     ---       #151
      ---         BLOCKEND  ---      ---       LVL=0

      01002BF3H   BLOCK     CODE     ---       LVL=0
      00000006H   SYMBOL    DATA     ---       cnt
      00000004H   SYMBOL    DATA     ---       func
      01002BF3H   LINE      CODE     ---       #155
      01002BF3H   LINE      CODE     ---       #156
      01002BF9H   LINE      CODE     ---       #157
      01002BFBH   LINE      CODE     ---       #158
      01002C06H   LINE      CODE     ---       #159
      ---         BLOCKEND  ---      ---       LVL=0

      0100290FH   BLOCK     CODE     VOID      LVL=0
      ---         BLOCKEND  ---      ---       LVL=0

      01002912H   BLOCK     CODE     ---       LVL=0
      02000118H   SYMBOL    XDATA    ---       cnt
      00000005H   SYMBOL    DATA     BYTE      second
      00000003H   SYMBOL    DATA     BYTE      millisecond
      01002912H   LINE      CODE     ---       #161
      0100291AH   LINE      CODE     ---       #162
      0100291DH   LINE      CODE     ---       #163
      0100292EH   LINE      CODE     ---       #164
      01002936H   LINE      CODE     ---       #165
      01002937H   LINE      CODE     ---       #166
      01002947H   LINE      CODE     ---       #167
      0100294EH   LINE      CODE     ---       #168
      0100294EH   LINE      CODE     ---       #169
      ---         BLOCKEND  ---      ---       LVL=0

      01002282H   BLOCK     CODE     ---       LVL=0
      02000118H   SYMBOL    XDATA    ---       cnt
      01002282H   LINE      CODE     ---       #172
      0100228AH   LINE      CODE     ---       #173
      010022A1H   LINE      CODE     ---       #174
      010022A3H   LINE      CODE     ---       #176
      010022B4H   LINE      CODE     ---       #177
      010022B4H   LINE      CODE     ---       #178
      010022B7H   LINE      CODE     ---       #179
      010022CCH   LINE      CODE     ---       #180
      010022DCH   LINE      CODE     ---       #181
      010022DEH   LINE      CODE     ---       #182
      010022DEH   LINE      CODE     ---       #183
      010022EDH   LINE      CODE     ---       #184
      010022F5H   LINE      CODE     ---       #185
      010022F5H   LINE      CODE     ---       #186
      010022F5H   LINE      CODE     ---       #188
LX51 LINKER/LOCATER V4.66.1.0                                                         10/08/2016  19:44:16  PAGE 39


      010022F6H   LINE      CODE     ---       #189
      ---         BLOCKEND  ---      ---       LVL=0
      00000082H   SYMBOL    DATA     ---       cnt

      01002AE5H   BLOCK     CODE     ---       LVL=0
      01002AE5H   LINE      CODE     ---       #198
      01002AE5H   LINE      CODE     ---       #199
      01002AE5H   LINE      CODE     ---       #200
      01002AECH   LINE      CODE     ---       #201
      01002AF3H   LINE      CODE     ---       #202
      01002AFAH   LINE      CODE     ---       #203
      ---         BLOCKEND  ---      ---       LVL=0

      01002A25H   BLOCK     CODE     ---       LVL=0
      01002A25H   LINE      CODE     ---       #208
      01002A25H   LINE      CODE     ---       #209
      01002A25H   LINE      CODE     ---       #210
      01002A30H   LINE      CODE     ---       #211
      01002A3BH   LINE      CODE     ---       #212
      01002A46H   LINE      CODE     ---       #213
      ---         BLOCKEND  ---      ---       LVL=0

      010018B4H   BLOCK     CODE     ---       LVL=0
      010018B4H   LINE      CODE     ---       #226
      010018B4H   LINE      CODE     ---       #227
      010018C0H   LINE      CODE     ---       #230
      010018C6H   LINE      CODE     ---       #231
      010018C8H   LINE      CODE     ---       #232
      010018C8H   LINE      CODE     ---       #233
      010018D5H   LINE      CODE     ---       #235
      010018D7H   LINE      CODE     ---       #236
      010018DAH   LINE      CODE     ---       #237
      010018DAH   LINE      CODE     ---       #238
      010018DFH   LINE      CODE     ---       #239
      010018E4H   LINE      CODE     ---       #240
      010018E6H   LINE      CODE     ---       #241
      010018ECH   LINE      CODE     ---       #242
      010018EDH   LINE      CODE     ---       #243
      010018EFH   LINE      CODE     ---       #244
      010018F1H   LINE      CODE     ---       #245
      010018F4H   LINE      CODE     ---       #246
      010018F9H   LINE      CODE     ---       #247
      010018F9H   LINE      CODE     ---       #248
      010018F9H   LINE      CODE     ---       #249
      01001908H   LINE      CODE     ---       #251
      0100190EH   LINE      CODE     ---       #252
      0100190EH   LINE      CODE     ---       #253
      01001914H   LINE      CODE     ---       #254
      01001918H   LINE      CODE     ---       #255
      0100191AH   LINE      CODE     ---       #256
      0100191DH   LINE      CODE     ---       #257
      0100191DH   LINE      CODE     ---       #259
      0100192BH   LINE      CODE     ---       #261
      01001931H   LINE      CODE     ---       #262
      01001931H   LINE      CODE     ---       #263
      01001937H   LINE      CODE     ---       #264
      0100193AH   LINE      CODE     ---       #265
      01001940H   LINE      CODE     ---       #266
      01001940H   LINE      CODE     ---       #267
      01001940H   LINE      CODE     ---       #268
      0100194EH   LINE      CODE     ---       #270
      01001957H   LINE      CODE     ---       #271
      01001964H   LINE      CODE     ---       #273
      0100196DH   LINE      CODE     ---       #274
      0100197AH   LINE      CODE     ---       #275
LX51 LINKER/LOCATER V4.66.1.0                                                         10/08/2016  19:44:16  PAGE 40


      01001980H   LINE      CODE     ---       #276
      01001984H   LINE      CODE     ---       #277
      01001986H   LINE      CODE     ---       #278
      0100198EH   LINE      CODE     ---       #279
      0100199AH   LINE      CODE     ---       #280
      0100199CH   LINE      CODE     ---       #281
      010019A9H   LINE      CODE     ---       #282
      010019ABH   LINE      CODE     ---       #283
      010019AEH   LINE      CODE     ---       #284
      010019AEH   LINE      CODE     ---       #286
      ---         BLOCKEND  ---      ---       LVL=0

      01002C07H   BLOCK     CODE     ---       LVL=0
      01002C07H   LINE      CODE     ---       #296
      01002C07H   LINE      CODE     ---       #297
      01002C07H   LINE      CODE     ---       #298
      01002C0DH   LINE      CODE     ---       #299
      01002C10H   LINE      CODE     ---       #300
      01002C16H   LINE      CODE     ---       #301
      01002C19H   LINE      CODE     ---       #302
      ---         BLOCKEND  ---      ---       LVL=0

      010022F7H   BLOCK     CODE     ---       LVL=0
      010022F7H   LINE      CODE     ---       #304
      010022F7H   LINE      CODE     ---       #305
      0100230DH   LINE      CODE     ---       #307
      01002319H   LINE      CODE     ---       #308
      01002326H   LINE      CODE     ---       #310
      0100232CH   LINE      CODE     ---       #311
      0100232CH   LINE      CODE     ---       #312
      0100232FH   LINE      CODE     ---       #313
      0100233CH   LINE      CODE     ---       #314
      0100233CH   LINE      CODE     ---       #315
      01002349H   LINE      CODE     ---       #317
      0100234FH   LINE      CODE     ---       #318
      0100234FH   LINE      CODE     ---       #319
      01002352H   LINE      CODE     ---       #320
      0100235FH   LINE      CODE     ---       #321
      0100235FH   LINE      CODE     ---       #322
      0100235FH   LINE      CODE     ---       #323
      ---         BLOCKEND  ---      ---       LVL=0

      010029F8H   BLOCK     CODE     ---       LVL=0
      010029F8H   LINE      CODE     ---       #326
      010029F8H   LINE      CODE     ---       #327
      010029FBH   LINE      CODE     ---       #328
      01002A05H   LINE      CODE     ---       #329
      01002A05H   LINE      CODE     ---       #331
      01002A08H   LINE      CODE     ---       #332
      01002A08H   LINE      CODE     ---       #333
      01002A12H   LINE      CODE     ---       #334
      01002A12H   LINE      CODE     ---       #336
      01002A15H   LINE      CODE     ---       #337
      01002A15H   LINE      CODE     ---       #338
      01002A24H   LINE      CODE     ---       #339
      ---         BLOCKEND  ---      ---       LVL=0

      ---         MODULE    ---      ---       LED
      01002A51H   PUBLIC    CODE     ---       led_config_change
      01002091H   PUBLIC    CODE     ---       _led_color_8bit
      01002B85H   PUBLIC    CODE     ---       T0_code
      01002BB3H   PUBLIC    CODE     ---       T1_code
      000000D8H.2 SFRSYM    DATA     BIT       CCF2
      000000E0H.7 SFRSYM    DATA     BIT       ACC7
      00000093H   SFRSYM    DATA     BYTE      P0M1
LX51 LINKER/LOCATER V4.66.1.0                                                         10/08/2016  19:44:16  PAGE 41


      00000092H   SFRSYM    DATA     BYTE      P1M0
      00000096H   SFRSYM    DATA     BYTE      P2M0
      00000091H   SFRSYM    DATA     BYTE      P1M1
      00000080H   SFRSYM    DATA     BYTE      P0
      000000B2H   SFRSYM    DATA     BYTE      P3M0
      00000095H   SFRSYM    DATA     BYTE      P2M1
      00000090H   SFRSYM    DATA     BYTE      P1
      000000B4H   SFRSYM    DATA     BYTE      P4M0
      000000B1H   SFRSYM    DATA     BYTE      P3M1
      000000A0H   SFRSYM    DATA     BYTE      P2
      000000CAH   SFRSYM    DATA     BYTE      P5M0
      000000B3H   SFRSYM    DATA     BYTE      P4M1
      000000B0H   SFRSYM    DATA     BYTE      P3
      000000ABH   SFRSYM    DATA     BYTE      WKTCH
      000000B0H.4 SFRSYM    DATA     BIT       T0
      000000D0H.6 SFRSYM    DATA     BIT       AC
      000000CCH   SFRSYM    DATA     BYTE      P6M0
      000000C9H   SFRSYM    DATA     BYTE      P5M1
      000000C0H   SFRSYM    DATA     BYTE      P4
      000000B0H.5 SFRSYM    DATA     BIT       CLKOUT0
      000000B0H.5 SFRSYM    DATA     BIT       T1
      000000F6H   SFRSYM    DATA     BYTE      PWMIF
      000000E2H   SFRSYM    DATA     BYTE      P7M0
      000000CBH   SFRSYM    DATA     BYTE      P6M1
      000000C8H   SFRSYM    DATA     BYTE      P5
      000000C6H   SFRSYM    DATA     BYTE      ISP_TRIG
      000000A8H.7 SFRSYM    DATA     BIT       EA
      000000B0H.4 SFRSYM    DATA     BIT       CLKOUT1
      000000A0H.4 SFRSYM    DATA     BIT       SPI_SS_2
      000000E8H   SFRSYM    DATA     BYTE      P6
      000000E1H   SFRSYM    DATA     BYTE      P7M1
      000000C8H.4 SFRSYM    DATA     BIT       SPI_SS_3
      00000090H.4 SFRSYM    DATA     BIT       SPI_MISO
      00000090H.3 SFRSYM    DATA     BIT       SPI_MOSI
      00000090H.1 SFRSYM    DATA     BIT       CCP0
      000000F8H   SFRSYM    DATA     BYTE      P7
      000000AAH   SFRSYM    DATA     BYTE      WKTCL
      00000090H   SFRSYM    DATA     BIT       CCP1
      000000CEH   SFRSYM    DATA     BYTE      SPCTL
      000000D8H.7 SFRSYM    DATA     BIT       CF
      000000B0H.7 SFRSYM    DATA     BIT       CCP2
      000000F9H   SFRSYM    DATA     BYTE      CH
      000000F5H   SFRSYM    DATA     BYTE      PWMCR
      000000A2H   SFRSYM    DATA     BYTE      P_SW1
      000000BAH   SFRSYM    DATA     BYTE      P_SW2
      000000A8H.5 SFRSYM    DATA     BIT       EADC
      000000A0H.1 SFRSYM    DATA     BIT       SPI_SCLK_2
      000000A8H   SFRSYM    DATA     BYTE      IE
      000000C0H.3 SFRSYM    DATA     BIT       SPI_SCLK_3
      000000E9H   SFRSYM    DATA     BYTE      CL
      000000C5H   SFRSYM    DATA     BYTE      IAP_CMD
      000000FAH   SFRSYM    DATA     BYTE      CCAP0H
      000000FBH   SFRSYM    DATA     BYTE      CCAP1H
      000000FCH   SFRSYM    DATA     BYTE      CCAP2H
      000000BDH   SFRSYM    DATA     BYTE      ADC_RES
      000000B6H   SFRSYM    DATA     BYTE      IPH2
      000000D8H.6 SFRSYM    DATA     BIT       CR
      000000EAH   SFRSYM    DATA     BYTE      CCAP0L
      000000B0H.7 SFRSYM    DATA     BIT       RD
      000000F7H   SFRSYM    DATA     BYTE      PWMFDCR
      000000EBH   SFRSYM    DATA     BYTE      CCAP1L
      000000DAH   SFRSYM    DATA     BYTE      CCAPM0
      000000ECH   SFRSYM    DATA     BYTE      CCAP2L
      000000DBH   SFRSYM    DATA     BYTE      CCAPM1
      000000A8H.4 SFRSYM    DATA     BIT       ES
LX51 LINKER/LOCATER V4.66.1.0                                                         10/08/2016  19:44:16  PAGE 42


      000000DCH   SFRSYM    DATA     BYTE      CCAPM2
      000000B8H.5 SFRSYM    DATA     BIT       PADC
      000000A0H.2 SFRSYM    DATA     BIT       SPI_MISO_2
      000000A0H.3 SFRSYM    DATA     BIT       SPI_MOSI_2
      000000B8H   SFRSYM    DATA     BYTE      IP
      000000C0H.1 SFRSYM    DATA     BIT       SPI_MISO_3
      000000C0H   SFRSYM    DATA     BIT       SPI_MOSI_3
      00000098H   SFRSYM    DATA     BIT       RI
      000000B0H.2 SFRSYM    DATA     BIT       INT0
      000000D0H.7 SFRSYM    DATA     BIT       CY
      00000098H.1 SFRSYM    DATA     BIT       TI
      000000B0H.3 SFRSYM    DATA     BIT       INT1
      00000097H   SFRSYM    DATA     BYTE      CLK_DIV
      000000C3H   SFRSYM    DATA     BYTE      IAP_ADDRH
      00000090H   SFRSYM    DATA     BIT       RXD2
      000000C5H   SFRSYM    DATA     BYTE      ISP_CMD
      000000B8H.4 SFRSYM    DATA     BIT       PS
      00000090H.1 SFRSYM    DATA     BIT       TXD2
      00000081H   SFRSYM    DATA     BYTE      SP
      000000D9H   SFRSYM    DATA     BYTE      CMOD
      000000D8H   SFRSYM    DATA     BYTE      CCON
      000000C4H   SFRSYM    DATA     BYTE      IAP_ADDRL
      000000B8H.7 SFRSYM    DATA     BIT       PPCA
      000000D0H.2 SFRSYM    DATA     BIT       OV
      000000B0H.7 SFRSYM    DATA     BIT       PWM2
      000000A0H.1 SFRSYM    DATA     BIT       PWM3
      000000E6H   SFRSYM    DATA     BYTE      CMPCR1
      000000B0H.6 SFRSYM    DATA     BIT       WR
      000000E7H   SFRSYM    DATA     BYTE      CMPCR2
      000000A0H.3 SFRSYM    DATA     BIT       PWM5
      00000090H.7 SFRSYM    DATA     BIT       PWM7
      000000A8H.6 SFRSYM    DATA     BIT       ELVD
      00000080H   SFRSYM    DATA     BIT       P00
      00000090H   SFRSYM    DATA     BIT       P10
      00000080H.1 SFRSYM    DATA     BIT       P01
      000000BCH   SFRSYM    DATA     BYTE      ADC_CONTR
      00000099H   SFRSYM    DATA     BYTE      SBUF
      00000087H   SFRSYM    DATA     BYTE      PCON
      000000A0H   SFRSYM    DATA     BIT       P20
      00000090H.1 SFRSYM    DATA     BIT       P11
      00000080H.2 SFRSYM    DATA     BIT       P02
      000000C3H   SFRSYM    DATA     BYTE      ISP_ADDRH
      000000B0H   SFRSYM    DATA     BIT       P30
      000000A0H.1 SFRSYM    DATA     BIT       P21
      00000090H.2 SFRSYM    DATA     BIT       P12
      00000080H.3 SFRSYM    DATA     BIT       P03
      000000C0H   SFRSYM    DATA     BIT       P40
      000000B0H.1 SFRSYM    DATA     BIT       P31
      000000A0H.2 SFRSYM    DATA     BIT       P22
      00000090H.3 SFRSYM    DATA     BIT       P13
      00000080H.4 SFRSYM    DATA     BIT       P04
      00000098H   SFRSYM    DATA     BYTE      SCON
      0000008FH   SFRSYM    DATA     BYTE      WAKE_CLKO
      000000C8H   SFRSYM    DATA     BIT       P50
      000000C0H.1 SFRSYM    DATA     BIT       P41
      000000B0H.2 SFRSYM    DATA     BIT       P32
      000000A0H.3 SFRSYM    DATA     BIT       P23
      00000090H.4 SFRSYM    DATA     BIT       P14
      00000080H.5 SFRSYM    DATA     BIT       P05
      00000089H   SFRSYM    DATA     BYTE      TMOD
      00000088H   SFRSYM    DATA     BYTE      TCON
      000000E8H   SFRSYM    DATA     BIT       P60
      000000C8H.1 SFRSYM    DATA     BIT       P51
      000000C0H.2 SFRSYM    DATA     BIT       P42
      000000B0H.3 SFRSYM    DATA     BIT       P33
LX51 LINKER/LOCATER V4.66.1.0                                                         10/08/2016  19:44:16  PAGE 43


      000000A0H.4 SFRSYM    DATA     BIT       P24
      00000090H.5 SFRSYM    DATA     BIT       P15
      00000080H.6 SFRSYM    DATA     BIT       P06
      000000C4H   SFRSYM    DATA     BYTE      ISP_ADDRL
      000000B8H.6 SFRSYM    DATA     BIT       PLVD
      000000F8H   SFRSYM    DATA     BIT       P70
      000000E8H.1 SFRSYM    DATA     BIT       P61
      000000C8H.2 SFRSYM    DATA     BIT       P52
      000000C0H.3 SFRSYM    DATA     BIT       P43
      000000B0H.4 SFRSYM    DATA     BIT       P34
      000000A0H.5 SFRSYM    DATA     BIT       P25
      00000090H.6 SFRSYM    DATA     BIT       P16
      00000080H.7 SFRSYM    DATA     BIT       P07
      000000F8H.1 SFRSYM    DATA     BIT       P71
      000000E8H.2 SFRSYM    DATA     BIT       P62
      000000C8H.3 SFRSYM    DATA     BIT       P53
      000000C0H.4 SFRSYM    DATA     BIT       P44
      000000B0H.5 SFRSYM    DATA     BIT       P35
      000000A0H.6 SFRSYM    DATA     BIT       P26
      00000090H.7 SFRSYM    DATA     BIT       P17
      000000F8H.2 SFRSYM    DATA     BIT       P72
      000000E8H.3 SFRSYM    DATA     BIT       P63
      000000C8H.4 SFRSYM    DATA     BIT       P54
      000000C0H.5 SFRSYM    DATA     BIT       P45
      000000B0H.6 SFRSYM    DATA     BIT       P36
      000000A0H.7 SFRSYM    DATA     BIT       P27
      000000F8H.3 SFRSYM    DATA     BIT       P73
      000000E8H.4 SFRSYM    DATA     BIT       P64
      000000C8H.5 SFRSYM    DATA     BIT       P55
      000000C0H.6 SFRSYM    DATA     BIT       P46
      000000B0H.7 SFRSYM    DATA     BIT       P37
      000000F8H.4 SFRSYM    DATA     BIT       P74
      000000E8H.5 SFRSYM    DATA     BIT       P65
      000000C8H.6 SFRSYM    DATA     BIT       P56
      000000C0H.7 SFRSYM    DATA     BIT       P47
      000000F8H.5 SFRSYM    DATA     BIT       P75
      000000E8H.6 SFRSYM    DATA     BIT       P66
      000000C8H.7 SFRSYM    DATA     BIT       P57
      000000F8H.6 SFRSYM    DATA     BIT       P76
      000000E8H.7 SFRSYM    DATA     BIT       P67
      000000F8H.7 SFRSYM    DATA     BIT       P77
      00000088H.1 SFRSYM    DATA     BIT       IE0
      000000A1H   SFRSYM    DATA     BYTE      BUS_SPEED
      00000088H.3 SFRSYM    DATA     BIT       IE1
      000000AFH   SFRSYM    DATA     BYTE      IE2
      000000F0H   SFRSYM    DATA     BYTE      B
      0000008EH   SFRSYM    DATA     BYTE      AUXR
      000000C7H   SFRSYM    DATA     BYTE      IAP_CONTR
      000000F1H   SFRSYM    DATA     BYTE      PWMCFG
      000000E0H   SFRSYM    DATA     BYTE      ACC
      000000A8H.1 SFRSYM    DATA     BIT       ET0
      000000A8H.3 SFRSYM    DATA     BIT       ET1
      00000088H.5 SFRSYM    DATA     BIT       TF0
      00000088H.7 SFRSYM    DATA     BIT       TF1
      000000B5H   SFRSYM    DATA     BYTE      IP2
      0000008CH   SFRSYM    DATA     BYTE      RL_TH0
      00000098H.2 SFRSYM    DATA     BIT       RB8
      0000008DH   SFRSYM    DATA     BYTE      RL_TH1
      0000008CH   SFRSYM    DATA     BYTE      TH0
      000000A8H   SFRSYM    DATA     BIT       EX0
      00000088H   SFRSYM    DATA     BIT       IT0
      000000D6H   SFRSYM    DATA     BYTE      RL_T2H
      0000008DH   SFRSYM    DATA     BYTE      TH1
      000000A8H.2 SFRSYM    DATA     BIT       EX1
      00000098H.3 SFRSYM    DATA     BIT       TB8
LX51 LINKER/LOCATER V4.66.1.0                                                         10/08/2016  19:44:16  PAGE 44


      00000088H.2 SFRSYM    DATA     BIT       IT1
      000000D4H   SFRSYM    DATA     BYTE      RL_T3H
      000000D6H   SFRSYM    DATA     BYTE      TH2
      000000D6H   SFRSYM    DATA     BYTE      T2H
      000000D0H   SFRSYM    DATA     BIT       P
      000000D2H   SFRSYM    DATA     BYTE      RL_T4H
      000000D4H   SFRSYM    DATA     BYTE      TH3
      000000D4H   SFRSYM    DATA     BYTE      T3H
      0000008AH   SFRSYM    DATA     BYTE      RL_TL0
      00000098H.7 SFRSYM    DATA     BIT       SM0
      000000D2H   SFRSYM    DATA     BYTE      TH4
      000000D2H   SFRSYM    DATA     BYTE      T4H
      0000008BH   SFRSYM    DATA     BYTE      RL_TL1
      0000008AH   SFRSYM    DATA     BYTE      TL0
      00000098H.6 SFRSYM    DATA     BIT       SM1
      000000D7H   SFRSYM    DATA     BYTE      RL_T2L
      0000008BH   SFRSYM    DATA     BYTE      TL1
      00000098H.5 SFRSYM    DATA     BIT       SM2
      000000D5H   SFRSYM    DATA     BYTE      RL_T3L
      000000D7H   SFRSYM    DATA     BYTE      TL2
      000000D7H   SFRSYM    DATA     BYTE      T2L
      000000D3H   SFRSYM    DATA     BYTE      RL_T4L
      000000D5H   SFRSYM    DATA     BYTE      TL3
      000000D5H   SFRSYM    DATA     BYTE      T3L
      000000B8H.1 SFRSYM    DATA     BIT       PT0
      000000D3H   SFRSYM    DATA     BYTE      TL4
      000000D3H   SFRSYM    DATA     BYTE      T4L
      000000B8H.3 SFRSYM    DATA     BIT       PT1
      000000D0H.3 SFRSYM    DATA     BIT       RS0
      000000C7H   SFRSYM    DATA     BYTE      ISP_CONTR
      00000088H.4 SFRSYM    DATA     BIT       TR0
      000000D0H.4 SFRSYM    DATA     BIT       RS1
      000000C2H   SFRSYM    DATA     BYTE      IAP_DATA
      00000088H.6 SFRSYM    DATA     BIT       TR1
      000000B8H   SFRSYM    DATA     BIT       PX0
      000000C1H   SFRSYM    DATA     BYTE      WDT_CONTR
      000000B8H.2 SFRSYM    DATA     BIT       PX1
      000000F2H   SFRSYM    DATA     BYTE      PCA_PWM0
      000000F3H   SFRSYM    DATA     BYTE      PCA_PWM1
      000000F4H   SFRSYM    DATA     BYTE      PCA_PWM2
      0000009DH   SFRSYM    DATA     BYTE      P1ASF
      00000083H   SFRSYM    DATA     BYTE      DPH
      000000D1H   SFRSYM    DATA     BYTE      T4T3M
      000000BEH   SFRSYM    DATA     BYTE      ADC_RESL
      00000082H   SFRSYM    DATA     BYTE      DPL
      000000CDH   SFRSYM    DATA     BYTE      SPSTAT
      000000B7H   SFRSYM    DATA     BYTE      IPH
      0000009BH   SFRSYM    DATA     BYTE      S2BUF
      00000097H   SFRSYM    DATA     BYTE      PCON2
      000000ADH   SFRSYM    DATA     BYTE      S3BUF
      00000098H.4 SFRSYM    DATA     BIT       REN
      00000085H   SFRSYM    DATA     BYTE      S4BUF
      0000009AH   SFRSYM    DATA     BYTE      S2CON
      000000ACH   SFRSYM    DATA     BYTE      S3CON
      000000C2H   SFRSYM    DATA     BYTE      ISP_DATA
      00000084H   SFRSYM    DATA     BYTE      S4CON
      000000B9H   SFRSYM    DATA     BYTE      SADEN
      000000B0H   SFRSYM    DATA     BIT       RXD
      000000A9H   SFRSYM    DATA     BYTE      SADDR
      000000B0H.1 SFRSYM    DATA     BIT       TXD
      000000F0H   SFRSYM    DATA     BIT       B0
      000000F0H.1 SFRSYM    DATA     BIT       B1
      000000C6H   SFRSYM    DATA     BYTE      IAP_TRIG
      000000A2H   SFRSYM    DATA     BYTE      AUXR1
      000000F0H.2 SFRSYM    DATA     BIT       B2
LX51 LINKER/LOCATER V4.66.1.0                                                         10/08/2016  19:44:16  PAGE 45


      00000090H.2 SFRSYM    DATA     BIT       SPI_SS
      0000008FH   SFRSYM    DATA     BYTE      AUXR2
      000000F0H.3 SFRSYM    DATA     BIT       B3
      000000F0H.4 SFRSYM    DATA     BIT       B4
      000000D0H.5 SFRSYM    DATA     BIT       F0
      000000F0H.5 SFRSYM    DATA     BIT       B5
      000000D0H.1 SFRSYM    DATA     BIT       F1
      0000008FH   SFRSYM    DATA     BYTE      INT_CLKO
      000000F0H.6 SFRSYM    DATA     BIT       B6
      000000E0H   SFRSYM    DATA     BIT       ACC0
      000000F0H.7 SFRSYM    DATA     BIT       B7
      000000E0H.1 SFRSYM    DATA     BIT       ACC1
      000000E0H.2 SFRSYM    DATA     BIT       ACC2
      000000E0H.3 SFRSYM    DATA     BIT       ACC3
      000000D0H   SFRSYM    DATA     BYTE      PSW
      000000E0H.4 SFRSYM    DATA     BIT       ACC4
      00000090H.5 SFRSYM    DATA     BIT       SPI_SCLK
      000000D8H   SFRSYM    DATA     BIT       CCF0
      000000E0H.5 SFRSYM    DATA     BIT       ACC5
      000000D8H.1 SFRSYM    DATA     BIT       CCF1
      000000E0H.6 SFRSYM    DATA     BIT       ACC6
      000000CFH   SFRSYM    DATA     BYTE      SPDAT
      00000094H   SFRSYM    DATA     BYTE      P0M0

      01002BB3H   BLOCK     CODE     ---       LVL=0
      01002BB3H   LINE      CODE     ---       #6
      01002BB3H   LINE      CODE     ---       #7
      01002BB3H   LINE      CODE     ---       #8
      01002BB5H   LINE      CODE     ---       #9
      01002BB6H   LINE      CODE     ---       #10
      01002BB7H   LINE      CODE     ---       #11
      01002BB8H   LINE      CODE     ---       #12
      01002BB9H   LINE      CODE     ---       #13
      01002BBAH   LINE      CODE     ---       #14
      01002BBBH   LINE      CODE     ---       #15
      01002BBCH   LINE      CODE     ---       #16
      01002BBDH   LINE      CODE     ---       #17
      01002BBEH   LINE      CODE     ---       #18
      01002BBFH   LINE      CODE     ---       #19
      01002BC0H   LINE      CODE     ---       #20
      01002BC1H   LINE      CODE     ---       #21
      01002BC3H   LINE      CODE     ---       #22
      01002BC4H   LINE      CODE     ---       #23
      01002BC5H   LINE      CODE     ---       #24
      01002BC6H   LINE      CODE     ---       #25
      01002BC7H   LINE      CODE     ---       #26
      01002BC8H   LINE      CODE     ---       #27
      ---         BLOCKEND  ---      ---       LVL=0

      01002B85H   BLOCK     CODE     ---       LVL=0
      01002B85H   LINE      CODE     ---       #29
      01002B85H   LINE      CODE     ---       #30
      01002B85H   LINE      CODE     ---       #31
      01002B87H   LINE      CODE     ---       #32
      01002B88H   LINE      CODE     ---       #33
      01002B89H   LINE      CODE     ---       #34
      01002B8AH   LINE      CODE     ---       #35
      01002B8BH   LINE      CODE     ---       #36
      01002B8CH   LINE      CODE     ---       #37
      01002B8DH   LINE      CODE     ---       #38
      01002B8FH   LINE      CODE     ---       #39
      01002B90H   LINE      CODE     ---       #40
      01002B91H   LINE      CODE     ---       #41
      01002B92H   LINE      CODE     ---       #42
      01002B93H   LINE      CODE     ---       #43
LX51 LINKER/LOCATER V4.66.1.0                                                         10/08/2016  19:44:16  PAGE 46


      01002B94H   LINE      CODE     ---       #44
      01002B95H   LINE      CODE     ---       #45
      01002B96H   LINE      CODE     ---       #46
      01002B97H   LINE      CODE     ---       #47
      01002B98H   LINE      CODE     ---       #48
      01002B99H   LINE      CODE     ---       #49
      01002B9AH   LINE      CODE     ---       #50
      01002B9BH   LINE      CODE     ---       #51
      ---         BLOCKEND  ---      ---       LVL=0

      01002091H   BLOCK     CODE     ---       LVL=0
      00000001H   SYMBOL    DATA     ---       led_config
      01002091H   BLOCK     CODE     NEAR LAB  LVL=1
      00000007H   SYMBOL    DATA     BYTE      flag
      00000005H   SYMBOL    DATA     BYTE      iterator
      0200013BH   SYMBOL    XDATA    BYTE      mask
      00000006H   SYMBOL    DATA     BYTE      t_code
      ---         BLOCKEND  ---      ---       LVL=1
      01002091H   LINE      CODE     ---       #55
      01002091H   LINE      CODE     ---       #56
      01002091H   LINE      CODE     ---       #58
      0100209EH   LINE      CODE     ---       #59
      010020A0H   LINE      CODE     ---       #60
      010020A0H   LINE      CODE     ---       #61
      010020ADH   LINE      CODE     ---       #62
      010020B0H   LINE      CODE     ---       #63
      010020B3H   LINE      CODE     ---       #64
      010020B5H   LINE      CODE     ---       #65
      010020B8H   LINE      CODE     ---       #66
      010020B8H   LINE      CODE     ---       #67
      010020BCH   LINE      CODE     ---       #68
      010020C1H   LINE      CODE     ---       #70
      010020C5H   LINE      CODE     ---       #71
      010020C7H   LINE      CODE     ---       #72
      010020C7H   LINE      CODE     ---       #73
      010020D3H   LINE      CODE     ---       #74
      010020D6H   LINE      CODE     ---       #75
      010020D9H   LINE      CODE     ---       #76
      010020DBH   LINE      CODE     ---       #77
      010020DEH   LINE      CODE     ---       #78
      010020DEH   LINE      CODE     ---       #79
      010020E2H   LINE      CODE     ---       #80
      010020E7H   LINE      CODE     ---       #82
      010020EEH   LINE      CODE     ---       #83
      010020F0H   LINE      CODE     ---       #84
      010020F0H   LINE      CODE     ---       #85
      010020FCH   LINE      CODE     ---       #86
      010020FFH   LINE      CODE     ---       #87
      01002102H   LINE      CODE     ---       #88
      01002104H   LINE      CODE     ---       #89
      01002107H   LINE      CODE     ---       #90
      01002107H   LINE      CODE     ---       #91
      0100210BH   LINE      CODE     ---       #92
      01002110H   LINE      CODE     ---       #93
      ---         BLOCKEND  ---      ---       LVL=0

      01002A51H   BLOCK     CODE     ---       LVL=0
      01002A51H   BLOCK     CODE     NEAR LAB  LVL=1
      0200013AH   SYMBOL    XDATA    BYTE      led_index
      ---         BLOCKEND  ---      ---       LVL=1
      01002A51H   LINE      CODE     ---       #96
      01002A51H   LINE      CODE     ---       #97
      01002A51H   LINE      CODE     ---       #99
      01002A60H   LINE      CODE     ---       #100
      01002A7AH   LINE      CODE     ---       #101
LX51 LINKER/LOCATER V4.66.1.0                                                         10/08/2016  19:44:16  PAGE 47


      ---         BLOCKEND  ---      ---       LVL=0

      ---         MODULE    ---      ---       PWM
      01002C6CH   PUBLIC    CODE     ---       PWM_Pin_Init
      01002485H   PUBLIC    CODE     ---       PWM_Init
      01002111H   PUBLIC    CODE     ---       _PWMx_Setup_DutyCycle_Based
      01002C86H   PUBLIC    CODE     ---       _PWMx_Setup_DutyCycle
      01001B51H   PUBLIC    CODE     ---       _PWMx_Configuration
      01002BC9H   PUBLIC    CODE     ---       _PWM_SourceClk_Duty
      000000D8H.2 SFRSYM    DATA     BIT       CCF2
      000000E0H.7 SFRSYM    DATA     BIT       ACC7
      00000093H   SFRSYM    DATA     BYTE      P0M1
      00000092H   SFRSYM    DATA     BYTE      P1M0
      00000096H   SFRSYM    DATA     BYTE      P2M0
      00000091H   SFRSYM    DATA     BYTE      P1M1
      00000080H   SFRSYM    DATA     BYTE      P0
      000000B2H   SFRSYM    DATA     BYTE      P3M0
      00000095H   SFRSYM    DATA     BYTE      P2M1
      00000090H   SFRSYM    DATA     BYTE      P1
      000000B4H   SFRSYM    DATA     BYTE      P4M0
      000000B1H   SFRSYM    DATA     BYTE      P3M1
      000000A0H   SFRSYM    DATA     BYTE      P2
      000000CAH   SFRSYM    DATA     BYTE      P5M0
      000000B3H   SFRSYM    DATA     BYTE      P4M1
      000000B0H   SFRSYM    DATA     BYTE      P3
      000000ABH   SFRSYM    DATA     BYTE      WKTCH
      000000B0H.4 SFRSYM    DATA     BIT       T0
      000000D0H.6 SFRSYM    DATA     BIT       AC
      000000CCH   SFRSYM    DATA     BYTE      P6M0
      000000C9H   SFRSYM    DATA     BYTE      P5M1
      000000C0H   SFRSYM    DATA     BYTE      P4
      000000B0H.5 SFRSYM    DATA     BIT       CLKOUT0
      000000B0H.5 SFRSYM    DATA     BIT       T1
      000000F6H   SFRSYM    DATA     BYTE      PWMIF
      000000E2H   SFRSYM    DATA     BYTE      P7M0
      000000CBH   SFRSYM    DATA     BYTE      P6M1
      000000C8H   SFRSYM    DATA     BYTE      P5
      000000C6H   SFRSYM    DATA     BYTE      ISP_TRIG
      000000A8H.7 SFRSYM    DATA     BIT       EA
      000000B0H.4 SFRSYM    DATA     BIT       CLKOUT1
      000000A0H.4 SFRSYM    DATA     BIT       SPI_SS_2
      000000E8H   SFRSYM    DATA     BYTE      P6
      000000E1H   SFRSYM    DATA     BYTE      P7M1
      000000C8H.4 SFRSYM    DATA     BIT       SPI_SS_3
      00000090H.4 SFRSYM    DATA     BIT       SPI_MISO
      00000090H.3 SFRSYM    DATA     BIT       SPI_MOSI
      00000090H.1 SFRSYM    DATA     BIT       CCP0
      000000F8H   SFRSYM    DATA     BYTE      P7
      000000AAH   SFRSYM    DATA     BYTE      WKTCL
      00000090H   SFRSYM    DATA     BIT       CCP1
      000000CEH   SFRSYM    DATA     BYTE      SPCTL
      000000D8H.7 SFRSYM    DATA     BIT       CF
      000000B0H.7 SFRSYM    DATA     BIT       CCP2
      000000F9H   SFRSYM    DATA     BYTE      CH
      000000F5H   SFRSYM    DATA     BYTE      PWMCR
      000000A2H   SFRSYM    DATA     BYTE      P_SW1
      000000BAH   SFRSYM    DATA     BYTE      P_SW2
      000000A8H.5 SFRSYM    DATA     BIT       EADC
      000000A0H.1 SFRSYM    DATA     BIT       SPI_SCLK_2
      000000A8H   SFRSYM    DATA     BYTE      IE
      000000C0H.3 SFRSYM    DATA     BIT       SPI_SCLK_3
      000000E9H   SFRSYM    DATA     BYTE      CL
      000000C5H   SFRSYM    DATA     BYTE      IAP_CMD
      000000FAH   SFRSYM    DATA     BYTE      CCAP0H
      000000FBH   SFRSYM    DATA     BYTE      CCAP1H
LX51 LINKER/LOCATER V4.66.1.0                                                         10/08/2016  19:44:16  PAGE 48


      000000FCH   SFRSYM    DATA     BYTE      CCAP2H
      000000BDH   SFRSYM    DATA     BYTE      ADC_RES
      000000B6H   SFRSYM    DATA     BYTE      IPH2
      000000D8H.6 SFRSYM    DATA     BIT       CR
      000000EAH   SFRSYM    DATA     BYTE      CCAP0L
      000000B0H.7 SFRSYM    DATA     BIT       RD
      000000F7H   SFRSYM    DATA     BYTE      PWMFDCR
      000000EBH   SFRSYM    DATA     BYTE      CCAP1L
      000000DAH   SFRSYM    DATA     BYTE      CCAPM0
      000000ECH   SFRSYM    DATA     BYTE      CCAP2L
      000000DBH   SFRSYM    DATA     BYTE      CCAPM1
      000000A8H.4 SFRSYM    DATA     BIT       ES
      000000DCH   SFRSYM    DATA     BYTE      CCAPM2
      000000B8H.5 SFRSYM    DATA     BIT       PADC
      000000A0H.2 SFRSYM    DATA     BIT       SPI_MISO_2
      000000A0H.3 SFRSYM    DATA     BIT       SPI_MOSI_2
      000000B8H   SFRSYM    DATA     BYTE      IP
      000000C0H.1 SFRSYM    DATA     BIT       SPI_MISO_3
      000000C0H   SFRSYM    DATA     BIT       SPI_MOSI_3
      00000098H   SFRSYM    DATA     BIT       RI
      000000B0H.2 SFRSYM    DATA     BIT       INT0
      000000D0H.7 SFRSYM    DATA     BIT       CY
      00000098H.1 SFRSYM    DATA     BIT       TI
      000000B0H.3 SFRSYM    DATA     BIT       INT1
      00000097H   SFRSYM    DATA     BYTE      CLK_DIV
      000000C3H   SFRSYM    DATA     BYTE      IAP_ADDRH
      00000090H   SFRSYM    DATA     BIT       RXD2
      000000C5H   SFRSYM    DATA     BYTE      ISP_CMD
      000000B8H.4 SFRSYM    DATA     BIT       PS
      00000090H.1 SFRSYM    DATA     BIT       TXD2
      00000081H   SFRSYM    DATA     BYTE      SP
      000000D9H   SFRSYM    DATA     BYTE      CMOD
      000000D8H   SFRSYM    DATA     BYTE      CCON
      000000C4H   SFRSYM    DATA     BYTE      IAP_ADDRL
      000000B8H.7 SFRSYM    DATA     BIT       PPCA
      000000D0H.2 SFRSYM    DATA     BIT       OV
      000000B0H.7 SFRSYM    DATA     BIT       PWM2
      000000A0H.1 SFRSYM    DATA     BIT       PWM3
      000000E6H   SFRSYM    DATA     BYTE      CMPCR1
      000000B0H.6 SFRSYM    DATA     BIT       WR
      000000E7H   SFRSYM    DATA     BYTE      CMPCR2
      000000A0H.3 SFRSYM    DATA     BIT       PWM5
      00000090H.7 SFRSYM    DATA     BIT       PWM7
      000000A8H.6 SFRSYM    DATA     BIT       ELVD
      00000080H   SFRSYM    DATA     BIT       P00
      00000090H   SFRSYM    DATA     BIT       P10
      00000080H.1 SFRSYM    DATA     BIT       P01
      000000BCH   SFRSYM    DATA     BYTE      ADC_CONTR
      00000099H   SFRSYM    DATA     BYTE      SBUF
      00000087H   SFRSYM    DATA     BYTE      PCON
      000000A0H   SFRSYM    DATA     BIT       P20
      00000090H.1 SFRSYM    DATA     BIT       P11
      00000080H.2 SFRSYM    DATA     BIT       P02
      000000C3H   SFRSYM    DATA     BYTE      ISP_ADDRH
      000000B0H   SFRSYM    DATA     BIT       P30
      000000A0H.1 SFRSYM    DATA     BIT       P21
      00000090H.2 SFRSYM    DATA     BIT       P12
      00000080H.3 SFRSYM    DATA     BIT       P03
      000000C0H   SFRSYM    DATA     BIT       P40
      000000B0H.1 SFRSYM    DATA     BIT       P31
      000000A0H.2 SFRSYM    DATA     BIT       P22
      00000090H.3 SFRSYM    DATA     BIT       P13
      00000080H.4 SFRSYM    DATA     BIT       P04
      00000098H   SFRSYM    DATA     BYTE      SCON
      0000008FH   SFRSYM    DATA     BYTE      WAKE_CLKO
LX51 LINKER/LOCATER V4.66.1.0                                                         10/08/2016  19:44:16  PAGE 49


      000000C8H   SFRSYM    DATA     BIT       P50
      000000C0H.1 SFRSYM    DATA     BIT       P41
      000000B0H.2 SFRSYM    DATA     BIT       P32
      000000A0H.3 SFRSYM    DATA     BIT       P23
      00000090H.4 SFRSYM    DATA     BIT       P14
      00000080H.5 SFRSYM    DATA     BIT       P05
      00000089H   SFRSYM    DATA     BYTE      TMOD
      00000088H   SFRSYM    DATA     BYTE      TCON
      000000E8H   SFRSYM    DATA     BIT       P60
      000000C8H.1 SFRSYM    DATA     BIT       P51
      000000C0H.2 SFRSYM    DATA     BIT       P42
      000000B0H.3 SFRSYM    DATA     BIT       P33
      000000A0H.4 SFRSYM    DATA     BIT       P24
      00000090H.5 SFRSYM    DATA     BIT       P15
      00000080H.6 SFRSYM    DATA     BIT       P06
      000000C4H   SFRSYM    DATA     BYTE      ISP_ADDRL
      000000B8H.6 SFRSYM    DATA     BIT       PLVD
      000000F8H   SFRSYM    DATA     BIT       P70
      000000E8H.1 SFRSYM    DATA     BIT       P61
      000000C8H.2 SFRSYM    DATA     BIT       P52
      000000C0H.3 SFRSYM    DATA     BIT       P43
      000000B0H.4 SFRSYM    DATA     BIT       P34
      000000A0H.5 SFRSYM    DATA     BIT       P25
      00000090H.6 SFRSYM    DATA     BIT       P16
      00000080H.7 SFRSYM    DATA     BIT       P07
      000000F8H.1 SFRSYM    DATA     BIT       P71
      000000E8H.2 SFRSYM    DATA     BIT       P62
      000000C8H.3 SFRSYM    DATA     BIT       P53
      000000C0H.4 SFRSYM    DATA     BIT       P44
      000000B0H.5 SFRSYM    DATA     BIT       P35
      000000A0H.6 SFRSYM    DATA     BIT       P26
      00000090H.7 SFRSYM    DATA     BIT       P17
      000000F8H.2 SFRSYM    DATA     BIT       P72
      000000E8H.3 SFRSYM    DATA     BIT       P63
      000000C8H.4 SFRSYM    DATA     BIT       P54
      000000C0H.5 SFRSYM    DATA     BIT       P45
      000000B0H.6 SFRSYM    DATA     BIT       P36
      000000A0H.7 SFRSYM    DATA     BIT       P27
      000000F8H.3 SFRSYM    DATA     BIT       P73
      000000E8H.4 SFRSYM    DATA     BIT       P64
      000000C8H.5 SFRSYM    DATA     BIT       P55
      000000C0H.6 SFRSYM    DATA     BIT       P46
      000000B0H.7 SFRSYM    DATA     BIT       P37
      000000F8H.4 SFRSYM    DATA     BIT       P74
      000000E8H.5 SFRSYM    DATA     BIT       P65
      000000C8H.6 SFRSYM    DATA     BIT       P56
      000000C0H.7 SFRSYM    DATA     BIT       P47
      000000F8H.5 SFRSYM    DATA     BIT       P75
      000000E8H.6 SFRSYM    DATA     BIT       P66
      000000C8H.7 SFRSYM    DATA     BIT       P57
      000000F8H.6 SFRSYM    DATA     BIT       P76
      000000E8H.7 SFRSYM    DATA     BIT       P67
      000000F8H.7 SFRSYM    DATA     BIT       P77
      00000088H.1 SFRSYM    DATA     BIT       IE0
      000000A1H   SFRSYM    DATA     BYTE      BUS_SPEED
      00000088H.3 SFRSYM    DATA     BIT       IE1
      000000AFH   SFRSYM    DATA     BYTE      IE2
      000000F0H   SFRSYM    DATA     BYTE      B
      0000008EH   SFRSYM    DATA     BYTE      AUXR
      000000C7H   SFRSYM    DATA     BYTE      IAP_CONTR
      000000F1H   SFRSYM    DATA     BYTE      PWMCFG
      000000E0H   SFRSYM    DATA     BYTE      ACC
      000000A8H.1 SFRSYM    DATA     BIT       ET0
      000000A8H.3 SFRSYM    DATA     BIT       ET1
      00000088H.5 SFRSYM    DATA     BIT       TF0
LX51 LINKER/LOCATER V4.66.1.0                                                         10/08/2016  19:44:16  PAGE 50


      00000088H.7 SFRSYM    DATA     BIT       TF1
      000000B5H   SFRSYM    DATA     BYTE      IP2
      0000008CH   SFRSYM    DATA     BYTE      RL_TH0
      00000098H.2 SFRSYM    DATA     BIT       RB8
      0000008DH   SFRSYM    DATA     BYTE      RL_TH1
      0000008CH   SFRSYM    DATA     BYTE      TH0
      000000A8H   SFRSYM    DATA     BIT       EX0
      00000088H   SFRSYM    DATA     BIT       IT0
      000000D6H   SFRSYM    DATA     BYTE      RL_T2H
      0000008DH   SFRSYM    DATA     BYTE      TH1
      000000A8H.2 SFRSYM    DATA     BIT       EX1
      00000098H.3 SFRSYM    DATA     BIT       TB8
      00000088H.2 SFRSYM    DATA     BIT       IT1
      000000D4H   SFRSYM    DATA     BYTE      RL_T3H
      000000D6H   SFRSYM    DATA     BYTE      TH2
      000000D6H   SFRSYM    DATA     BYTE      T2H
      000000D0H   SFRSYM    DATA     BIT       P
      000000D2H   SFRSYM    DATA     BYTE      RL_T4H
      000000D4H   SFRSYM    DATA     BYTE      TH3
      000000D4H   SFRSYM    DATA     BYTE      T3H
      0000008AH   SFRSYM    DATA     BYTE      RL_TL0
      00000098H.7 SFRSYM    DATA     BIT       SM0
      000000D2H   SFRSYM    DATA     BYTE      TH4
      000000D2H   SFRSYM    DATA     BYTE      T4H
      0000008BH   SFRSYM    DATA     BYTE      RL_TL1
      0000008AH   SFRSYM    DATA     BYTE      TL0
      00000098H.6 SFRSYM    DATA     BIT       SM1
      000000D7H   SFRSYM    DATA     BYTE      RL_T2L
      0000008BH   SFRSYM    DATA     BYTE      TL1
      00000098H.5 SFRSYM    DATA     BIT       SM2
      000000D5H   SFRSYM    DATA     BYTE      RL_T3L
      000000D7H   SFRSYM    DATA     BYTE      TL2
      000000D7H   SFRSYM    DATA     BYTE      T2L
      000000D3H   SFRSYM    DATA     BYTE      RL_T4L
      000000D5H   SFRSYM    DATA     BYTE      TL3
      000000D5H   SFRSYM    DATA     BYTE      T3L
      000000B8H.1 SFRSYM    DATA     BIT       PT0
      000000D3H   SFRSYM    DATA     BYTE      TL4
      000000D3H   SFRSYM    DATA     BYTE      T4L
      000000B8H.3 SFRSYM    DATA     BIT       PT1
      000000D0H.3 SFRSYM    DATA     BIT       RS0
      000000C7H   SFRSYM    DATA     BYTE      ISP_CONTR
      00000088H.4 SFRSYM    DATA     BIT       TR0
      000000D0H.4 SFRSYM    DATA     BIT       RS1
      000000C2H   SFRSYM    DATA     BYTE      IAP_DATA
      00000088H.6 SFRSYM    DATA     BIT       TR1
      000000B8H   SFRSYM    DATA     BIT       PX0
      000000C1H   SFRSYM    DATA     BYTE      WDT_CONTR
      000000B8H.2 SFRSYM    DATA     BIT       PX1
      000000F2H   SFRSYM    DATA     BYTE      PCA_PWM0
      000000F3H   SFRSYM    DATA     BYTE      PCA_PWM1
      000000F4H   SFRSYM    DATA     BYTE      PCA_PWM2
      0000009DH   SFRSYM    DATA     BYTE      P1ASF
      00000083H   SFRSYM    DATA     BYTE      DPH
      000000D1H   SFRSYM    DATA     BYTE      T4T3M
      000000BEH   SFRSYM    DATA     BYTE      ADC_RESL
      00000082H   SFRSYM    DATA     BYTE      DPL
      000000CDH   SFRSYM    DATA     BYTE      SPSTAT
      000000B7H   SFRSYM    DATA     BYTE      IPH
      0000009BH   SFRSYM    DATA     BYTE      S2BUF
      00000097H   SFRSYM    DATA     BYTE      PCON2
      000000ADH   SFRSYM    DATA     BYTE      S3BUF
      00000098H.4 SFRSYM    DATA     BIT       REN
      00000085H   SFRSYM    DATA     BYTE      S4BUF
      0000009AH   SFRSYM    DATA     BYTE      S2CON
LX51 LINKER/LOCATER V4.66.1.0                                                         10/08/2016  19:44:16  PAGE 51


      000000ACH   SFRSYM    DATA     BYTE      S3CON
      000000C2H   SFRSYM    DATA     BYTE      ISP_DATA
      00000084H   SFRSYM    DATA     BYTE      S4CON
      000000B9H   SFRSYM    DATA     BYTE      SADEN
      000000B0H   SFRSYM    DATA     BIT       RXD
      000000A9H   SFRSYM    DATA     BYTE      SADDR
      000000B0H.1 SFRSYM    DATA     BIT       TXD
      000000F0H   SFRSYM    DATA     BIT       B0
      000000F0H.1 SFRSYM    DATA     BIT       B1
      000000C6H   SFRSYM    DATA     BYTE      IAP_TRIG
      000000A2H   SFRSYM    DATA     BYTE      AUXR1
      000000F0H.2 SFRSYM    DATA     BIT       B2
      00000090H.2 SFRSYM    DATA     BIT       SPI_SS
      0000008FH   SFRSYM    DATA     BYTE      AUXR2
      000000F0H.3 SFRSYM    DATA     BIT       B3
      000000F0H.4 SFRSYM    DATA     BIT       B4
      000000D0H.5 SFRSYM    DATA     BIT       F0
      000000F0H.5 SFRSYM    DATA     BIT       B5
      000000D0H.1 SFRSYM    DATA     BIT       F1
      0000008FH   SFRSYM    DATA     BYTE      INT_CLKO
      000000F0H.6 SFRSYM    DATA     BIT       B6
      000000E0H   SFRSYM    DATA     BIT       ACC0
      000000F0H.7 SFRSYM    DATA     BIT       B7
      000000E0H.1 SFRSYM    DATA     BIT       ACC1
      000000E0H.2 SFRSYM    DATA     BIT       ACC2
      000000E0H.3 SFRSYM    DATA     BIT       ACC3
      000000D0H   SFRSYM    DATA     BYTE      PSW
      000000E0H.4 SFRSYM    DATA     BIT       ACC4
      00000090H.5 SFRSYM    DATA     BIT       SPI_SCLK
      000000D8H   SFRSYM    DATA     BIT       CCF0
      000000E0H.5 SFRSYM    DATA     BIT       ACC5
      000000D8H.1 SFRSYM    DATA     BIT       CCF1
      000000E0H.6 SFRSYM    DATA     BIT       ACC6
      000000CFH   SFRSYM    DATA     BYTE      SPDAT
      00000094H   SFRSYM    DATA     BYTE      P0M0
      01002EB2H   SYMBOL    CONST    ---       PWMxCR_ADDR
      01002B01H   SYMBOL    CODE     ---       _PWMx_GPIO_Set
      01002844H   SYMBOL    CODE     ---       _PWMx_Set_Edge
      01002E9AH   SYMBOL    CONST    ---       PWMxT1_ADDR
      01002EA6H   SYMBOL    CONST    ---       PWMxT2_ADDR

      01002844H   BLOCK     CODE     ---       LVL=0
      00000001H   SYMBOL    DATA     BYTE      PWM_id
      00000004H   SYMBOL    DATA     WORD      FirstEdge
      00000002H   SYMBOL    DATA     WORD      SecondEdge
      01002844H   LINE      CODE     ---       #12
      01002846H   LINE      CODE     ---       #13
      01002849H   LINE      CODE     ---       #15
      01002868H   LINE      CODE     ---       #16
      01002885H   LINE      CODE     ---       #18
      01002888H   LINE      CODE     ---       #19
      ---         BLOCKEND  ---      ---       LVL=0

      01002B01H   BLOCK     CODE     ---       LVL=0
      00000007H   SYMBOL    DATA     BYTE      PWM_id
      00000020H.5 SYMBOL    BIT      BIT       gpio_output
      01002B01H   LINE      CODE     ---       #21
      01002B01H   LINE      CODE     ---       #22
      01002B05H   LINE      CODE     ---       #23
      01002B09H   LINE      CODE     ---       #24
      01002B0EH   LINE      CODE     ---       #25
      01002B12H   LINE      CODE     ---       #26
      01002B17H   LINE      CODE     ---       #27
      01002B1BH   LINE      CODE     ---       #28
      01002B1BH   LINE      CODE     ---       #29
LX51 LINKER/LOCATER V4.66.1.0                                                         10/08/2016  19:44:16  PAGE 52


      ---         BLOCKEND  ---      ---       LVL=0

      01002BC9H   BLOCK     CODE     ---       LVL=0
      00000007H   SYMBOL    DATA     BYTE      PWM_SourceClk
      00000004H   SYMBOL    DATA     WORD      PWM_Cycle
      01002BC9H   LINE      CODE     ---       #31
      01002BC9H   LINE      CODE     ---       #32
      01002BCCH   LINE      CODE     ---       #34
      01002BD1H   LINE      CODE     ---       #35
      01002BDBH   LINE      CODE     ---       #37
      01002BDEH   LINE      CODE     ---       #38
      ---         BLOCKEND  ---      ---       LVL=0

      01001B51H   BLOCK     CODE     ---       LVL=0
      02000121H   SYMBOL    XDATA    BYTE      PWM_id
      02000122H   SYMBOL    XDATA    ---       PWMx
      01001B51H   LINE      CODE     ---       #40
      01001B5CH   LINE      CODE     ---       #41
      01001B5FH   LINE      CODE     ---       #43
      01001B81H   LINE      CODE     ---       #45
      01001BE8H   LINE      CODE     ---       #51
      01001BEBH   LINE      CODE     ---       #56
      01001C1DH   LINE      CODE     ---       #57
      ---         BLOCKEND  ---      ---       LVL=0

      01002C86H   BLOCK     CODE     ---       LVL=0
      00000007H   SYMBOL    DATA     BYTE      PWM_id
      00000005H   SYMBOL    DATA     BYTE      duty_cycle
      01002C86H   LINE      CODE     ---       #80
      01002C86H   LINE      CODE     ---       #81
      ---         BLOCKEND  ---      ---       LVL=0

      01002111H   BLOCK     CODE     ---       LVL=0
      0200013BH   SYMBOL    XDATA    BYTE      PWM_id
      00000004H   SYMBOL    DATA     WORD      factor
      00000002H   SYMBOL    DATA     WORD      base
      01002116H   BLOCK     CODE     NEAR LAB  LVL=1
      0200013CH   SYMBOL    XDATA    WORD      pwm_t2
      ---         BLOCKEND  ---      ---       LVL=1
      01002111H   LINE      CODE     ---       #85
      01002116H   LINE      CODE     ---       #86
      0100211CH   LINE      CODE     ---       #88
      01002127H   LINE      CODE     ---       #89
      0100213AH   LINE      CODE     ---       #90
      01002143H   LINE      CODE     ---       #92
      01002143H   LINE      CODE     ---       #93
      0100216EH   LINE      CODE     ---       #94
      01002180H   LINE      CODE     ---       #95
      0100218EH   LINE      CODE     ---       #96
      0100218EH   LINE      CODE     ---       #97
      ---         BLOCKEND  ---      ---       LVL=0

      01002485H   BLOCK     CODE     ---       LVL=0
      01002485H   BLOCK     CODE     NEAR LAB  LVL=1
      02000118H   SYMBOL    XDATA    ---       PWMx_InitStructure
      ---         BLOCKEND  ---      ---       LVL=1
      01002485H   LINE      CODE     ---       #100
      01002485H   LINE      CODE     ---       #101
      01002485H   LINE      CODE     ---       #104
      0100248AH   LINE      CODE     ---       #105
      0100248EH   LINE      CODE     ---       #106
      01002492H   LINE      CODE     ---       #107
      01002499H   LINE      CODE     ---       #108
      0100249EH   LINE      CODE     ---       #109
      010024A2H   LINE      CODE     ---       #110
LX51 LINKER/LOCATER V4.66.1.0                                                         10/08/2016  19:44:16  PAGE 53


      010024A4H   LINE      CODE     ---       #111
      010024ADH   LINE      CODE     ---       #114
      010024B2H   LINE      CODE     ---       #115
      010024BBH   LINE      CODE     ---       #118
      010024C4H   LINE      CODE     ---       #122
      010024CAH   LINE      CODE     ---       #123
      010024D0H   LINE      CODE     ---       #124
      010024D6H   LINE      CODE     ---       #127
      010024D9H   LINE      CODE     ---       #130
      010024DCH   LINE      CODE     ---       #133
      ---         BLOCKEND  ---      ---       LVL=0

      01002C6CH   BLOCK     CODE     ---       LVL=0
      01002C6CH   LINE      CODE     ---       #136
      01002C6CH   LINE      CODE     ---       #138
      01002C73H   LINE      CODE     ---       #139
      ---         BLOCKEND  ---      ---       LVL=0

      ---         MODULE    ---      ---       DISPLAY
      02000071H   PUBLIC    XDATA    BYTE      cnt_for_cycle_hot_wheels
      02000070H   PUBLIC    XDATA    BYTE      cnt_for_cycle_rainbow_chasing
      0200006FH   PUBLIC    XDATA    BYTE      led_mode_set
      0200006EH   PUBLIC    XDATA    BYTE      cnt_for_cycle_music_sensor
      0200006DH   PUBLIC    XDATA    BYTE      cnt_for_cycle_combination
      0200006CH   PUBLIC    XDATA    BYTE      cnt_for_cycle_color_chasing_7
      0200003CH   PUBLIC    XDATA    ---       led_config_set
      0200003AH   PUBLIC    XDATA    WORD      cnt_for_cycle_breathe_7
      02000038H   PUBLIC    XDATA    WORD      cnt_for_cycle_color_breathe_3
      02000037H   PUBLIC    XDATA    BYTE      cnt_for_one_cycle_fire_work
      02000036H   PUBLIC    XDATA    BYTE      led_mode_logic
      02000034H   PUBLIC    XDATA    WORD      cnt_for_cycle_white_breathe
      00000020H.3 PUBLIC    BIT      BIT       led_toggle_status
      02000033H   PUBLIC    XDATA    BYTE      cnt_for_one_cycle_hot_wheels
      02000032H   PUBLIC    XDATA    BYTE      led_logic_speed
      02000031H   PUBLIC    XDATA    BYTE      speed
      02000030H   PUBLIC    XDATA    BYTE      cnt_for_cycle_fire_work
      02000000H   PUBLIC    XDATA    ---       led_config_logic
      01001DA4H   PUBLIC    CODE     ---       _led_syc_color
      01002C5DH   PUBLIC    CODE     ---       init_adc
      01002A7BH   PUBLIC    CODE     ---       led_mode_changed
      01002CB5H   PUBLIC    CODE     ---       led_display_task
      01002C2CH   PUBLIC    CODE     ---       display_startup_init
      01002AC7H   PUBLIC    CODE     ---       _ctrl_mode_changed
      01002B1CH   PUBLIC    CODE     ---       _ctrl_lumins_changed
      01002C1AH   PUBLIC    CODE     ---       _ctrl_speed_level_changed
      000000D8H.2 SFRSYM    DATA     BIT       CCF2
      000000E0H.7 SFRSYM    DATA     BIT       ACC7
      00000093H   SFRSYM    DATA     BYTE      P0M1
      00000092H   SFRSYM    DATA     BYTE      P1M0
      00000096H   SFRSYM    DATA     BYTE      P2M0
      00000091H   SFRSYM    DATA     BYTE      P1M1
      00000080H   SFRSYM    DATA     BYTE      P0
      000000B2H   SFRSYM    DATA     BYTE      P3M0
      00000095H   SFRSYM    DATA     BYTE      P2M1
      00000090H   SFRSYM    DATA     BYTE      P1
      000000B4H   SFRSYM    DATA     BYTE      P4M0
      000000B1H   SFRSYM    DATA     BYTE      P3M1
      000000A0H   SFRSYM    DATA     BYTE      P2
      000000CAH   SFRSYM    DATA     BYTE      P5M0
      000000B3H   SFRSYM    DATA     BYTE      P4M1
      000000B0H   SFRSYM    DATA     BYTE      P3
      000000ABH   SFRSYM    DATA     BYTE      WKTCH
      000000B0H.4 SFRSYM    DATA     BIT       T0
      000000D0H.6 SFRSYM    DATA     BIT       AC
      000000CCH   SFRSYM    DATA     BYTE      P6M0
LX51 LINKER/LOCATER V4.66.1.0                                                         10/08/2016  19:44:16  PAGE 54


      000000C9H   SFRSYM    DATA     BYTE      P5M1
      000000C0H   SFRSYM    DATA     BYTE      P4
      000000B0H.5 SFRSYM    DATA     BIT       CLKOUT0
      000000B0H.5 SFRSYM    DATA     BIT       T1
      000000F6H   SFRSYM    DATA     BYTE      PWMIF
      000000E2H   SFRSYM    DATA     BYTE      P7M0
      000000CBH   SFRSYM    DATA     BYTE      P6M1
      000000C8H   SFRSYM    DATA     BYTE      P5
      000000C6H   SFRSYM    DATA     BYTE      ISP_TRIG
      000000A8H.7 SFRSYM    DATA     BIT       EA
      000000B0H.4 SFRSYM    DATA     BIT       CLKOUT1
      000000A0H.4 SFRSYM    DATA     BIT       SPI_SS_2
      000000E8H   SFRSYM    DATA     BYTE      P6
      000000E1H   SFRSYM    DATA     BYTE      P7M1
      000000C8H.4 SFRSYM    DATA     BIT       SPI_SS_3
      00000090H.4 SFRSYM    DATA     BIT       SPI_MISO
      00000090H.3 SFRSYM    DATA     BIT       SPI_MOSI
      00000090H.1 SFRSYM    DATA     BIT       CCP0
      000000F8H   SFRSYM    DATA     BYTE      P7
      000000AAH   SFRSYM    DATA     BYTE      WKTCL
      00000090H   SFRSYM    DATA     BIT       CCP1
      000000CEH   SFRSYM    DATA     BYTE      SPCTL
      000000D8H.7 SFRSYM    DATA     BIT       CF
      000000B0H.7 SFRSYM    DATA     BIT       CCP2
      000000F9H   SFRSYM    DATA     BYTE      CH
      000000F5H   SFRSYM    DATA     BYTE      PWMCR
      000000A2H   SFRSYM    DATA     BYTE      P_SW1
      000000BAH   SFRSYM    DATA     BYTE      P_SW2
      000000A8H.5 SFRSYM    DATA     BIT       EADC
      000000A0H.1 SFRSYM    DATA     BIT       SPI_SCLK_2
      000000A8H   SFRSYM    DATA     BYTE      IE
      000000C0H.3 SFRSYM    DATA     BIT       SPI_SCLK_3
      000000E9H   SFRSYM    DATA     BYTE      CL
      000000C5H   SFRSYM    DATA     BYTE      IAP_CMD
      000000FAH   SFRSYM    DATA     BYTE      CCAP0H
      000000FBH   SFRSYM    DATA     BYTE      CCAP1H
      000000FCH   SFRSYM    DATA     BYTE      CCAP2H
      000000BDH   SFRSYM    DATA     BYTE      ADC_RES
      000000B6H   SFRSYM    DATA     BYTE      IPH2
      000000D8H.6 SFRSYM    DATA     BIT       CR
      000000EAH   SFRSYM    DATA     BYTE      CCAP0L
      000000B0H.7 SFRSYM    DATA     BIT       RD
      000000F7H   SFRSYM    DATA     BYTE      PWMFDCR
      000000EBH   SFRSYM    DATA     BYTE      CCAP1L
      000000DAH   SFRSYM    DATA     BYTE      CCAPM0
      000000ECH   SFRSYM    DATA     BYTE      CCAP2L
      000000DBH   SFRSYM    DATA     BYTE      CCAPM1
      000000A8H.4 SFRSYM    DATA     BIT       ES
      000000DCH   SFRSYM    DATA     BYTE      CCAPM2
      000000B8H.5 SFRSYM    DATA     BIT       PADC
      000000A0H.2 SFRSYM    DATA     BIT       SPI_MISO_2
      000000A0H.3 SFRSYM    DATA     BIT       SPI_MOSI_2
      000000B8H   SFRSYM    DATA     BYTE      IP
      000000C0H.1 SFRSYM    DATA     BIT       SPI_MISO_3
      000000C0H   SFRSYM    DATA     BIT       SPI_MOSI_3
      00000098H   SFRSYM    DATA     BIT       RI
      000000B0H.2 SFRSYM    DATA     BIT       INT0
      000000D0H.7 SFRSYM    DATA     BIT       CY
      00000098H.1 SFRSYM    DATA     BIT       TI
      000000B0H.3 SFRSYM    DATA     BIT       INT1
      00000097H   SFRSYM    DATA     BYTE      CLK_DIV
      000000C3H   SFRSYM    DATA     BYTE      IAP_ADDRH
      00000090H   SFRSYM    DATA     BIT       RXD2
      000000C5H   SFRSYM    DATA     BYTE      ISP_CMD
      000000B8H.4 SFRSYM    DATA     BIT       PS
LX51 LINKER/LOCATER V4.66.1.0                                                         10/08/2016  19:44:16  PAGE 55


      00000090H.1 SFRSYM    DATA     BIT       TXD2
      00000081H   SFRSYM    DATA     BYTE      SP
      000000D9H   SFRSYM    DATA     BYTE      CMOD
      000000D8H   SFRSYM    DATA     BYTE      CCON
      000000C4H   SFRSYM    DATA     BYTE      IAP_ADDRL
      000000B8H.7 SFRSYM    DATA     BIT       PPCA
      000000D0H.2 SFRSYM    DATA     BIT       OV
      000000B0H.7 SFRSYM    DATA     BIT       PWM2
      000000A0H.1 SFRSYM    DATA     BIT       PWM3
      000000E6H   SFRSYM    DATA     BYTE      CMPCR1
      000000B0H.6 SFRSYM    DATA     BIT       WR
      000000E7H   SFRSYM    DATA     BYTE      CMPCR2
      000000A0H.3 SFRSYM    DATA     BIT       PWM5
      00000090H.7 SFRSYM    DATA     BIT       PWM7
      000000A8H.6 SFRSYM    DATA     BIT       ELVD
      00000080H   SFRSYM    DATA     BIT       P00
      00000090H   SFRSYM    DATA     BIT       P10
      00000080H.1 SFRSYM    DATA     BIT       P01
      000000BCH   SFRSYM    DATA     BYTE      ADC_CONTR
      00000099H   SFRSYM    DATA     BYTE      SBUF
      00000087H   SFRSYM    DATA     BYTE      PCON
      000000A0H   SFRSYM    DATA     BIT       P20
      00000090H.1 SFRSYM    DATA     BIT       P11
      00000080H.2 SFRSYM    DATA     BIT       P02
      000000C3H   SFRSYM    DATA     BYTE      ISP_ADDRH
      000000B0H   SFRSYM    DATA     BIT       P30
      000000A0H.1 SFRSYM    DATA     BIT       P21
      00000090H.2 SFRSYM    DATA     BIT       P12
      00000080H.3 SFRSYM    DATA     BIT       P03
      000000C0H   SFRSYM    DATA     BIT       P40
      000000B0H.1 SFRSYM    DATA     BIT       P31
      000000A0H.2 SFRSYM    DATA     BIT       P22
      00000090H.3 SFRSYM    DATA     BIT       P13
      00000080H.4 SFRSYM    DATA     BIT       P04
      00000098H   SFRSYM    DATA     BYTE      SCON
      0000008FH   SFRSYM    DATA     BYTE      WAKE_CLKO
      000000C8H   SFRSYM    DATA     BIT       P50
      000000C0H.1 SFRSYM    DATA     BIT       P41
      000000B0H.2 SFRSYM    DATA     BIT       P32
      000000A0H.3 SFRSYM    DATA     BIT       P23
      00000090H.4 SFRSYM    DATA     BIT       P14
      00000080H.5 SFRSYM    DATA     BIT       P05
      00000089H   SFRSYM    DATA     BYTE      TMOD
      00000088H   SFRSYM    DATA     BYTE      TCON
      000000E8H   SFRSYM    DATA     BIT       P60
      000000C8H.1 SFRSYM    DATA     BIT       P51
      000000C0H.2 SFRSYM    DATA     BIT       P42
      000000B0H.3 SFRSYM    DATA     BIT       P33
      000000A0H.4 SFRSYM    DATA     BIT       P24
      00000090H.5 SFRSYM    DATA     BIT       P15
      00000080H.6 SFRSYM    DATA     BIT       P06
      000000C4H   SFRSYM    DATA     BYTE      ISP_ADDRL
      000000B8H.6 SFRSYM    DATA     BIT       PLVD
      000000F8H   SFRSYM    DATA     BIT       P70
      000000E8H.1 SFRSYM    DATA     BIT       P61
      000000C8H.2 SFRSYM    DATA     BIT       P52
      000000C0H.3 SFRSYM    DATA     BIT       P43
      000000B0H.4 SFRSYM    DATA     BIT       P34
      000000A0H.5 SFRSYM    DATA     BIT       P25
      00000090H.6 SFRSYM    DATA     BIT       P16
      00000080H.7 SFRSYM    DATA     BIT       P07
      000000F8H.1 SFRSYM    DATA     BIT       P71
      000000E8H.2 SFRSYM    DATA     BIT       P62
      000000C8H.3 SFRSYM    DATA     BIT       P53
      000000C0H.4 SFRSYM    DATA     BIT       P44
LX51 LINKER/LOCATER V4.66.1.0                                                         10/08/2016  19:44:16  PAGE 56


      000000B0H.5 SFRSYM    DATA     BIT       P35
      000000A0H.6 SFRSYM    DATA     BIT       P26
      00000090H.7 SFRSYM    DATA     BIT       P17
      000000F8H.2 SFRSYM    DATA     BIT       P72
      000000E8H.3 SFRSYM    DATA     BIT       P63
      000000C8H.4 SFRSYM    DATA     BIT       P54
      000000C0H.5 SFRSYM    DATA     BIT       P45
      000000B0H.6 SFRSYM    DATA     BIT       P36
      000000A0H.7 SFRSYM    DATA     BIT       P27
      000000F8H.3 SFRSYM    DATA     BIT       P73
      000000E8H.4 SFRSYM    DATA     BIT       P64
      000000C8H.5 SFRSYM    DATA     BIT       P55
      000000C0H.6 SFRSYM    DATA     BIT       P46
      000000B0H.7 SFRSYM    DATA     BIT       P37
      000000F8H.4 SFRSYM    DATA     BIT       P74
      000000E8H.5 SFRSYM    DATA     BIT       P65
      000000C8H.6 SFRSYM    DATA     BIT       P56
      000000C0H.7 SFRSYM    DATA     BIT       P47
      000000F8H.5 SFRSYM    DATA     BIT       P75
      000000E8H.6 SFRSYM    DATA     BIT       P66
      000000C8H.7 SFRSYM    DATA     BIT       P57
      000000F8H.6 SFRSYM    DATA     BIT       P76
      000000E8H.7 SFRSYM    DATA     BIT       P67
      000000F8H.7 SFRSYM    DATA     BIT       P77
      00000088H.1 SFRSYM    DATA     BIT       IE0
      000000A1H   SFRSYM    DATA     BYTE      BUS_SPEED
      00000088H.3 SFRSYM    DATA     BIT       IE1
      000000AFH   SFRSYM    DATA     BYTE      IE2
      000000F0H   SFRSYM    DATA     BYTE      B
      0000008EH   SFRSYM    DATA     BYTE      AUXR
      000000C7H   SFRSYM    DATA     BYTE      IAP_CONTR
      000000F1H   SFRSYM    DATA     BYTE      PWMCFG
      000000E0H   SFRSYM    DATA     BYTE      ACC
      000000A8H.1 SFRSYM    DATA     BIT       ET0
      000000A8H.3 SFRSYM    DATA     BIT       ET1
      00000088H.5 SFRSYM    DATA     BIT       TF0
      00000088H.7 SFRSYM    DATA     BIT       TF1
      000000B5H   SFRSYM    DATA     BYTE      IP2
      0000008CH   SFRSYM    DATA     BYTE      RL_TH0
      00000098H.2 SFRSYM    DATA     BIT       RB8
      0000008DH   SFRSYM    DATA     BYTE      RL_TH1
      0000008CH   SFRSYM    DATA     BYTE      TH0
      000000A8H   SFRSYM    DATA     BIT       EX0
      00000088H   SFRSYM    DATA     BIT       IT0
      000000D6H   SFRSYM    DATA     BYTE      RL_T2H
      0000008DH   SFRSYM    DATA     BYTE      TH1
      000000A8H.2 SFRSYM    DATA     BIT       EX1
      00000098H.3 SFRSYM    DATA     BIT       TB8
      00000088H.2 SFRSYM    DATA     BIT       IT1
      000000D4H   SFRSYM    DATA     BYTE      RL_T3H
      000000D6H   SFRSYM    DATA     BYTE      TH2
      000000D6H   SFRSYM    DATA     BYTE      T2H
      000000D0H   SFRSYM    DATA     BIT       P
      000000D2H   SFRSYM    DATA     BYTE      RL_T4H
      000000D4H   SFRSYM    DATA     BYTE      TH3
      000000D4H   SFRSYM    DATA     BYTE      T3H
      0000008AH   SFRSYM    DATA     BYTE      RL_TL0
      00000098H.7 SFRSYM    DATA     BIT       SM0
      000000D2H   SFRSYM    DATA     BYTE      TH4
      000000D2H   SFRSYM    DATA     BYTE      T4H
      0000008BH   SFRSYM    DATA     BYTE      RL_TL1
      0000008AH   SFRSYM    DATA     BYTE      TL0
      00000098H.6 SFRSYM    DATA     BIT       SM1
      000000D7H   SFRSYM    DATA     BYTE      RL_T2L
      0000008BH   SFRSYM    DATA     BYTE      TL1
LX51 LINKER/LOCATER V4.66.1.0                                                         10/08/2016  19:44:16  PAGE 57


      00000098H.5 SFRSYM    DATA     BIT       SM2
      000000D5H   SFRSYM    DATA     BYTE      RL_T3L
      000000D7H   SFRSYM    DATA     BYTE      TL2
      000000D7H   SFRSYM    DATA     BYTE      T2L
      000000D3H   SFRSYM    DATA     BYTE      RL_T4L
      000000D5H   SFRSYM    DATA     BYTE      TL3
      000000D5H   SFRSYM    DATA     BYTE      T3L
      000000B8H.1 SFRSYM    DATA     BIT       PT0
      000000D3H   SFRSYM    DATA     BYTE      TL4
      000000D3H   SFRSYM    DATA     BYTE      T4L
      000000B8H.3 SFRSYM    DATA     BIT       PT1
      000000D0H.3 SFRSYM    DATA     BIT       RS0
      000000C7H   SFRSYM    DATA     BYTE      ISP_CONTR
      00000088H.4 SFRSYM    DATA     BIT       TR0
      000000D0H.4 SFRSYM    DATA     BIT       RS1
      000000C2H   SFRSYM    DATA     BYTE      IAP_DATA
      00000088H.6 SFRSYM    DATA     BIT       TR1
      000000B8H   SFRSYM    DATA     BIT       PX0
      000000C1H   SFRSYM    DATA     BYTE      WDT_CONTR
      000000B8H.2 SFRSYM    DATA     BIT       PX1
      000000F2H   SFRSYM    DATA     BYTE      PCA_PWM0
      000000F3H   SFRSYM    DATA     BYTE      PCA_PWM1
      000000F4H   SFRSYM    DATA     BYTE      PCA_PWM2
      0000009DH   SFRSYM    DATA     BYTE      P1ASF
      00000083H   SFRSYM    DATA     BYTE      DPH
      000000D1H   SFRSYM    DATA     BYTE      T4T3M
      000000BEH   SFRSYM    DATA     BYTE      ADC_RESL
      00000082H   SFRSYM    DATA     BYTE      DPL
      000000CDH   SFRSYM    DATA     BYTE      SPSTAT
      000000B7H   SFRSYM    DATA     BYTE      IPH
      0000009BH   SFRSYM    DATA     BYTE      S2BUF
      00000097H   SFRSYM    DATA     BYTE      PCON2
      000000ADH   SFRSYM    DATA     BYTE      S3BUF
      00000098H.4 SFRSYM    DATA     BIT       REN
      00000085H   SFRSYM    DATA     BYTE      S4BUF
      0000009AH   SFRSYM    DATA     BYTE      S2CON
      000000ACH   SFRSYM    DATA     BYTE      S3CON
      000000C2H   SFRSYM    DATA     BYTE      ISP_DATA
      00000084H   SFRSYM    DATA     BYTE      S4CON
      000000B9H   SFRSYM    DATA     BYTE      SADEN
      000000B0H   SFRSYM    DATA     BIT       RXD
      000000A9H   SFRSYM    DATA     BYTE      SADDR
      000000B0H.1 SFRSYM    DATA     BIT       TXD
      000000F0H   SFRSYM    DATA     BIT       B0
      000000F0H.1 SFRSYM    DATA     BIT       B1
      000000C6H   SFRSYM    DATA     BYTE      IAP_TRIG
      000000A2H   SFRSYM    DATA     BYTE      AUXR1
      000000F0H.2 SFRSYM    DATA     BIT       B2
      00000090H.2 SFRSYM    DATA     BIT       SPI_SS
      0000008FH   SFRSYM    DATA     BYTE      AUXR2
      000000F0H.3 SFRSYM    DATA     BIT       B3
      000000F0H.4 SFRSYM    DATA     BIT       B4
      000000D0H.5 SFRSYM    DATA     BIT       F0
      000000F0H.5 SFRSYM    DATA     BIT       B5
      000000D0H.1 SFRSYM    DATA     BIT       F1
      0000008FH   SFRSYM    DATA     BYTE      INT_CLKO
      000000F0H.6 SFRSYM    DATA     BIT       B6
      000000E0H   SFRSYM    DATA     BIT       ACC0
      000000F0H.7 SFRSYM    DATA     BIT       B7
      000000E0H.1 SFRSYM    DATA     BIT       ACC1
      000000E0H.2 SFRSYM    DATA     BIT       ACC2
      000000E0H.3 SFRSYM    DATA     BIT       ACC3
      000000D0H   SFRSYM    DATA     BYTE      PSW
      000000E0H.4 SFRSYM    DATA     BIT       ACC4
      00000090H.5 SFRSYM    DATA     BIT       SPI_SCLK
LX51 LINKER/LOCATER V4.66.1.0                                                         10/08/2016  19:44:16  PAGE 58


      000000D8H   SFRSYM    DATA     BIT       CCF0
      000000E0H.5 SFRSYM    DATA     BIT       ACC5
      000000D8H.1 SFRSYM    DATA     BIT       CCF1
      000000E0H.6 SFRSYM    DATA     BIT       ACC6
      000000CFH   SFRSYM    DATA     BYTE      SPDAT
      00000094H   SFRSYM    DATA     BYTE      P0M0
      010025DEH   SYMBOL    CODE     ---       color_breathe_7_driver_init
      01002D97H   SYMBOL    CONST    ---       cycle_for_white_breathe
      01001C1EH   SYMBOL    CODE     ---       color_chasing_7_driver_init
      01001CE5H   SYMBOL    CODE     ---       white_breathe_half_cycle_reached
      01002CD0H   SYMBOL    CODE     ---       combination_driver
      01002D57H   SYMBOL    CONST    ---       cycle_for_color_breathe_3
      01002CD3H   SYMBOL    CODE     ---       music_sensor_driver
      01002D77H   SYMBOL    CONST    ---       cycle_for_color_breathe_7
      01002D37H   SYMBOL    CONST    ---       cycle_for_color_chasing_7
      01001352H   SYMBOL    CODE     ---       color_breathe_3_cycle_reached
      01000026H   SYMBOL    CODE     ---       color_breathe_7_half_cycle_reached
      0100050BH   SYMBOL    CODE     ---       color_chasing_7_half_cycle_reached
      01000009H   SYMBOL    CODE     ---       led_display_off_driver
      01002719H   SYMBOL    CODE     ---       combination_driver_init
      01002E44H   SYMBOL    CONST    ---       half_cycle_callback
      01002E18H   SYMBOL    CONST    ---       driver_init
      01002CB8H   SYMBOL    CODE     ---       moon_light_driver
      01002CC1H   SYMBOL    CODE     ---       rainbow_chasing_driver
      01002CBEH   SYMBOL    CODE     ---       hot_wheels_driver
      01002767H   SYMBOL    CODE     ---       music_sensor_driver_init
      010028CDH   SYMBOL    CODE     ---       led_display_off_driver_init
      01002DB7H   SYMBOL    CONST    ---       cycle_for_combination
      01001722H   SYMBOL    CODE     ---       combination_half_cycle_reached
      01002CBBH   SYMBOL    CODE     ---       fire_work_driver
      010027B5H   SYMBOL    CODE     ---       moon_light_driver_init
      01002DD7H   SYMBOL    CONST    ---       cycle_for_music_sensor
      01002009H   SYMBOL    CODE     ---       rainbow_chasing_driver_init
      01002360H   SYMBOL    CODE     ---       hot_wheels_driver_init
      0100294FH   SYMBOL    CODE     ---       half_cycle_reached
      01001555H   SYMBOL    CODE     ---       music_sensor_half_cycle_reached
      01002E5AH   SYMBOL    CONST    ---       cycle_for_led_display_off
      0100000AH   SYMBOL    CODE     ---       led_display_off_half_cycle_reached
      01002CCDH   SYMBOL    CODE     ---       white_breathe_driver
      010024DDH   SYMBOL    CODE     ---       fire_work_driver_init
      01002D17H   SYMBOL    CONST    ---       cycle_for_rainbow_chasing
      01002CF7H   SYMBOL    CONST    ---       cycle_for_hot_wheels
      01002CD6H   SYMBOL    CODE     ---       moon_light_half_cycle_reached
      01001125H   SYMBOL    CODE     ---       rainbow_chasing_half_cycle_reached
      01000EB1H   SYMBOL    CODE     ---       hot_wheels_half_cycle_reached
      01002CC7H   SYMBOL    CODE     ---       color_breathe_3_driver
      01002CCAH   SYMBOL    CODE     ---       color_breathe_7_driver
      01002E2EH   SYMBOL    CONST    ---       display_driver
      01002CD7H   SYMBOL    CONST    ---       cycle_for_fire_work
      01002CC4H   SYMBOL    CODE     ---       color_chasing_7_driver
      010026CBH   SYMBOL    CODE     ---       white_breathe_driver_init
      01002B6CH   SYMBOL    CODE     ---       GetADCResult
      01000902H   SYMBOL    CODE     ---       fire_work_half_cycle_reached
      01002E7AH   SYMBOL    CONST    ---       cycle_for_moonlight
      01002DF7H   SYMBOL    CONST    ---       cycle_params
      0100258BH   SYMBOL    CODE     ---       led_cycle_based_adjust
      0100267DH   SYMBOL    CODE     ---       color_breathe_3_driver_init

      01002C1AH   BLOCK     CODE     ---       LVL=0
      00000007H   SYMBOL    DATA     BYTE      speed
      01002C1AH   LINE      CODE     ---       #165
      01002C1AH   LINE      CODE     ---       #166
      01002C26H   LINE      CODE     ---       #167
      01002C2BH   LINE      CODE     ---       #168
      ---         BLOCKEND  ---      ---       LVL=0
LX51 LINKER/LOCATER V4.66.1.0                                                         10/08/2016  19:44:16  PAGE 59



      01002B1CH   BLOCK     CODE     ---       LVL=0
      00000007H   SYMBOL    DATA     BYTE      lumins
      01002B1CH   BLOCK     CODE     NEAR LAB  LVL=1
      00000006H   SYMBOL    DATA     BYTE      i
      ---         BLOCKEND  ---      ---       LVL=1
      01002B1CH   LINE      CODE     ---       #170
      01002B1CH   LINE      CODE     ---       #172
      01002B2AH   LINE      CODE     ---       #173
      01002B2AH   LINE      CODE     ---       #174
      01002B2CH   LINE      CODE     ---       #175
      01002B2CH   LINE      CODE     ---       #176
      01002B31H   LINE      CODE     ---       #177
      01002B36H   LINE      CODE     ---       #179
      01002B36H   LINE      CODE     ---       #180
      ---         BLOCKEND  ---      ---       LVL=0

      01002AC7H   BLOCK     CODE     ---       LVL=0
      00000007H   SYMBOL    DATA     BYTE      mode_code
      01002AC7H   LINE      CODE     ---       #183
      01002AC7H   LINE      CODE     ---       #184
      01002ADAH   LINE      CODE     ---       #185
      01002ADCH   LINE      CODE     ---       #186
      01002AE1H   LINE      CODE     ---       #187
      01002AE4H   LINE      CODE     ---       #188
      01002AE4H   LINE      CODE     ---       #190
      ---         BLOCKEND  ---      ---       LVL=0

      01002C2CH   BLOCK     CODE     ---       LVL=0
      01002C2CH   LINE      CODE     ---       #192
      01002C2CH   LINE      CODE     ---       #193
      01002C31H   LINE      CODE     ---       #194
      01002C33H   LINE      CODE     ---       #195
      01002C37H   LINE      CODE     ---       #196
      01002C3AH   LINE      CODE     ---       #197
      ---         BLOCKEND  ---      ---       LVL=0

      01002CB5H   BLOCK     CODE     ---       LVL=0
      01002CB5H   LINE      CODE     ---       #201
      01002CB5H   LINE      CODE     ---       #202
      ---         BLOCKEND  ---      ---       LVL=0

      01002A7BH   BLOCK     CODE     ---       LVL=0
      01002A7BH   BLOCK     CODE     NEAR LAB  LVL=1
      00000006H   SYMBOL    DATA     ---       led_mode_driver_init
      ---         BLOCKEND  ---      ---       LVL=1
      01002A7BH   LINE      CODE     ---       #206
      01002A7BH   LINE      CODE     ---       #207
      01002A91H   LINE      CODE     ---       #209
      01002A94H   LINE      CODE     ---       #210
      01002A9BH   LINE      CODE     ---       #211
      01002AA2H   LINE      CODE     ---       #212
      ---         BLOCKEND  ---      ---       LVL=0

      0100258BH   BLOCK     CODE     ---       LVL=0
      0100258BH   LINE      CODE     ---       #217
      0100258BH   LINE      CODE     ---       #218
      01002591H   LINE      CODE     ---       #219
      010025D3H   LINE      CODE     ---       #220
      010025D6H   LINE      CODE     ---       #222
      010025D6H   LINE      CODE     ---       #223
      010025DDH   LINE      CODE     ---       #224
      010025DDH   LINE      CODE     ---       #225
      ---         BLOCKEND  ---      ---       LVL=0

LX51 LINKER/LOCATER V4.66.1.0                                                         10/08/2016  19:44:16  PAGE 60


      0100294FH   BLOCK     CODE     ---       LVL=0
      0100294FH   LINE      CODE     ---       #228
      0100294FH   LINE      CODE     ---       #230
      01002967H   LINE      CODE     ---       #231
      01002982H   LINE      CODE     ---       #232
      01002985H   LINE      CODE     ---       #233
      0100298CH   LINE      CODE     ---       #234
      ---         BLOCKEND  ---      ---       LVL=0

      01000009H   BLOCK     CODE     ---       LVL=0
      01000009H   LINE      CODE     ---       #238
      01000009H   LINE      CODE     ---       #240
      ---         BLOCKEND  ---      ---       LVL=0

      010028CDH   BLOCK     CODE     ---       LVL=0
      010028CDH   BLOCK     CODE     NEAR LAB  LVL=1
      00000007H   SYMBOL    DATA     BYTE      i
      ---         BLOCKEND  ---      ---       LVL=1
      010028CDH   LINE      CODE     ---       #242
      010028CDH   LINE      CODE     ---       #244
      010028D2H   LINE      CODE     ---       #245
      010028D4H   LINE      CODE     ---       #246
      010028D8H   LINE      CODE     ---       #247
      010028D9H   LINE      CODE     ---       #248
      010028D9H   LINE      CODE     ---       #249
      010028E9H   LINE      CODE     ---       #250
      010028F9H   LINE      CODE     ---       #251
      01002909H   LINE      CODE     ---       #252
      0100290EH   LINE      CODE     ---       #253
      ---         BLOCKEND  ---      ---       LVL=0

      0100000AH   BLOCK     CODE     ---       LVL=0
      0100000AH   LINE      CODE     ---       #255
      0100000AH   LINE      CODE     ---       #256
      0100000AH   LINE      CODE     ---       #258
      ---         BLOCKEND  ---      ---       LVL=0

      01002CB8H   BLOCK     CODE     ---       LVL=0
      01002CB8H   LINE      CODE     ---       #263
      01002CB8H   LINE      CODE     ---       #265
      ---         BLOCKEND  ---      ---       LVL=0

      010027B5H   BLOCK     CODE     ---       LVL=0
      010027B5H   BLOCK     CODE     NEAR LAB  LVL=1
      00000007H   SYMBOL    DATA     BYTE      i
      ---         BLOCKEND  ---      ---       LVL=1
      010027B5H   LINE      CODE     ---       #268
      010027B5H   LINE      CODE     ---       #270
      010027BBH   LINE      CODE     ---       #271
      010027BEH   LINE      CODE     ---       #274
      010027C3H   LINE      CODE     ---       #276
      010027C5H   LINE      CODE     ---       #277
      010027C5H   LINE      CODE     ---       #278
      010027D6H   LINE      CODE     ---       #279
      010027E7H   LINE      CODE     ---       #280
      010027F8H   LINE      CODE     ---       #281
      010027FDH   LINE      CODE     ---       #282
      ---         BLOCKEND  ---      ---       LVL=0

      01002CD6H   BLOCK     CODE     ---       LVL=0
      01002CD6H   LINE      CODE     ---       #284
      01002CD6H   LINE      CODE     ---       #285
      01002CD6H   LINE      CODE     ---       #287
      ---         BLOCKEND  ---      ---       LVL=0

LX51 LINKER/LOCATER V4.66.1.0                                                         10/08/2016  19:44:16  PAGE 61


      01002CBBH   BLOCK     CODE     ---       LVL=0
      01002CBBH   LINE      CODE     ---       #294
      01002CBBH   LINE      CODE     ---       #296
      ---         BLOCKEND  ---      ---       LVL=0

      010024DDH   BLOCK     CODE     ---       LVL=0
      010024DDH   BLOCK     CODE     NEAR LAB  LVL=1
      00000007H   SYMBOL    DATA     BYTE      i
      ---         BLOCKEND  ---      ---       LVL=1
      010024DDH   LINE      CODE     ---       #299
      010024DDH   LINE      CODE     ---       #301
      010024E3H   LINE      CODE     ---       #302
      010024E5H   LINE      CODE     ---       #305
      010024EAH   LINE      CODE     ---       #306
      010024EFH   LINE      CODE     ---       #307
      010024F3H   LINE      CODE     ---       #308
      010024F4H   LINE      CODE     ---       #309
      010024F4H   LINE      CODE     ---       #310
      01002504H   LINE      CODE     ---       #311
      01002514H   LINE      CODE     ---       #312
      01002524H   LINE      CODE     ---       #313
      01002529H   LINE      CODE     ---       #315
      0100252FH   LINE      CODE     ---       #316
      01002533H   LINE      CODE     ---       #317
      ---         BLOCKEND  ---      ---       LVL=0

      01000902H   BLOCK     CODE     ---       LVL=0
      01000902H   BLOCK     CODE     NEAR LAB  LVL=1
      00000007H   SYMBOL    DATA     BYTE      i
      ---         BLOCKEND  ---      ---       LVL=1
      01000902H   LINE      CODE     ---       #319
      01000902H   LINE      CODE     ---       #321
      01000908H   LINE      CODE     ---       #322
      0100090CH   LINE      CODE     ---       #323
      0100090CH   LINE      CODE     ---       #324
      0100090EH   LINE      CODE     ---       #325
      01000914H   LINE      CODE     ---       #326
      01000918H   LINE      CODE     ---       #327
      0100091AH   LINE      CODE     ---       #328
      0100091AH   LINE      CODE     ---       #329
      01000921H   LINE      CODE     ---       #330
      01000921H   LINE      CODE     ---       #331
      01000922H   LINE      CODE     ---       #332
      01000922H   LINE      CODE     ---       #333
      01000931H   LINE      CODE     ---       #334
      01000944H   LINE      CODE     ---       #336
      01000954H   LINE      CODE     ---       #337
      01000964H   LINE      CODE     ---       #338
      01000974H   LINE      CODE     ---       #339
      0100097AH   LINE      CODE     ---       #340
      0100097FH   LINE      CODE     ---       #341
      01000980H   LINE      CODE     ---       #342
      01000980H   LINE      CODE     ---       #343
      0100098FH   LINE      CODE     ---       #344
      010009A2H   LINE      CODE     ---       #346
      010009B2H   LINE      CODE     ---       #347
      010009C2H   LINE      CODE     ---       #348
      010009D2H   LINE      CODE     ---       #349
      010009D8H   LINE      CODE     ---       #350
      010009E1H   LINE      CODE     ---       #351
      010009E2H   LINE      CODE     ---       #352
      010009E2H   LINE      CODE     ---       #353
      010009F1H   LINE      CODE     ---       #354
      010009F1H   LINE      CODE     ---       #355
      01000A02H   LINE      CODE     ---       #356
LX51 LINKER/LOCATER V4.66.1.0                                                         10/08/2016  19:44:16  PAGE 62


      01000A13H   LINE      CODE     ---       #357
      01000A1FH   LINE      CODE     ---       #358
      01000A21H   LINE      CODE     ---       #359
      01000A21H   LINE      CODE     ---       #360
      01000A31H   LINE      CODE     ---       #361
      01000A41H   LINE      CODE     ---       #362
      01000A51H   LINE      CODE     ---       #363
      01000A51H   LINE      CODE     ---       #364
      01000A58H   LINE      CODE     ---       #365
      01000A5DH   LINE      CODE     ---       #366
      01000A5EH   LINE      CODE     ---       #367
      01000A5EH   LINE      CODE     ---       #368
      01000A6DH   LINE      CODE     ---       #369
      01000A6DH   LINE      CODE     ---       #370
      01000A7EH   LINE      CODE     ---       #371
      01000A8FH   LINE      CODE     ---       #372
      01000AA0H   LINE      CODE     ---       #373
      01000AA2H   LINE      CODE     ---       #374
      01000AA2H   LINE      CODE     ---       #375
      01000AB2H   LINE      CODE     ---       #376
      01000AC2H   LINE      CODE     ---       #377
      01000AD2H   LINE      CODE     ---       #378
      01000AD2H   LINE      CODE     ---       #379
      01000AD9H   LINE      CODE     ---       #380
      01000AE2H   LINE      CODE     ---       #381
      01000AE3H   LINE      CODE     ---       #382
      01000AE3H   LINE      CODE     ---       #383
      01000AF2H   LINE      CODE     ---       #384
      01000AF2H   LINE      CODE     ---       #385
      01000B02H   LINE      CODE     ---       #386
      01000B12H   LINE      CODE     ---       #387
      01000B23H   LINE      CODE     ---       #388
      01000B25H   LINE      CODE     ---       #389
      01000B25H   LINE      CODE     ---       #390
      01000B35H   LINE      CODE     ---       #391
      01000B45H   LINE      CODE     ---       #392
      01000B55H   LINE      CODE     ---       #393
      01000B55H   LINE      CODE     ---       #394
      01000B5CH   LINE      CODE     ---       #395
      01000B5CH   LINE      CODE     ---       #396
      01000B61H   LINE      CODE     ---       #397
      01000B62H   LINE      CODE     ---       #398
      01000B62H   LINE      CODE     ---       #399
      01000B71H   LINE      CODE     ---       #400
      01000B71H   LINE      CODE     ---       #401
      01000B82H   LINE      CODE     ---       #402
      01000B93H   LINE      CODE     ---       #403
      01000BA4H   LINE      CODE     ---       #404
      01000BA6H   LINE      CODE     ---       #405
      01000BA6H   LINE      CODE     ---       #406
      01000BB6H   LINE      CODE     ---       #407
      01000BC6H   LINE      CODE     ---       #408
      01000BD6H   LINE      CODE     ---       #409
      01000BD6H   LINE      CODE     ---       #410
      01000BDCH   LINE      CODE     ---       #411
      01000BDCH   LINE      CODE     ---       #412
      ---         BLOCKEND  ---      ---       LVL=0

      01002CBEH   BLOCK     CODE     ---       LVL=0
      01002CBEH   LINE      CODE     ---       #420
      01002CBEH   LINE      CODE     ---       #421
      ---         BLOCKEND  ---      ---       LVL=0

      01002360H   BLOCK     CODE     ---       LVL=0
      01002360H   BLOCK     CODE     NEAR LAB  LVL=1
LX51 LINKER/LOCATER V4.66.1.0                                                         10/08/2016  19:44:16  PAGE 63


      00000007H   SYMBOL    DATA     BYTE      i
      ---         BLOCKEND  ---      ---       LVL=1
      01002360H   LINE      CODE     ---       #424
      01002360H   LINE      CODE     ---       #426
      01002366H   LINE      CODE     ---       #427
      01002368H   LINE      CODE     ---       #428
      0100236EH   LINE      CODE     ---       #429
      01002373H   LINE      CODE     ---       #430
      01002377H   LINE      CODE     ---       #431
      01002378H   LINE      CODE     ---       #432
      01002378H   LINE      CODE     ---       #433
      0100237FH   LINE      CODE     ---       #434
      01002391H   LINE      CODE     ---       #436
      010023A1H   LINE      CODE     ---       #437
      010023B1H   LINE      CODE     ---       #438
      010023C1H   LINE      CODE     ---       #439
      010023C6H   LINE      CODE     ---       #440
      ---         BLOCKEND  ---      ---       LVL=0

      01000EB1H   BLOCK     CODE     ---       LVL=0
      01000EB1H   BLOCK     CODE     NEAR LAB  LVL=1
      00000007H   SYMBOL    DATA     BYTE      i
      ---         BLOCKEND  ---      ---       LVL=1
      01000EB1H   LINE      CODE     ---       #442
      01000EB1H   LINE      CODE     ---       #444
      01000EB7H   LINE      CODE     ---       #445
      01000EBBH   LINE      CODE     ---       #446
      01000EBBH   LINE      CODE     ---       #447
      01000EBDH   LINE      CODE     ---       #448
      01000EC3H   LINE      CODE     ---       #449
      01000EC7H   LINE      CODE     ---       #450
      01000EC9H   LINE      CODE     ---       #451
      01000EC9H   LINE      CODE     ---       #453
      01000ED0H   LINE      CODE     ---       #454
      01000ED0H   LINE      CODE     ---       #455
      01000ED1H   LINE      CODE     ---       #456
      01000ED1H   LINE      CODE     ---       #457
      01000ED8H   LINE      CODE     ---       #458
      01000EEAH   LINE      CODE     ---       #460
      01000EFAH   LINE      CODE     ---       #461
      01000F0AH   LINE      CODE     ---       #462
      01000F1AH   LINE      CODE     ---       #463
      01000F20H   LINE      CODE     ---       #465
      01000F25H   LINE      CODE     ---       #466
      01000F26H   LINE      CODE     ---       #467
      01000F26H   LINE      CODE     ---       #468
      01000F2DH   LINE      CODE     ---       #469
      01000F3FH   LINE      CODE     ---       #471
      01000F4FH   LINE      CODE     ---       #472
      01000F5FH   LINE      CODE     ---       #473
      01000F6FH   LINE      CODE     ---       #474
      01000F75H   LINE      CODE     ---       #476
      01000F7EH   LINE      CODE     ---       #477
      01000F7FH   LINE      CODE     ---       #478
      01000F7FH   LINE      CODE     ---       #479
      01000F86H   LINE      CODE     ---       #480
      01000F86H   LINE      CODE     ---       #481
      01000F96H   LINE      CODE     ---       #482
      01000FA6H   LINE      CODE     ---       #483
      01000FA6H   LINE      CODE     ---       #484
      01000FA8H   LINE      CODE     ---       #486
      01000FA8H   LINE      CODE     ---       #487
      01000FB8H   LINE      CODE     ---       #488
      01000FC8H   LINE      CODE     ---       #489
      01000FD8H   LINE      CODE     ---       #490
LX51 LINKER/LOCATER V4.66.1.0                                                         10/08/2016  19:44:16  PAGE 64


      01000FD8H   LINE      CODE     ---       #491
      01000FDEH   LINE      CODE     ---       #493
      01000FE3H   LINE      CODE     ---       #494
      01000FE4H   LINE      CODE     ---       #495
      01000FE4H   LINE      CODE     ---       #496
      01000FEBH   LINE      CODE     ---       #497
      01000FEBH   LINE      CODE     ---       #498
      01000FFBH   LINE      CODE     ---       #499
      0100100CH   LINE      CODE     ---       #500
      0100101DH   LINE      CODE     ---       #501
      0100101FH   LINE      CODE     ---       #503
      0100101FH   LINE      CODE     ---       #504
      0100102FH   LINE      CODE     ---       #505
      0100103FH   LINE      CODE     ---       #506
      0100104FH   LINE      CODE     ---       #507
      0100104FH   LINE      CODE     ---       #510
      01001055H   LINE      CODE     ---       #511
      01001055H   LINE      CODE     ---       #513
      0100105EH   LINE      CODE     ---       #514
      0100105FH   LINE      CODE     ---       #515
      0100105FH   LINE      CODE     ---       #516
      01001066H   LINE      CODE     ---       #517
      01001078H   LINE      CODE     ---       #519
      01001088H   LINE      CODE     ---       #520
      01001098H   LINE      CODE     ---       #521
      010010A8H   LINE      CODE     ---       #522
      010010AEH   LINE      CODE     ---       #523
      010010AEH   LINE      CODE     ---       #525
      010010B3H   LINE      CODE     ---       #526
      010010B4H   LINE      CODE     ---       #527
      010010B4H   LINE      CODE     ---       #528
      010010BBH   LINE      CODE     ---       #529
      010010BBH   LINE      CODE     ---       #530
      010010CBH   LINE      CODE     ---       #531
      010010DCH   LINE      CODE     ---       #532
      010010EDH   LINE      CODE     ---       #533
      010010EFH   LINE      CODE     ---       #535
      010010EFH   LINE      CODE     ---       #536
      010010FFH   LINE      CODE     ---       #537
      0100110FH   LINE      CODE     ---       #538
      0100111FH   LINE      CODE     ---       #539
      0100111FH   LINE      CODE     ---       #541
      01001124H   LINE      CODE     ---       #542
      01001124H   LINE      CODE     ---       #543
      ---         BLOCKEND  ---      ---       LVL=0

      01002CC1H   BLOCK     CODE     ---       LVL=0
      01002CC1H   LINE      CODE     ---       #551
      01002CC1H   LINE      CODE     ---       #552
      ---         BLOCKEND  ---      ---       LVL=0

      01002009H   BLOCK     CODE     ---       LVL=0
      01002009H   BLOCK     CODE     NEAR LAB  LVL=1
      00000007H   SYMBOL    DATA     BYTE      i
      ---         BLOCKEND  ---      ---       LVL=1
      01002009H   LINE      CODE     ---       #555
      01002009H   LINE      CODE     ---       #557
      0100200FH   LINE      CODE     ---       #558
      01002011H   LINE      CODE     ---       #559
      01002017H   LINE      CODE     ---       #560
      0100201CH   LINE      CODE     ---       #561
      0100201DH   LINE      CODE     ---       #562
      0100201DH   LINE      CODE     ---       #563
      0100202DH   LINE      CODE     ---       #564
      0100203DH   LINE      CODE     ---       #565
LX51 LINKER/LOCATER V4.66.1.0                                                         10/08/2016  19:44:16  PAGE 65


      0100204DH   LINE      CODE     ---       #566
      01002052H   LINE      CODE     ---       #568
      01002058H   LINE      CODE     ---       #570
      0100205CH   LINE      CODE     ---       #572
      01002062H   LINE      CODE     ---       #573
      01002066H   LINE      CODE     ---       #575
      0100206CH   LINE      CODE     ---       #576
      01002072H   LINE      CODE     ---       #577
      01002078H   LINE      CODE     ---       #579
      0100207EH   LINE      CODE     ---       #581
      01002084H   LINE      CODE     ---       #582
      0100208AH   LINE      CODE     ---       #583
      01002090H   LINE      CODE     ---       #584
      ---         BLOCKEND  ---      ---       LVL=0

      01001125H   BLOCK     CODE     ---       LVL=0
      01001125H   BLOCK     CODE     NEAR LAB  LVL=1
      00000007H   SYMBOL    DATA     BYTE      i
      ---         BLOCKEND  ---      ---       LVL=1
      01001125H   LINE      CODE     ---       #586
      01001125H   LINE      CODE     ---       #588
      01001127H   LINE      CODE     ---       #589
      01001127H   LINE      CODE     ---       #590
      01001137H   LINE      CODE     ---       #591
      01001147H   LINE      CODE     ---       #592
      01001157H   LINE      CODE     ---       #593
      0100115CH   LINE      CODE     ---       #594
      01001162H   LINE      CODE     ---       #595
      01001166H   LINE      CODE     ---       #596
      01001168H   LINE      CODE     ---       #597
      0100116FH   LINE      CODE     ---       #598
      0100116FH   LINE      CODE     ---       #600
      01001175H   LINE      CODE     ---       #602
      01001179H   LINE      CODE     ---       #604
      0100117FH   LINE      CODE     ---       #605
      01001183H   LINE      CODE     ---       #607
      01001189H   LINE      CODE     ---       #608
      0100118FH   LINE      CODE     ---       #609
      01001195H   LINE      CODE     ---       #611
      0100119BH   LINE      CODE     ---       #613
      010011A1H   LINE      CODE     ---       #614
      010011A7H   LINE      CODE     ---       #615
      010011AAH   LINE      CODE     ---       #616
      010011B6H   LINE      CODE     ---       #618
      010011BCH   LINE      CODE     ---       #620
      010011C0H   LINE      CODE     ---       #622
      010011C6H   LINE      CODE     ---       #623
      010011CAH   LINE      CODE     ---       #625
      010011D0H   LINE      CODE     ---       #626
      010011D6H   LINE      CODE     ---       #627
      010011DCH   LINE      CODE     ---       #629
      010011E2H   LINE      CODE     ---       #631
      010011E8H   LINE      CODE     ---       #632
      010011EEH   LINE      CODE     ---       #633
      010011F1H   LINE      CODE     ---       #634
      010011FDH   LINE      CODE     ---       #636
      01001203H   LINE      CODE     ---       #638
      01001207H   LINE      CODE     ---       #640
      0100120DH   LINE      CODE     ---       #641
      01001211H   LINE      CODE     ---       #643
      01001217H   LINE      CODE     ---       #644
      0100121DH   LINE      CODE     ---       #645
      01001223H   LINE      CODE     ---       #647
      01001229H   LINE      CODE     ---       #649
      0100122FH   LINE      CODE     ---       #650
LX51 LINKER/LOCATER V4.66.1.0                                                         10/08/2016  19:44:16  PAGE 66


      01001235H   LINE      CODE     ---       #651
      01001238H   LINE      CODE     ---       #652
      01001244H   LINE      CODE     ---       #654
      0100124AH   LINE      CODE     ---       #656
      0100124EH   LINE      CODE     ---       #658
      01001254H   LINE      CODE     ---       #659
      01001258H   LINE      CODE     ---       #661
      0100125EH   LINE      CODE     ---       #662
      01001264H   LINE      CODE     ---       #663
      0100126AH   LINE      CODE     ---       #665
      01001270H   LINE      CODE     ---       #667
      01001276H   LINE      CODE     ---       #668
      0100127CH   LINE      CODE     ---       #669
      0100127FH   LINE      CODE     ---       #670
      0100128BH   LINE      CODE     ---       #672
      01001291H   LINE      CODE     ---       #674
      01001295H   LINE      CODE     ---       #676
      0100129BH   LINE      CODE     ---       #677
      0100129FH   LINE      CODE     ---       #679
      010012A5H   LINE      CODE     ---       #680
      010012ABH   LINE      CODE     ---       #681
      010012B1H   LINE      CODE     ---       #683
      010012B7H   LINE      CODE     ---       #685
      010012BDH   LINE      CODE     ---       #686
      010012C3H   LINE      CODE     ---       #687
      010012C6H   LINE      CODE     ---       #688
      010012D2H   LINE      CODE     ---       #690
      010012D8H   LINE      CODE     ---       #692
      010012DCH   LINE      CODE     ---       #694
      010012E2H   LINE      CODE     ---       #695
      010012E6H   LINE      CODE     ---       #697
      010012ECH   LINE      CODE     ---       #698
      010012F2H   LINE      CODE     ---       #699
      010012F8H   LINE      CODE     ---       #701
      010012FEH   LINE      CODE     ---       #703
      01001304H   LINE      CODE     ---       #704
      0100130AH   LINE      CODE     ---       #705
      0100130DH   LINE      CODE     ---       #706
      01001313H   LINE      CODE     ---       #708
      01001319H   LINE      CODE     ---       #710
      0100131DH   LINE      CODE     ---       #712
      01001323H   LINE      CODE     ---       #713
      01001327H   LINE      CODE     ---       #715
      0100132DH   LINE      CODE     ---       #716
      01001333H   LINE      CODE     ---       #717
      01001339H   LINE      CODE     ---       #719
      0100133FH   LINE      CODE     ---       #721
      01001345H   LINE      CODE     ---       #722
      0100134BH   LINE      CODE     ---       #723
      01001351H   LINE      CODE     ---       #724
      01001351H   LINE      CODE     ---       #725
      ---         BLOCKEND  ---      ---       LVL=0

      01002CC4H   BLOCK     CODE     ---       LVL=0
      01002CC4H   LINE      CODE     ---       #733
      01002CC4H   LINE      CODE     ---       #734
      ---         BLOCKEND  ---      ---       LVL=0

      01001C1EH   BLOCK     CODE     ---       LVL=0
      01001C1EH   BLOCK     CODE     NEAR LAB  LVL=1
      00000007H   SYMBOL    DATA     BYTE      i
      ---         BLOCKEND  ---      ---       LVL=1
      01001C1EH   LINE      CODE     ---       #737
      01001C1EH   LINE      CODE     ---       #739
      01001C20H   LINE      CODE     ---       #740
LX51 LINKER/LOCATER V4.66.1.0                                                         10/08/2016  19:44:16  PAGE 67


      01001C20H   LINE      CODE     ---       #741
      01001C30H   LINE      CODE     ---       #742
      01001C40H   LINE      CODE     ---       #743
      01001C50H   LINE      CODE     ---       #744
      01001C55H   LINE      CODE     ---       #745
      01001C5BH   LINE      CODE     ---       #746
      01001C5DH   LINE      CODE     ---       #749
      01001C63H   LINE      CODE     ---       #750
      01001C68H   LINE      CODE     ---       #751
      01001C6EH   LINE      CODE     ---       #752
      01001C72H   LINE      CODE     ---       #753
      01001C76H   LINE      CODE     ---       #755
      01001C7AH   LINE      CODE     ---       #757
      01001C7EH   LINE      CODE     ---       #759
      01001C84H   LINE      CODE     ---       #760
      01001C88H   LINE      CODE     ---       #762
      01001C8EH   LINE      CODE     ---       #763
      01001C94H   LINE      CODE     ---       #764
      01001C9AH   LINE      CODE     ---       #766
      01001CA0H   LINE      CODE     ---       #768
      01001CA6H   LINE      CODE     ---       #769
      01001CACH   LINE      CODE     ---       #770
      01001CB2H   LINE      CODE     ---       #772
      01001CB8H   LINE      CODE     ---       #773
      01001CBCH   LINE      CODE     ---       #774
      01001CC0H   LINE      CODE     ---       #776
      01001CC4H   LINE      CODE     ---       #778
      01001CC8H   LINE      CODE     ---       #780
      01001CCEH   LINE      CODE     ---       #781
      01001CD2H   LINE      CODE     ---       #783
      01001CD8H   LINE      CODE     ---       #784
      01001CDEH   LINE      CODE     ---       #785
      01001CE4H   LINE      CODE     ---       #787
      ---         BLOCKEND  ---      ---       LVL=0

      0100050BH   BLOCK     CODE     ---       LVL=0
      0100050BH   BLOCK     CODE     NEAR LAB  LVL=1
      00000007H   SYMBOL    DATA     BYTE      i
      ---         BLOCKEND  ---      ---       LVL=1
      0100050BH   LINE      CODE     ---       #789
      0100050BH   LINE      CODE     ---       #791
      01000511H   LINE      CODE     ---       #792
      01000515H   LINE      CODE     ---       #793
      01000517H   LINE      CODE     ---       #794
      01000519H   LINE      CODE     ---       #795
      01000519H   LINE      CODE     ---       #796
      01000529H   LINE      CODE     ---       #797
      01000539H   LINE      CODE     ---       #798
      01000549H   LINE      CODE     ---       #799
      0100054EH   LINE      CODE     ---       #801
      01000555H   LINE      CODE     ---       #803
      0100055BH   LINE      CODE     ---       #804
      0100055FH   LINE      CODE     ---       #805
      01000563H   LINE      CODE     ---       #807
      01000567H   LINE      CODE     ---       #809
      0100056BH   LINE      CODE     ---       #811
      01000571H   LINE      CODE     ---       #812
      01000575H   LINE      CODE     ---       #814
      0100057BH   LINE      CODE     ---       #815
      01000581H   LINE      CODE     ---       #816
      01000587H   LINE      CODE     ---       #818
      0100058DH   LINE      CODE     ---       #820
      01000593H   LINE      CODE     ---       #821
      01000599H   LINE      CODE     ---       #822
      0100059FH   LINE      CODE     ---       #824
LX51 LINKER/LOCATER V4.66.1.0                                                         10/08/2016  19:44:16  PAGE 68


      010005A5H   LINE      CODE     ---       #825
      010005A9H   LINE      CODE     ---       #826
      010005ADH   LINE      CODE     ---       #828
      010005B1H   LINE      CODE     ---       #830
      010005B5H   LINE      CODE     ---       #832
      010005BBH   LINE      CODE     ---       #833
      010005BFH   LINE      CODE     ---       #835
      010005C5H   LINE      CODE     ---       #836
      010005CBH   LINE      CODE     ---       #837
      010005D1H   LINE      CODE     ---       #839
      010005DAH   LINE      CODE     ---       #841
      010005E0H   LINE      CODE     ---       #842
      010005E6H   LINE      CODE     ---       #843
      010005ECH   LINE      CODE     ---       #845
      010005F2H   LINE      CODE     ---       #846
      010005F6H   LINE      CODE     ---       #847
      010005FAH   LINE      CODE     ---       #849
      010005FEH   LINE      CODE     ---       #851
      01000602H   LINE      CODE     ---       #853
      01000608H   LINE      CODE     ---       #854
      0100060CH   LINE      CODE     ---       #856
      01000612H   LINE      CODE     ---       #857
      01000618H   LINE      CODE     ---       #858
      0100061EH   LINE      CODE     ---       #860
      01000624H   LINE      CODE     ---       #862
      0100062AH   LINE      CODE     ---       #863
      01000630H   LINE      CODE     ---       #864
      01000636H   LINE      CODE     ---       #866
      0100063CH   LINE      CODE     ---       #867
      01000640H   LINE      CODE     ---       #868
      01000644H   LINE      CODE     ---       #870
      01000648H   LINE      CODE     ---       #872
      0100064CH   LINE      CODE     ---       #874
      01000652H   LINE      CODE     ---       #875
      01000656H   LINE      CODE     ---       #877
      0100065CH   LINE      CODE     ---       #880
      01000662H   LINE      CODE     ---       #882
      01000668H   LINE      CODE     ---       #883
      0100066EH   LINE      CODE     ---       #884
      01000674H   LINE      CODE     ---       #886
      0100067AH   LINE      CODE     ---       #887
      0100067EH   LINE      CODE     ---       #888
      01000682H   LINE      CODE     ---       #890
      01000686H   LINE      CODE     ---       #892
      0100068AH   LINE      CODE     ---       #894
      01000690H   LINE      CODE     ---       #895
      01000694H   LINE      CODE     ---       #897
      0100069AH   LINE      CODE     ---       #898
      010006A0H   LINE      CODE     ---       #899
      010006A6H   LINE      CODE     ---       #901
      010006ACH   LINE      CODE     ---       #903
      010006B2H   LINE      CODE     ---       #904
      010006B8H   LINE      CODE     ---       #905
      010006BEH   LINE      CODE     ---       #907
      010006C4H   LINE      CODE     ---       #908
      010006C8H   LINE      CODE     ---       #909
      010006CCH   LINE      CODE     ---       #911
      010006D0H   LINE      CODE     ---       #913
      010006D4H   LINE      CODE     ---       #916
      010006DDH   LINE      CODE     ---       #918
      010006E3H   LINE      CODE     ---       #919
      010006E9H   LINE      CODE     ---       #920
      010006EFH   LINE      CODE     ---       #923
      010006F5H   LINE      CODE     ---       #925
      010006FBH   LINE      CODE     ---       #926
LX51 LINKER/LOCATER V4.66.1.0                                                         10/08/2016  19:44:16  PAGE 69


      01000701H   LINE      CODE     ---       #927
      01000707H   LINE      CODE     ---       #929
      0100070DH   LINE      CODE     ---       #930
      01000711H   LINE      CODE     ---       #931
      01000715H   LINE      CODE     ---       #933
      01000719H   LINE      CODE     ---       #935
      0100071DH   LINE      CODE     ---       #937
      01000723H   LINE      CODE     ---       #938
      01000727H   LINE      CODE     ---       #940
      0100072DH   LINE      CODE     ---       #941
      01000733H   LINE      CODE     ---       #942
      01000739H   LINE      CODE     ---       #944
      0100073FH   LINE      CODE     ---       #946
      01000745H   LINE      CODE     ---       #947
      0100074BH   LINE      CODE     ---       #948
      01000751H   LINE      CODE     ---       #950
      01000757H   LINE      CODE     ---       #951
      0100075BH   LINE      CODE     ---       #952
      0100075FH   LINE      CODE     ---       #954
      01000763H   LINE      CODE     ---       #956
      0100076CH   LINE      CODE     ---       #958
      01000772H   LINE      CODE     ---       #959
      01000776H   LINE      CODE     ---       #961
      0100077CH   LINE      CODE     ---       #962
      01000782H   LINE      CODE     ---       #963
      01000788H   LINE      CODE     ---       #966
      0100078EH   LINE      CODE     ---       #968
      01000794H   LINE      CODE     ---       #969
      0100079AH   LINE      CODE     ---       #970
      010007A0H   LINE      CODE     ---       #972
      010007A6H   LINE      CODE     ---       #973
      010007AAH   LINE      CODE     ---       #974
      010007AEH   LINE      CODE     ---       #976
      010007B2H   LINE      CODE     ---       #978
      010007B6H   LINE      CODE     ---       #980
      010007BCH   LINE      CODE     ---       #981
      010007C0H   LINE      CODE     ---       #983
      010007C6H   LINE      CODE     ---       #984
      010007CCH   LINE      CODE     ---       #985
      010007D2H   LINE      CODE     ---       #987
      010007D8H   LINE      CODE     ---       #989
      010007DEH   LINE      CODE     ---       #990
      010007E4H   LINE      CODE     ---       #991
      010007EAH   LINE      CODE     ---       #993
      010007F0H   LINE      CODE     ---       #994
      010007F4H   LINE      CODE     ---       #995
      010007F8H   LINE      CODE     ---       #998
      01000801H   LINE      CODE     ---       #1000
      01000807H   LINE      CODE     ---       #1002
      0100080DH   LINE      CODE     ---       #1003
      01000811H   LINE      CODE     ---       #1005
      01000817H   LINE      CODE     ---       #1006
      0100081DH   LINE      CODE     ---       #1007
      01000823H   LINE      CODE     ---       #1010
      01000829H   LINE      CODE     ---       #1012
      0100082FH   LINE      CODE     ---       #1013
      01000835H   LINE      CODE     ---       #1014
      0100083BH   LINE      CODE     ---       #1016
      01000841H   LINE      CODE     ---       #1017
      01000845H   LINE      CODE     ---       #1018
      01000849H   LINE      CODE     ---       #1020
      0100084DH   LINE      CODE     ---       #1022
      01000851H   LINE      CODE     ---       #1024
      01000857H   LINE      CODE     ---       #1025
      0100085BH   LINE      CODE     ---       #1027
LX51 LINKER/LOCATER V4.66.1.0                                                         10/08/2016  19:44:16  PAGE 70


      01000861H   LINE      CODE     ---       #1028
      01000867H   LINE      CODE     ---       #1029
      0100086DH   LINE      CODE     ---       #1031
      01000873H   LINE      CODE     ---       #1033
      01000879H   LINE      CODE     ---       #1034
      0100087FH   LINE      CODE     ---       #1035
      01000885H   LINE      CODE     ---       #1039
      0100088BH   LINE      CODE     ---       #1041
      01000891H   LINE      CODE     ---       #1043
      01000895H   LINE      CODE     ---       #1045
      0100089BH   LINE      CODE     ---       #1046
      0100089FH   LINE      CODE     ---       #1048
      010008A5H   LINE      CODE     ---       #1049
      010008ABH   LINE      CODE     ---       #1050
      010008B1H   LINE      CODE     ---       #1053
      010008B7H   LINE      CODE     ---       #1055
      010008BDH   LINE      CODE     ---       #1056
      010008C3H   LINE      CODE     ---       #1057
      010008C9H   LINE      CODE     ---       #1059
      010008CFH   LINE      CODE     ---       #1060
      010008D3H   LINE      CODE     ---       #1061
      010008D7H   LINE      CODE     ---       #1063
      010008DBH   LINE      CODE     ---       #1065
      010008DFH   LINE      CODE     ---       #1067
      010008E5H   LINE      CODE     ---       #1068
      010008E9H   LINE      CODE     ---       #1070
      010008EFH   LINE      CODE     ---       #1071
      010008F5H   LINE      CODE     ---       #1072
      010008FBH   LINE      CODE     ---       #1074
      01000901H   LINE      CODE     ---       #1075
      01000901H   LINE      CODE     ---       #1076
      ---         BLOCKEND  ---      ---       LVL=0

      01002CC7H   BLOCK     CODE     ---       LVL=0
      01002CC7H   LINE      CODE     ---       #1080
      01002CC7H   LINE      CODE     ---       #1081
      ---         BLOCKEND  ---      ---       LVL=0

      0100267DH   BLOCK     CODE     ---       LVL=0
      0100267DH   BLOCK     CODE     NEAR LAB  LVL=1
      00000007H   SYMBOL    DATA     BYTE      i
      ---         BLOCKEND  ---      ---       LVL=1
      0100267DH   LINE      CODE     ---       #1084
      0100267DH   LINE      CODE     ---       #1086
      0100267FH   LINE      CODE     ---       #1087
      0100267FH   LINE      CODE     ---       #1088
      01002690H   LINE      CODE     ---       #1089
      010026A0H   LINE      CODE     ---       #1090
      010026B0H   LINE      CODE     ---       #1091
      010026B5H   LINE      CODE     ---       #1092
      010026BBH   LINE      CODE     ---       #1093
      010026BDH   LINE      CODE     ---       #1096
      010026C3H   LINE      CODE     ---       #1097
      010026CAH   LINE      CODE     ---       #1098
      ---         BLOCKEND  ---      ---       LVL=0

      01001352H   BLOCK     CODE     ---       LVL=0
      01001352H   BLOCK     CODE     NEAR LAB  LVL=1
      00000007H   SYMBOL    DATA     BYTE      i
      ---         BLOCKEND  ---      ---       LVL=1
      01001352H   LINE      CODE     ---       #1100
      01001352H   LINE      CODE     ---       #1103
      01001360H   LINE      CODE     ---       #1104
      0100136FH   LINE      CODE     ---       #1105
      01001373H   LINE      CODE     ---       #1106
LX51 LINKER/LOCATER V4.66.1.0                                                         10/08/2016  19:44:16  PAGE 71


      01001383H   LINE      CODE     ---       #1107
      01001383H   LINE      CODE     ---       #1108
      01001385H   LINE      CODE     ---       #1109
      01001385H   LINE      CODE     ---       #1110
      01001396H   LINE      CODE     ---       #1111
      010013A6H   LINE      CODE     ---       #1112
      010013B6H   LINE      CODE     ---       #1113
      010013BCH   LINE      CODE     ---       #1115
      010013D4H   LINE      CODE     ---       #1116
      010013D6H   LINE      CODE     ---       #1117
      010013D6H   LINE      CODE     ---       #1118
      010013E7H   LINE      CODE     ---       #1119
      010013F7H   LINE      CODE     ---       #1120
      01001407H   LINE      CODE     ---       #1121
      0100140DH   LINE      CODE     ---       #1122
      0100140DH   LINE      CODE     ---       #1123
      01001426H   LINE      CODE     ---       #1124
      01001428H   LINE      CODE     ---       #1125
      01001428H   LINE      CODE     ---       #1126
      01001438H   LINE      CODE     ---       #1127
      01001449H   LINE      CODE     ---       #1128
      01001459H   LINE      CODE     ---       #1129
      0100145FH   LINE      CODE     ---       #1130
      0100145FH   LINE      CODE     ---       #1132
      01001478H   LINE      CODE     ---       #1133
      0100147AH   LINE      CODE     ---       #1134
      0100147AH   LINE      CODE     ---       #1135
      0100148AH   LINE      CODE     ---       #1136
      0100149BH   LINE      CODE     ---       #1137
      010014ABH   LINE      CODE     ---       #1138
      010014B1H   LINE      CODE     ---       #1139
      010014B1H   LINE      CODE     ---       #1142
      010014CAH   LINE      CODE     ---       #1143
      010014CCH   LINE      CODE     ---       #1144
      010014CCH   LINE      CODE     ---       #1145
      010014DCH   LINE      CODE     ---       #1146
      010014ECH   LINE      CODE     ---       #1147
      010014FDH   LINE      CODE     ---       #1148
      01001503H   LINE      CODE     ---       #1149
      0100151CH   LINE      CODE     ---       #1150
      0100151EH   LINE      CODE     ---       #1151
      0100151EH   LINE      CODE     ---       #1152
      0100152EH   LINE      CODE     ---       #1153
      0100153EH   LINE      CODE     ---       #1154
      0100154FH   LINE      CODE     ---       #1155
      01001554H   LINE      CODE     ---       #1156
      01001554H   LINE      CODE     ---       #1157
      ---         BLOCKEND  ---      ---       LVL=0

      01002CCAH   BLOCK     CODE     ---       LVL=0
      01002CCAH   LINE      CODE     ---       #1161
      01002CCAH   LINE      CODE     ---       #1162
      ---         BLOCKEND  ---      ---       LVL=0

      010025DEH   BLOCK     CODE     ---       LVL=0
      010025DEH   BLOCK     CODE     NEAR LAB  LVL=1
      00000007H   SYMBOL    DATA     BYTE      i
      ---         BLOCKEND  ---      ---       LVL=1
      010025DEH   LINE      CODE     ---       #1165
      010025DEH   LINE      CODE     ---       #1167
      010025E0H   LINE      CODE     ---       #1168
      010025E0H   LINE      CODE     ---       #1169
      010025F1H   LINE      CODE     ---       #1170
      01002602H   LINE      CODE     ---       #1171
      01002613H   LINE      CODE     ---       #1172
LX51 LINKER/LOCATER V4.66.1.0                                                         10/08/2016  19:44:16  PAGE 72


      01002618H   LINE      CODE     ---       #1173
      0100261EH   LINE      CODE     ---       #1174
      01002620H   LINE      CODE     ---       #1177
      01002626H   LINE      CODE     ---       #1178
      0100262DH   LINE      CODE     ---       #1179
      ---         BLOCKEND  ---      ---       LVL=0

      01000026H   BLOCK     CODE     ---       LVL=0
      01000026H   BLOCK     CODE     NEAR LAB  LVL=1
      00000007H   SYMBOL    DATA     BYTE      i
      ---         BLOCKEND  ---      ---       LVL=1
      01000026H   LINE      CODE     ---       #1181
      01000026H   LINE      CODE     ---       #1183
      01000034H   LINE      CODE     ---       #1184
      01000043H   LINE      CODE     ---       #1185
      01000043H   LINE      CODE     ---       #1186
      01000047H   LINE      CODE     ---       #1187
      01000048H   LINE      CODE     ---       #1188
      01000048H   LINE      CODE     ---       #1189
      01000058H   LINE      CODE     ---       #1190
      01000068H   LINE      CODE     ---       #1191
      01000078H   LINE      CODE     ---       #1192
      0100007DH   LINE      CODE     ---       #1193
      0100007DH   LINE      CODE     ---       #1195
      0100008DH   LINE      CODE     ---       #1196
      0100008DH   LINE      CODE     ---       #1197
      0100008FH   LINE      CODE     ---       #1198
      0100008FH   LINE      CODE     ---       #1199
      010000A0H   LINE      CODE     ---       #1200
      010000B1H   LINE      CODE     ---       #1201
      010000C2H   LINE      CODE     ---       #1202
      010000C8H   LINE      CODE     ---       #1204
      010000E0H   LINE      CODE     ---       #1205
      010000E2H   LINE      CODE     ---       #1206
      010000E2H   LINE      CODE     ---       #1207
      010000F3H   LINE      CODE     ---       #1208
      01000104H   LINE      CODE     ---       #1209
      01000115H   LINE      CODE     ---       #1210
      0100011BH   LINE      CODE     ---       #1211
      0100011BH   LINE      CODE     ---       #1213
      01000134H   LINE      CODE     ---       #1214
      01000136H   LINE      CODE     ---       #1215
      01000136H   LINE      CODE     ---       #1216
      01000147H   LINE      CODE     ---       #1217
      01000157H   LINE      CODE     ---       #1218
      01000167H   LINE      CODE     ---       #1219
      0100016DH   LINE      CODE     ---       #1221
      01000186H   LINE      CODE     ---       #1222
      01000188H   LINE      CODE     ---       #1223
      01000188H   LINE      CODE     ---       #1224
      01000199H   LINE      CODE     ---       #1225
      010001A9H   LINE      CODE     ---       #1226
      010001B9H   LINE      CODE     ---       #1227
      010001BFH   LINE      CODE     ---       #1228
      010001BFH   LINE      CODE     ---       #1230
      010001D8H   LINE      CODE     ---       #1231
      010001DAH   LINE      CODE     ---       #1232
      010001DAH   LINE      CODE     ---       #1233
      010001EAH   LINE      CODE     ---       #1234
      010001FBH   LINE      CODE     ---       #1235
      0100020BH   LINE      CODE     ---       #1236
      01000211H   LINE      CODE     ---       #1237
      0100022AH   LINE      CODE     ---       #1238
      0100022CH   LINE      CODE     ---       #1239
      0100022CH   LINE      CODE     ---       #1240
LX51 LINKER/LOCATER V4.66.1.0                                                         10/08/2016  19:44:16  PAGE 73


      0100023CH   LINE      CODE     ---       #1241
      0100024DH   LINE      CODE     ---       #1242
      0100025DH   LINE      CODE     ---       #1243
      01000263H   LINE      CODE     ---       #1244
      01000263H   LINE      CODE     ---       #1246
      0100027CH   LINE      CODE     ---       #1247
      0100027EH   LINE      CODE     ---       #1248
      0100027EH   LINE      CODE     ---       #1249
      0100028EH   LINE      CODE     ---       #1250
      0100029EH   LINE      CODE     ---       #1251
      010002AFH   LINE      CODE     ---       #1252
      010002B5H   LINE      CODE     ---       #1253
      010002CEH   LINE      CODE     ---       #1254
      010002D0H   LINE      CODE     ---       #1255
      010002D0H   LINE      CODE     ---       #1256
      010002E0H   LINE      CODE     ---       #1257
      010002F0H   LINE      CODE     ---       #1258
      01000301H   LINE      CODE     ---       #1259
      01000307H   LINE      CODE     ---       #1260
      01000307H   LINE      CODE     ---       #1262
      01000320H   LINE      CODE     ---       #1263
      01000322H   LINE      CODE     ---       #1264
      01000322H   LINE      CODE     ---       #1265
      01000334H   LINE      CODE     ---       #1266
      01000346H   LINE      CODE     ---       #1267
      01000358H   LINE      CODE     ---       #1268
      0100035EH   LINE      CODE     ---       #1269
      01000377H   LINE      CODE     ---       #1270
      01000379H   LINE      CODE     ---       #1271
      01000379H   LINE      CODE     ---       #1272
      0100038BH   LINE      CODE     ---       #1273
      0100039DH   LINE      CODE     ---       #1274
      010003AFH   LINE      CODE     ---       #1275
      010003B5H   LINE      CODE     ---       #1276
      010003B5H   LINE      CODE     ---       #1279
      010003CEH   LINE      CODE     ---       #1280
      010003D0H   LINE      CODE     ---       #1281
      010003D0H   LINE      CODE     ---       #1282
      010003E2H   LINE      CODE     ---       #1283
      010003F3H   LINE      CODE     ---       #1284
      01000403H   LINE      CODE     ---       #1285
      01000409H   LINE      CODE     ---       #1286
      01000422H   LINE      CODE     ---       #1287
      01000424H   LINE      CODE     ---       #1288
      01000424H   LINE      CODE     ---       #1289
      01000436H   LINE      CODE     ---       #1290
      01000447H   LINE      CODE     ---       #1291
      01000457H   LINE      CODE     ---       #1292
      0100045DH   LINE      CODE     ---       #1293
      0100045DH   LINE      CODE     ---       #1295
      01000476H   LINE      CODE     ---       #1296
      01000478H   LINE      CODE     ---       #1297
      01000478H   LINE      CODE     ---       #1298
      0100048AH   LINE      CODE     ---       #1299
      0100049CH   LINE      CODE     ---       #1300
      010004AEH   LINE      CODE     ---       #1301
      010004B4H   LINE      CODE     ---       #1302
      010004CDH   LINE      CODE     ---       #1303
      010004CFH   LINE      CODE     ---       #1304
      010004CFH   LINE      CODE     ---       #1305
      010004E1H   LINE      CODE     ---       #1306
      010004F3H   LINE      CODE     ---       #1307
      01000505H   LINE      CODE     ---       #1308
      0100050AH   LINE      CODE     ---       #1309
      0100050AH   LINE      CODE     ---       #1310
LX51 LINKER/LOCATER V4.66.1.0                                                         10/08/2016  19:44:16  PAGE 74


      ---         BLOCKEND  ---      ---       LVL=0

      01002CCDH   BLOCK     CODE     ---       LVL=0
      01002CCDH   LINE      CODE     ---       #1316
      01002CCDH   LINE      CODE     ---       #1317
      ---         BLOCKEND  ---      ---       LVL=0

      010026CBH   BLOCK     CODE     ---       LVL=0
      010026CBH   BLOCK     CODE     NEAR LAB  LVL=1
      00000007H   SYMBOL    DATA     BYTE      i
      ---         BLOCKEND  ---      ---       LVL=1
      010026CBH   LINE      CODE     ---       #1320
      010026CBH   LINE      CODE     ---       #1322
      010026CDH   LINE      CODE     ---       #1323
      010026CDH   LINE      CODE     ---       #1324
      010026DEH   LINE      CODE     ---       #1325
      010026EFH   LINE      CODE     ---       #1326
      01002700H   LINE      CODE     ---       #1327
      01002705H   LINE      CODE     ---       #1328
      0100270BH   LINE      CODE     ---       #1329
      0100270DH   LINE      CODE     ---       #1330
      01002714H   LINE      CODE     ---       #1333
      01002718H   LINE      CODE     ---       #1334
      ---         BLOCKEND  ---      ---       LVL=0

      01001CE5H   BLOCK     CODE     ---       LVL=0
      01001CE5H   BLOCK     CODE     NEAR LAB  LVL=1
      00000007H   SYMBOL    DATA     BYTE      i
      ---         BLOCKEND  ---      ---       LVL=1
      01001CE5H   LINE      CODE     ---       #1336
      01001CE5H   LINE      CODE     ---       #1338
      01001CF3H   LINE      CODE     ---       #1339
      01001D02H   LINE      CODE     ---       #1340
      01001D06H   LINE      CODE     ---       #1341
      01001D16H   LINE      CODE     ---       #1342
      01001D16H   LINE      CODE     ---       #1343
      01001D18H   LINE      CODE     ---       #1344
      01001D18H   LINE      CODE     ---       #1345
      01001D29H   LINE      CODE     ---       #1346
      01001D3AH   LINE      CODE     ---       #1347
      01001D4BH   LINE      CODE     ---       #1348
      01001D51H   LINE      CODE     ---       #1350
      01001D69H   LINE      CODE     ---       #1351
      01001D6BH   LINE      CODE     ---       #1352
      01001D6BH   LINE      CODE     ---       #1353
      01001D7CH   LINE      CODE     ---       #1354
      01001D8DH   LINE      CODE     ---       #1355
      01001D9EH   LINE      CODE     ---       #1356
      01001DA3H   LINE      CODE     ---       #1357
      01001DA3H   LINE      CODE     ---       #1358
      ---         BLOCKEND  ---      ---       LVL=0

      01002CD0H   BLOCK     CODE     ---       LVL=0
      01002CD0H   LINE      CODE     ---       #1364
      01002CD0H   LINE      CODE     ---       #1365
      ---         BLOCKEND  ---      ---       LVL=0

      01002719H   BLOCK     CODE     ---       LVL=0
      01002719H   BLOCK     CODE     NEAR LAB  LVL=1
      00000007H   SYMBOL    DATA     BYTE      i
      ---         BLOCKEND  ---      ---       LVL=1
      01002719H   LINE      CODE     ---       #1368
      01002719H   LINE      CODE     ---       #1370
      0100271BH   LINE      CODE     ---       #1371
      0100271BH   LINE      CODE     ---       #1372
LX51 LINKER/LOCATER V4.66.1.0                                                         10/08/2016  19:44:16  PAGE 75


      0100272CH   LINE      CODE     ---       #1373
      0100273DH   LINE      CODE     ---       #1374
      0100274EH   LINE      CODE     ---       #1375
      01002753H   LINE      CODE     ---       #1376
      01002759H   LINE      CODE     ---       #1377
      0100275BH   LINE      CODE     ---       #1380
      01002761H   LINE      CODE     ---       #1382
      01002766H   LINE      CODE     ---       #1383
      ---         BLOCKEND  ---      ---       LVL=0

      01001722H   BLOCK     CODE     ---       LVL=0
      01001722H   BLOCK     CODE     NEAR LAB  LVL=1
      00000007H   SYMBOL    DATA     BYTE      i
      ---         BLOCKEND  ---      ---       LVL=1
      01001722H   LINE      CODE     ---       #1385
      01001722H   LINE      CODE     ---       #1387
      01001728H   LINE      CODE     ---       #1388
      0100172CH   LINE      CODE     ---       #1389
      0100172EH   LINE      CODE     ---       #1390
      01001730H   LINE      CODE     ---       #1391
      01001730H   LINE      CODE     ---       #1392
      01001740H   LINE      CODE     ---       #1393
      01001750H   LINE      CODE     ---       #1394
      01001760H   LINE      CODE     ---       #1395
      01001765H   LINE      CODE     ---       #1396
      0100176CH   LINE      CODE     ---       #1397
      0100176DH   LINE      CODE     ---       #1398
      0100176DH   LINE      CODE     ---       #1399
      0100177EH   LINE      CODE     ---       #1400
      0100178FH   LINE      CODE     ---       #1401
      010017A0H   LINE      CODE     ---       #1402
      010017A6H   LINE      CODE     ---       #1403
      010017AAH   LINE      CODE     ---       #1404
      010017ACH   LINE      CODE     ---       #1405
      010017ACH   LINE      CODE     ---       #1406
      010017BDH   LINE      CODE     ---       #1407
      010017C3H   LINE      CODE     ---       #1409
      010017CBH   LINE      CODE     ---       #1410
      010017CDH   LINE      CODE     ---       #1411
      010017CDH   LINE      CODE     ---       #1412
      010017DEH   LINE      CODE     ---       #1413
      010017E4H   LINE      CODE     ---       #1415
      010017E9H   LINE      CODE     ---       #1416
      010017EAH   LINE      CODE     ---       #1417
      010017EAH   LINE      CODE     ---       #1418
      010017FBH   LINE      CODE     ---       #1419
      0100180CH   LINE      CODE     ---       #1420
      01001812H   LINE      CODE     ---       #1422
      0100181BH   LINE      CODE     ---       #1423
      0100181CH   LINE      CODE     ---       #1424
      0100181CH   LINE      CODE     ---       #1425
      0100182DH   LINE      CODE     ---       #1426
      0100183EH   LINE      CODE     ---       #1427
      0100184FH   LINE      CODE     ---       #1428
      01001855H   LINE      CODE     ---       #1430
      01001859H   LINE      CODE     ---       #1431
      0100185BH   LINE      CODE     ---       #1432
      0100185BH   LINE      CODE     ---       #1433
      0100186CH   LINE      CODE     ---       #1434
      01001872H   LINE      CODE     ---       #1436
      0100187AH   LINE      CODE     ---       #1437
      0100187BH   LINE      CODE     ---       #1438
      0100187BH   LINE      CODE     ---       #1439
      0100188CH   LINE      CODE     ---       #1440
      0100189DH   LINE      CODE     ---       #1441
LX51 LINKER/LOCATER V4.66.1.0                                                         10/08/2016  19:44:16  PAGE 76


      010018AEH   LINE      CODE     ---       #1442
      010018B3H   LINE      CODE     ---       #1444
      010018B3H   LINE      CODE     ---       #1445
      ---         BLOCKEND  ---      ---       LVL=0

      01002C5DH   BLOCK     CODE     ---       LVL=0
      01002C5DH   LINE      CODE     ---       #1453
      01002C5DH   LINE      CODE     ---       #1454
      01002C60H   LINE      CODE     ---       #1455
      01002C63H   LINE      CODE     ---       #1456
      01002C66H   LINE      CODE     ---       #1457
      01002C68H   LINE      CODE     ---       #1458
      01002C6BH   LINE      CODE     ---       #1459
      ---         BLOCKEND  ---      ---       LVL=0

      01002B6CH   BLOCK     CODE     ---       LVL=0
      01002B6CH   LINE      CODE     ---       #1461
      01002B6CH   LINE      CODE     ---       #1462
      01002B6CH   LINE      CODE     ---       #1463
      01002B6FH   LINE      CODE     ---       #1465
      01002B70H   LINE      CODE     ---       #1466
      01002B71H   LINE      CODE     ---       #1467
      01002B72H   LINE      CODE     ---       #1468
      01002B73H   LINE      CODE     ---       #1469
      01002B78H   LINE      CODE     ---       #1470
      01002B7BH   LINE      CODE     ---       #1471
      01002B84H   LINE      CODE     ---       #1472
      ---         BLOCKEND  ---      ---       LVL=0

      01002CD3H   BLOCK     CODE     ---       LVL=0
      01002CD3H   LINE      CODE     ---       #1476
      01002CD3H   LINE      CODE     ---       #1477
      ---         BLOCKEND  ---      ---       LVL=0

      01002767H   BLOCK     CODE     ---       LVL=0
      01002767H   BLOCK     CODE     NEAR LAB  LVL=1
      00000007H   SYMBOL    DATA     BYTE      i
      ---         BLOCKEND  ---      ---       LVL=1
      01002767H   LINE      CODE     ---       #1481
      01002767H   LINE      CODE     ---       #1483
      01002769H   LINE      CODE     ---       #1484
      01002769H   LINE      CODE     ---       #1485
      0100277AH   LINE      CODE     ---       #1486
      0100278BH   LINE      CODE     ---       #1487
      0100279CH   LINE      CODE     ---       #1488
      010027A1H   LINE      CODE     ---       #1489
      010027A7H   LINE      CODE     ---       #1490
      010027A9H   LINE      CODE     ---       #1492
      010027AFH   LINE      CODE     ---       #1493
      010027B4H   LINE      CODE     ---       #1494
      ---         BLOCKEND  ---      ---       LVL=0

      01001555H   BLOCK     CODE     ---       LVL=0
      01001555H   BLOCK     CODE     NEAR LAB  LVL=1
      00000006H   SYMBOL    DATA     BYTE      i
      00000004H   SYMBOL    DATA     BYTE      adc_result_diff
      00000005H   SYMBOL    DATA     BYTE      adc_result
      00000007H   SYMBOL    DATA     BYTE      adc_result_from_music
      ---         BLOCKEND  ---      ---       LVL=1
      01001555H   LINE      CODE     ---       #1498
      01001555H   LINE      CODE     ---       #1499
      01001555H   LINE      CODE     ---       #1502
      01001558H   LINE      CODE     ---       #1504
      0100155EH   LINE      CODE     ---       #1505
      0100155EH   LINE      CODE     ---       #1506
LX51 LINKER/LOCATER V4.66.1.0                                                         10/08/2016  19:44:16  PAGE 77


      01001562H   LINE      CODE     ---       #1507
      01001567H   LINE      CODE     ---       #1508
      01001569H   LINE      CODE     ---       #1509
      01001577H   LINE      CODE     ---       #1510
      01001579H   LINE      CODE     ---       #1511
      01001586H   LINE      CODE     ---       #1512
      01001588H   LINE      CODE     ---       #1513
      01001595H   LINE      CODE     ---       #1514
      01001597H   LINE      CODE     ---       #1515
      010015A4H   LINE      CODE     ---       #1516
      010015A6H   LINE      CODE     ---       #1517
      010015B3H   LINE      CODE     ---       #1518
      010015B5H   LINE      CODE     ---       #1519
      010015C2H   LINE      CODE     ---       #1520
      010015C4H   LINE      CODE     ---       #1521
      010015CCH   LINE      CODE     ---       #1522
      010015CEH   LINE      CODE     ---       #1523
      010015CEH   LINE      CODE     ---       #1524
      010015D0H   LINE      CODE     ---       #1525
      010015D0H   LINE      CODE     ---       #1526
      010015D5H   LINE      CODE     ---       #1527
      010015DAH   LINE      CODE     ---       #1528
      010015DCH   LINE      CODE     ---       #1529
      010015E9H   LINE      CODE     ---       #1530
      010015EBH   LINE      CODE     ---       #1531
      010015F3H   LINE      CODE     ---       #1532
      010015F5H   LINE      CODE     ---       #1533
      010015F5H   LINE      CODE     ---       #1535
      010015F5H   LINE      CODE     ---       #1536
      010015FBH   LINE      CODE     ---       #1537
      010015FFH   LINE      CODE     ---       #1538
      01001601H   LINE      CODE     ---       #1539
      01001608H   LINE      CODE     ---       #1540
      01001609H   LINE      CODE     ---       #1541
      01001609H   LINE      CODE     ---       #1542
      01001619H   LINE      CODE     ---       #1543
      0100161FH   LINE      CODE     ---       #1545
      01001623H   LINE      CODE     ---       #1546
      01001625H   LINE      CODE     ---       #1547
      01001625H   LINE      CODE     ---       #1548
      01001635H   LINE      CODE     ---       #1549
      0100163BH   LINE      CODE     ---       #1550
      01001643H   LINE      CODE     ---       #1551
      01001645H   LINE      CODE     ---       #1552
      01001645H   LINE      CODE     ---       #1553
      01001655H   LINE      CODE     ---       #1554
      0100165BH   LINE      CODE     ---       #1555
      01001660H   LINE      CODE     ---       #1556
      01001661H   LINE      CODE     ---       #1557
      01001661H   LINE      CODE     ---       #1558
      01001671H   LINE      CODE     ---       #1559
      01001681H   LINE      CODE     ---       #1560
      01001687H   LINE      CODE     ---       #1561
      01001690H   LINE      CODE     ---       #1562
      01001691H   LINE      CODE     ---       #1563
      01001691H   LINE      CODE     ---       #1564
      010016A1H   LINE      CODE     ---       #1565
      010016B1H   LINE      CODE     ---       #1566
      010016B7H   LINE      CODE     ---       #1567
      010016BCH   LINE      CODE     ---       #1568
      010016BDH   LINE      CODE     ---       #1569
      010016BDH   LINE      CODE     ---       #1570
      010016CDH   LINE      CODE     ---       #1571
      010016DDH   LINE      CODE     ---       #1572
      010016E3H   LINE      CODE     ---       #1573
LX51 LINKER/LOCATER V4.66.1.0                                                         10/08/2016  19:44:16  PAGE 78


      010016EBH   LINE      CODE     ---       #1574
      010016ECH   LINE      CODE     ---       #1575
      010016ECH   LINE      CODE     ---       #1576
      010016FCH   LINE      CODE     ---       #1577
      0100170CH   LINE      CODE     ---       #1578
      0100171CH   LINE      CODE     ---       #1579
      01001721H   LINE      CODE     ---       #1580
      01001721H   LINE      CODE     ---       #1581
      ---         BLOCKEND  ---      ---       LVL=0

      01001DA4H   BLOCK     CODE     ---       LVL=0
      00000001H   SYMBOL    DATA     ---       param
      01001DA4H   BLOCK     CODE     NEAR LAB  LVL=1
      00000007H   SYMBOL    DATA     BYTE      i
      ---         BLOCKEND  ---      ---       LVL=1
      01001DA4H   LINE      CODE     ---       #1584
      01001DA4H   LINE      CODE     ---       #1585
      01001DA4H   LINE      CODE     ---       #1587
      01001DAAH   LINE      CODE     ---       #1588
      01001DAEH   LINE      CODE     ---       #1589
      01001DB1H   LINE      CODE     ---       #1590
      01001DB2H   LINE      CODE     ---       #1591
      01001DB2H   LINE      CODE     ---       #1592
      01001DE7H   LINE      CODE     ---       #1593
      01001E1CH   LINE      CODE     ---       #1594
      01001E51H   LINE      CODE     ---       #1595
      01001E5AH   LINE      CODE     ---       #1596
      ---         BLOCKEND  ---      ---       LVL=0

      ---         MODULE    ---      ---       POWER
      00000020H.1 PUBLIC    BIT      BIT       sys_status
      0200016CH   PUBLIC    XDATA    BYTE      power_level_set
      00000020H.0 PUBLIC    BIT      BIT       power_status
      01002B9CH   PUBLIC    CODE     ---       exint0
      01002C3DH   PUBLIC    CODE     ---       power_select_level
      010027FEH   PUBLIC    CODE     ---       _power_level_8bit
      01002C99H   PUBLIC    CODE     ---       power_overload_protect
      01002C90H   PUBLIC    CODE     ---       power_config_init
      000000D8H.2 SFRSYM    DATA     BIT       CCF2
      000000E0H.7 SFRSYM    DATA     BIT       ACC7
      00000093H   SFRSYM    DATA     BYTE      P0M1
      00000092H   SFRSYM    DATA     BYTE      P1M0
      00000096H   SFRSYM    DATA     BYTE      P2M0
      00000091H   SFRSYM    DATA     BYTE      P1M1
      00000080H   SFRSYM    DATA     BYTE      P0
      000000B2H   SFRSYM    DATA     BYTE      P3M0
      00000095H   SFRSYM    DATA     BYTE      P2M1
      00000090H   SFRSYM    DATA     BYTE      P1
      000000B4H   SFRSYM    DATA     BYTE      P4M0
      000000B1H   SFRSYM    DATA     BYTE      P3M1
      000000A0H   SFRSYM    DATA     BYTE      P2
      000000CAH   SFRSYM    DATA     BYTE      P5M0
      000000B3H   SFRSYM    DATA     BYTE      P4M1
      000000B0H   SFRSYM    DATA     BYTE      P3
      000000ABH   SFRSYM    DATA     BYTE      WKTCH
      000000B0H.4 SFRSYM    DATA     BIT       T0
      000000D0H.6 SFRSYM    DATA     BIT       AC
      000000CCH   SFRSYM    DATA     BYTE      P6M0
      000000C9H   SFRSYM    DATA     BYTE      P5M1
      000000C0H   SFRSYM    DATA     BYTE      P4
      000000B0H.5 SFRSYM    DATA     BIT       CLKOUT0
      000000B0H.5 SFRSYM    DATA     BIT       T1
      000000F6H   SFRSYM    DATA     BYTE      PWMIF
      000000E2H   SFRSYM    DATA     BYTE      P7M0
      000000CBH   SFRSYM    DATA     BYTE      P6M1
LX51 LINKER/LOCATER V4.66.1.0                                                         10/08/2016  19:44:16  PAGE 79


      000000C8H   SFRSYM    DATA     BYTE      P5
      000000C6H   SFRSYM    DATA     BYTE      ISP_TRIG
      000000A8H.7 SFRSYM    DATA     BIT       EA
      000000B0H.4 SFRSYM    DATA     BIT       CLKOUT1
      000000A0H.4 SFRSYM    DATA     BIT       SPI_SS_2
      000000E8H   SFRSYM    DATA     BYTE      P6
      000000E1H   SFRSYM    DATA     BYTE      P7M1
      000000C8H.4 SFRSYM    DATA     BIT       SPI_SS_3
      00000090H.4 SFRSYM    DATA     BIT       SPI_MISO
      00000090H.3 SFRSYM    DATA     BIT       SPI_MOSI
      00000090H.1 SFRSYM    DATA     BIT       CCP0
      000000F8H   SFRSYM    DATA     BYTE      P7
      000000AAH   SFRSYM    DATA     BYTE      WKTCL
      00000090H   SFRSYM    DATA     BIT       CCP1
      000000CEH   SFRSYM    DATA     BYTE      SPCTL
      000000D8H.7 SFRSYM    DATA     BIT       CF
      000000B0H.7 SFRSYM    DATA     BIT       CCP2
      000000F9H   SFRSYM    DATA     BYTE      CH
      000000F5H   SFRSYM    DATA     BYTE      PWMCR
      000000A2H   SFRSYM    DATA     BYTE      P_SW1
      000000BAH   SFRSYM    DATA     BYTE      P_SW2
      000000A8H.5 SFRSYM    DATA     BIT       EADC
      000000A0H.1 SFRSYM    DATA     BIT       SPI_SCLK_2
      000000A8H   SFRSYM    DATA     BYTE      IE
      000000C0H.3 SFRSYM    DATA     BIT       SPI_SCLK_3
      000000E9H   SFRSYM    DATA     BYTE      CL
      000000C5H   SFRSYM    DATA     BYTE      IAP_CMD
      000000FAH   SFRSYM    DATA     BYTE      CCAP0H
      000000FBH   SFRSYM    DATA     BYTE      CCAP1H
      000000FCH   SFRSYM    DATA     BYTE      CCAP2H
      000000BDH   SFRSYM    DATA     BYTE      ADC_RES
      000000B6H   SFRSYM    DATA     BYTE      IPH2
      000000D8H.6 SFRSYM    DATA     BIT       CR
      000000EAH   SFRSYM    DATA     BYTE      CCAP0L
      000000B0H.7 SFRSYM    DATA     BIT       RD
      000000F7H   SFRSYM    DATA     BYTE      PWMFDCR
      000000EBH   SFRSYM    DATA     BYTE      CCAP1L
      000000DAH   SFRSYM    DATA     BYTE      CCAPM0
      000000ECH   SFRSYM    DATA     BYTE      CCAP2L
      000000DBH   SFRSYM    DATA     BYTE      CCAPM1
      000000A8H.4 SFRSYM    DATA     BIT       ES
      000000DCH   SFRSYM    DATA     BYTE      CCAPM2
      000000B8H.5 SFRSYM    DATA     BIT       PADC
      000000A0H.2 SFRSYM    DATA     BIT       SPI_MISO_2
      000000A0H.3 SFRSYM    DATA     BIT       SPI_MOSI_2
      000000B8H   SFRSYM    DATA     BYTE      IP
      000000C0H.1 SFRSYM    DATA     BIT       SPI_MISO_3
      000000C0H   SFRSYM    DATA     BIT       SPI_MOSI_3
      00000098H   SFRSYM    DATA     BIT       RI
      000000B0H.2 SFRSYM    DATA     BIT       INT0
      000000D0H.7 SFRSYM    DATA     BIT       CY
      00000098H.1 SFRSYM    DATA     BIT       TI
      000000B0H.3 SFRSYM    DATA     BIT       INT1
      00000097H   SFRSYM    DATA     BYTE      CLK_DIV
      000000C3H   SFRSYM    DATA     BYTE      IAP_ADDRH
      00000090H   SFRSYM    DATA     BIT       RXD2
      000000C5H   SFRSYM    DATA     BYTE      ISP_CMD
      000000B8H.4 SFRSYM    DATA     BIT       PS
      00000090H.1 SFRSYM    DATA     BIT       TXD2
      00000081H   SFRSYM    DATA     BYTE      SP
      000000D9H   SFRSYM    DATA     BYTE      CMOD
      000000D8H   SFRSYM    DATA     BYTE      CCON
      000000C4H   SFRSYM    DATA     BYTE      IAP_ADDRL
      000000B8H.7 SFRSYM    DATA     BIT       PPCA
      000000D0H.2 SFRSYM    DATA     BIT       OV
LX51 LINKER/LOCATER V4.66.1.0                                                         10/08/2016  19:44:16  PAGE 80


      000000B0H.7 SFRSYM    DATA     BIT       PWM2
      000000A0H.1 SFRSYM    DATA     BIT       PWM3
      000000E6H   SFRSYM    DATA     BYTE      CMPCR1
      000000B0H.6 SFRSYM    DATA     BIT       WR
      000000E7H   SFRSYM    DATA     BYTE      CMPCR2
      000000A0H.3 SFRSYM    DATA     BIT       PWM5
      00000090H.7 SFRSYM    DATA     BIT       PWM7
      000000A8H.6 SFRSYM    DATA     BIT       ELVD
      00000080H   SFRSYM    DATA     BIT       P00
      00000090H   SFRSYM    DATA     BIT       P10
      00000080H.1 SFRSYM    DATA     BIT       P01
      000000BCH   SFRSYM    DATA     BYTE      ADC_CONTR
      00000099H   SFRSYM    DATA     BYTE      SBUF
      00000087H   SFRSYM    DATA     BYTE      PCON
      000000A0H   SFRSYM    DATA     BIT       P20
      00000090H.1 SFRSYM    DATA     BIT       P11
      00000080H.2 SFRSYM    DATA     BIT       P02
      000000C3H   SFRSYM    DATA     BYTE      ISP_ADDRH
      000000B0H   SFRSYM    DATA     BIT       P30
      000000A0H.1 SFRSYM    DATA     BIT       P21
      00000090H.2 SFRSYM    DATA     BIT       P12
      00000080H.3 SFRSYM    DATA     BIT       P03
      000000C0H   SFRSYM    DATA     BIT       P40
      000000B0H.1 SFRSYM    DATA     BIT       P31
      000000A0H.2 SFRSYM    DATA     BIT       P22
      00000090H.3 SFRSYM    DATA     BIT       P13
      00000080H.4 SFRSYM    DATA     BIT       P04
      00000098H   SFRSYM    DATA     BYTE      SCON
      0000008FH   SFRSYM    DATA     BYTE      WAKE_CLKO
      000000C8H   SFRSYM    DATA     BIT       P50
      000000C0H.1 SFRSYM    DATA     BIT       P41
      000000B0H.2 SFRSYM    DATA     BIT       P32
      000000A0H.3 SFRSYM    DATA     BIT       P23
      00000090H.4 SFRSYM    DATA     BIT       P14
      00000080H.5 SFRSYM    DATA     BIT       P05
      00000089H   SFRSYM    DATA     BYTE      TMOD
      00000088H   SFRSYM    DATA     BYTE      TCON
      000000E8H   SFRSYM    DATA     BIT       P60
      000000C8H.1 SFRSYM    DATA     BIT       P51
      000000C0H.2 SFRSYM    DATA     BIT       P42
      000000B0H.3 SFRSYM    DATA     BIT       P33
      000000A0H.4 SFRSYM    DATA     BIT       P24
      00000090H.5 SFRSYM    DATA     BIT       P15
      00000080H.6 SFRSYM    DATA     BIT       P06
      000000C4H   SFRSYM    DATA     BYTE      ISP_ADDRL
      000000B8H.6 SFRSYM    DATA     BIT       PLVD
      000000F8H   SFRSYM    DATA     BIT       P70
      000000E8H.1 SFRSYM    DATA     BIT       P61
      000000C8H.2 SFRSYM    DATA     BIT       P52
      000000C0H.3 SFRSYM    DATA     BIT       P43
      000000B0H.4 SFRSYM    DATA     BIT       P34
      000000A0H.5 SFRSYM    DATA     BIT       P25
      00000090H.6 SFRSYM    DATA     BIT       P16
      00000080H.7 SFRSYM    DATA     BIT       P07
      000000F8H.1 SFRSYM    DATA     BIT       P71
      000000E8H.2 SFRSYM    DATA     BIT       P62
      000000C8H.3 SFRSYM    DATA     BIT       P53
      000000C0H.4 SFRSYM    DATA     BIT       P44
      000000B0H.5 SFRSYM    DATA     BIT       P35
      000000A0H.6 SFRSYM    DATA     BIT       P26
      00000090H.7 SFRSYM    DATA     BIT       P17
      000000F8H.2 SFRSYM    DATA     BIT       P72
      000000E8H.3 SFRSYM    DATA     BIT       P63
      000000C8H.4 SFRSYM    DATA     BIT       P54
      000000C0H.5 SFRSYM    DATA     BIT       P45
LX51 LINKER/LOCATER V4.66.1.0                                                         10/08/2016  19:44:16  PAGE 81


      000000B0H.6 SFRSYM    DATA     BIT       P36
      000000A0H.7 SFRSYM    DATA     BIT       P27
      000000F8H.3 SFRSYM    DATA     BIT       P73
      000000E8H.4 SFRSYM    DATA     BIT       P64
      000000C8H.5 SFRSYM    DATA     BIT       P55
      000000C0H.6 SFRSYM    DATA     BIT       P46
      000000B0H.7 SFRSYM    DATA     BIT       P37
      000000F8H.4 SFRSYM    DATA     BIT       P74
      000000E8H.5 SFRSYM    DATA     BIT       P65
      000000C8H.6 SFRSYM    DATA     BIT       P56
      000000C0H.7 SFRSYM    DATA     BIT       P47
      000000F8H.5 SFRSYM    DATA     BIT       P75
      000000E8H.6 SFRSYM    DATA     BIT       P66
      000000C8H.7 SFRSYM    DATA     BIT       P57
      000000F8H.6 SFRSYM    DATA     BIT       P76
      000000E8H.7 SFRSYM    DATA     BIT       P67
      000000F8H.7 SFRSYM    DATA     BIT       P77
      00000088H.1 SFRSYM    DATA     BIT       IE0
      000000A1H   SFRSYM    DATA     BYTE      BUS_SPEED
      00000088H.3 SFRSYM    DATA     BIT       IE1
      000000AFH   SFRSYM    DATA     BYTE      IE2
      000000F0H   SFRSYM    DATA     BYTE      B
      0000008EH   SFRSYM    DATA     BYTE      AUXR
      000000C7H   SFRSYM    DATA     BYTE      IAP_CONTR
      000000F1H   SFRSYM    DATA     BYTE      PWMCFG
      000000E0H   SFRSYM    DATA     BYTE      ACC
      000000A8H.1 SFRSYM    DATA     BIT       ET0
      000000A8H.3 SFRSYM    DATA     BIT       ET1
      00000088H.5 SFRSYM    DATA     BIT       TF0
      00000088H.7 SFRSYM    DATA     BIT       TF1
      000000B5H   SFRSYM    DATA     BYTE      IP2
      0000008CH   SFRSYM    DATA     BYTE      RL_TH0
      00000098H.2 SFRSYM    DATA     BIT       RB8
      0000008DH   SFRSYM    DATA     BYTE      RL_TH1
      0000008CH   SFRSYM    DATA     BYTE      TH0
      000000A8H   SFRSYM    DATA     BIT       EX0
      00000088H   SFRSYM    DATA     BIT       IT0
      000000D6H   SFRSYM    DATA     BYTE      RL_T2H
      0000008DH   SFRSYM    DATA     BYTE      TH1
      000000A8H.2 SFRSYM    DATA     BIT       EX1
      00000098H.3 SFRSYM    DATA     BIT       TB8
      00000088H.2 SFRSYM    DATA     BIT       IT1
      000000D4H   SFRSYM    DATA     BYTE      RL_T3H
      000000D6H   SFRSYM    DATA     BYTE      TH2
      000000D6H   SFRSYM    DATA     BYTE      T2H
      000000D0H   SFRSYM    DATA     BIT       P
      000000D2H   SFRSYM    DATA     BYTE      RL_T4H
      000000D4H   SFRSYM    DATA     BYTE      TH3
      000000D4H   SFRSYM    DATA     BYTE      T3H
      0000008AH   SFRSYM    DATA     BYTE      RL_TL0
      00000098H.7 SFRSYM    DATA     BIT       SM0
      000000D2H   SFRSYM    DATA     BYTE      TH4
      000000D2H   SFRSYM    DATA     BYTE      T4H
      0000008BH   SFRSYM    DATA     BYTE      RL_TL1
      0000008AH   SFRSYM    DATA     BYTE      TL0
      00000098H.6 SFRSYM    DATA     BIT       SM1
      000000D7H   SFRSYM    DATA     BYTE      RL_T2L
      0000008BH   SFRSYM    DATA     BYTE      TL1
      00000098H.5 SFRSYM    DATA     BIT       SM2
      000000D5H   SFRSYM    DATA     BYTE      RL_T3L
      000000D7H   SFRSYM    DATA     BYTE      TL2
      000000D7H   SFRSYM    DATA     BYTE      T2L
      000000D3H   SFRSYM    DATA     BYTE      RL_T4L
      000000D5H   SFRSYM    DATA     BYTE      TL3
      000000D5H   SFRSYM    DATA     BYTE      T3L
LX51 LINKER/LOCATER V4.66.1.0                                                         10/08/2016  19:44:16  PAGE 82


      000000B8H.1 SFRSYM    DATA     BIT       PT0
      000000D3H   SFRSYM    DATA     BYTE      TL4
      000000D3H   SFRSYM    DATA     BYTE      T4L
      000000B8H.3 SFRSYM    DATA     BIT       PT1
      000000D0H.3 SFRSYM    DATA     BIT       RS0
      000000C7H   SFRSYM    DATA     BYTE      ISP_CONTR
      00000088H.4 SFRSYM    DATA     BIT       TR0
      000000D0H.4 SFRSYM    DATA     BIT       RS1
      000000C2H   SFRSYM    DATA     BYTE      IAP_DATA
      00000088H.6 SFRSYM    DATA     BIT       TR1
      000000B8H   SFRSYM    DATA     BIT       PX0
      000000C1H   SFRSYM    DATA     BYTE      WDT_CONTR
      000000B8H.2 SFRSYM    DATA     BIT       PX1
      000000F2H   SFRSYM    DATA     BYTE      PCA_PWM0
      000000F3H   SFRSYM    DATA     BYTE      PCA_PWM1
      000000F4H   SFRSYM    DATA     BYTE      PCA_PWM2
      0000009DH   SFRSYM    DATA     BYTE      P1ASF
      00000083H   SFRSYM    DATA     BYTE      DPH
      000000D1H   SFRSYM    DATA     BYTE      T4T3M
      000000BEH   SFRSYM    DATA     BYTE      ADC_RESL
      00000082H   SFRSYM    DATA     BYTE      DPL
      000000CDH   SFRSYM    DATA     BYTE      SPSTAT
      000000B7H   SFRSYM    DATA     BYTE      IPH
      0000009BH   SFRSYM    DATA     BYTE      S2BUF
      00000097H   SFRSYM    DATA     BYTE      PCON2
      000000ADH   SFRSYM    DATA     BYTE      S3BUF
      00000098H.4 SFRSYM    DATA     BIT       REN
      00000085H   SFRSYM    DATA     BYTE      S4BUF
      0000009AH   SFRSYM    DATA     BYTE      S2CON
      000000ACH   SFRSYM    DATA     BYTE      S3CON
      000000C2H   SFRSYM    DATA     BYTE      ISP_DATA
      00000084H   SFRSYM    DATA     BYTE      S4CON
      000000B9H   SFRSYM    DATA     BYTE      SADEN
      000000B0H   SFRSYM    DATA     BIT       RXD
      000000A9H   SFRSYM    DATA     BYTE      SADDR
      000000B0H.1 SFRSYM    DATA     BIT       TXD
      000000F0H   SFRSYM    DATA     BIT       B0
      000000F0H.1 SFRSYM    DATA     BIT       B1
      000000C6H   SFRSYM    DATA     BYTE      IAP_TRIG
      000000A2H   SFRSYM    DATA     BYTE      AUXR1
      000000F0H.2 SFRSYM    DATA     BIT       B2
      00000090H.2 SFRSYM    DATA     BIT       SPI_SS
      0000008FH   SFRSYM    DATA     BYTE      AUXR2
      000000F0H.3 SFRSYM    DATA     BIT       B3
      000000F0H.4 SFRSYM    DATA     BIT       B4
      000000D0H.5 SFRSYM    DATA     BIT       F0
      000000F0H.5 SFRSYM    DATA     BIT       B5
      000000D0H.1 SFRSYM    DATA     BIT       F1
      0000008FH   SFRSYM    DATA     BYTE      INT_CLKO
      000000F0H.6 SFRSYM    DATA     BIT       B6
      000000E0H   SFRSYM    DATA     BIT       ACC0
      000000F0H.7 SFRSYM    DATA     BIT       B7
      000000E0H.1 SFRSYM    DATA     BIT       ACC1
      000000E0H.2 SFRSYM    DATA     BIT       ACC2
      000000E0H.3 SFRSYM    DATA     BIT       ACC3
      000000D0H   SFRSYM    DATA     BYTE      PSW
      000000E0H.4 SFRSYM    DATA     BIT       ACC4
      00000090H.5 SFRSYM    DATA     BIT       SPI_SCLK
      000000D8H   SFRSYM    DATA     BIT       CCF0
      000000E0H.5 SFRSYM    DATA     BIT       ACC5
      000000D8H.1 SFRSYM    DATA     BIT       CCF1
      000000E0H.6 SFRSYM    DATA     BIT       ACC6
      000000CFH   SFRSYM    DATA     BYTE      SPDAT
      00000094H   SFRSYM    DATA     BYTE      P0M0

LX51 LINKER/LOCATER V4.66.1.0                                                         10/08/2016  19:44:16  PAGE 83


      01002C90H   BLOCK     CODE     ---       LVL=0
      01002C90H   LINE      CODE     ---       #11
      01002C90H   LINE      CODE     ---       #12
      01002C92H   LINE      CODE     ---       #13
      01002C98H   LINE      CODE     ---       #14
      ---         BLOCKEND  ---      ---       LVL=0

      01002C99H   BLOCK     CODE     ---       LVL=0
      01002C99H   LINE      CODE     ---       #17
      01002C99H   LINE      CODE     ---       #18
      01002C9BH   LINE      CODE     ---       #19
      01002C9DH   LINE      CODE     ---       #20
      01002C9FH   LINE      CODE     ---       #21
      ---         BLOCKEND  ---      ---       LVL=0

      010027FEH   BLOCK     CODE     ---       LVL=0
      0200013AH   SYMBOL    XDATA    BYTE      power_level
      010027FEH   LINE      CODE     ---       #24
      01002803H   LINE      CODE     ---       #25
      01002803H   LINE      CODE     ---       #26
      01002806H   LINE      CODE     ---       #27
      01002808H   LINE      CODE     ---       #28
      01002808H   LINE      CODE     ---       #29
      01002811H   LINE      CODE     ---       #30
      01002813H   LINE      CODE     ---       #31
      01002813H   LINE      CODE     ---       #32
      0100281CH   LINE      CODE     ---       #33
      0100281EH   LINE      CODE     ---       #34
      0100281EH   LINE      CODE     ---       #35
      01002827H   LINE      CODE     ---       #36
      0100282EH   LINE      CODE     ---       #37
      01002830H   LINE      CODE     ---       #38
      01002838H   LINE      CODE     ---       #40
      0100283BH   LINE      CODE     ---       #41
      0100283DH   LINE      CODE     ---       #42
      01002843H   LINE      CODE     ---       #43
      01002843H   LINE      CODE     ---       #44
      ---         BLOCKEND  ---      ---       LVL=0

      01002C3DH   BLOCK     CODE     ---       LVL=0
      01002C3DH   LINE      CODE     ---       #46
      01002C3DH   LINE      CODE     ---       #47
      01002C3DH   LINE      CODE     ---       #48
      01002C40H   LINE      CODE     ---       #49
      01002C47H   LINE      CODE     ---       #51
      01002C4CH   LINE      CODE     ---       #52
      ---         BLOCKEND  ---      ---       LVL=0

      01002B9CH   BLOCK     CODE     ---       LVL=0
      01002B9CH   LINE      CODE     ---       #57
      01002BA2H   LINE      CODE     ---       #59
      01002BA5H   LINE      CODE     ---       #60
      01002BACH   LINE      CODE     ---       #61
      01002BACH   LINE      CODE     ---       #62
      ---         BLOCKEND  ---      ---       LVL=0

      ---         MODULE    ---      ---       LM567
      0100218FH   PUBLIC    CODE     ---       UART1_int
      01002C4DH   PUBLIC    CODE     ---       uart_process_recieved
      0100262EH   PUBLIC    CODE     ---       BLE_Init
      000000D8H.2 SFRSYM    DATA     BIT       CCF2
      000000E0H.7 SFRSYM    DATA     BIT       ACC7
      00000093H   SFRSYM    DATA     BYTE      P0M1
      00000092H   SFRSYM    DATA     BYTE      P1M0
      00000096H   SFRSYM    DATA     BYTE      P2M0
LX51 LINKER/LOCATER V4.66.1.0                                                         10/08/2016  19:44:16  PAGE 84


      00000091H   SFRSYM    DATA     BYTE      P1M1
      00000080H   SFRSYM    DATA     BYTE      P0
      000000B2H   SFRSYM    DATA     BYTE      P3M0
      00000095H   SFRSYM    DATA     BYTE      P2M1
      00000090H   SFRSYM    DATA     BYTE      P1
      000000B4H   SFRSYM    DATA     BYTE      P4M0
      000000B1H   SFRSYM    DATA     BYTE      P3M1
      000000A0H   SFRSYM    DATA     BYTE      P2
      000000CAH   SFRSYM    DATA     BYTE      P5M0
      000000B3H   SFRSYM    DATA     BYTE      P4M1
      000000B0H   SFRSYM    DATA     BYTE      P3
      000000ABH   SFRSYM    DATA     BYTE      WKTCH
      000000B0H.4 SFRSYM    DATA     BIT       T0
      000000D0H.6 SFRSYM    DATA     BIT       AC
      000000CCH   SFRSYM    DATA     BYTE      P6M0
      000000C9H   SFRSYM    DATA     BYTE      P5M1
      000000C0H   SFRSYM    DATA     BYTE      P4
      000000B0H.5 SFRSYM    DATA     BIT       CLKOUT0
      000000B0H.5 SFRSYM    DATA     BIT       T1
      000000F6H   SFRSYM    DATA     BYTE      PWMIF
      000000E2H   SFRSYM    DATA     BYTE      P7M0
      000000CBH   SFRSYM    DATA     BYTE      P6M1
      000000C8H   SFRSYM    DATA     BYTE      P5
      000000C6H   SFRSYM    DATA     BYTE      ISP_TRIG
      000000A8H.7 SFRSYM    DATA     BIT       EA
      000000B0H.4 SFRSYM    DATA     BIT       CLKOUT1
      000000A0H.4 SFRSYM    DATA     BIT       SPI_SS_2
      000000E8H   SFRSYM    DATA     BYTE      P6
      000000E1H   SFRSYM    DATA     BYTE      P7M1
      000000C8H.4 SFRSYM    DATA     BIT       SPI_SS_3
      00000090H.4 SFRSYM    DATA     BIT       SPI_MISO
      00000090H.3 SFRSYM    DATA     BIT       SPI_MOSI
      00000090H.1 SFRSYM    DATA     BIT       CCP0
      000000F8H   SFRSYM    DATA     BYTE      P7
      000000AAH   SFRSYM    DATA     BYTE      WKTCL
      00000090H   SFRSYM    DATA     BIT       CCP1
      000000CEH   SFRSYM    DATA     BYTE      SPCTL
      000000D8H.7 SFRSYM    DATA     BIT       CF
      000000B0H.7 SFRSYM    DATA     BIT       CCP2
      000000F9H   SFRSYM    DATA     BYTE      CH
      000000F5H   SFRSYM    DATA     BYTE      PWMCR
      000000A2H   SFRSYM    DATA     BYTE      P_SW1
      000000BAH   SFRSYM    DATA     BYTE      P_SW2
      000000A8H.5 SFRSYM    DATA     BIT       EADC
      000000A0H.1 SFRSYM    DATA     BIT       SPI_SCLK_2
      000000A8H   SFRSYM    DATA     BYTE      IE
      000000C0H.3 SFRSYM    DATA     BIT       SPI_SCLK_3
      000000E9H   SFRSYM    DATA     BYTE      CL
      000000C5H   SFRSYM    DATA     BYTE      IAP_CMD
      000000FAH   SFRSYM    DATA     BYTE      CCAP0H
      000000FBH   SFRSYM    DATA     BYTE      CCAP1H
      000000FCH   SFRSYM    DATA     BYTE      CCAP2H
      000000BDH   SFRSYM    DATA     BYTE      ADC_RES
      000000B6H   SFRSYM    DATA     BYTE      IPH2
      000000D8H.6 SFRSYM    DATA     BIT       CR
      000000EAH   SFRSYM    DATA     BYTE      CCAP0L
      000000B0H.7 SFRSYM    DATA     BIT       RD
      000000F7H   SFRSYM    DATA     BYTE      PWMFDCR
      000000EBH   SFRSYM    DATA     BYTE      CCAP1L
      000000DAH   SFRSYM    DATA     BYTE      CCAPM0
      000000ECH   SFRSYM    DATA     BYTE      CCAP2L
      000000DBH   SFRSYM    DATA     BYTE      CCAPM1
      000000A8H.4 SFRSYM    DATA     BIT       ES
      000000DCH   SFRSYM    DATA     BYTE      CCAPM2
      000000B8H.5 SFRSYM    DATA     BIT       PADC
LX51 LINKER/LOCATER V4.66.1.0                                                         10/08/2016  19:44:16  PAGE 85


      000000A0H.2 SFRSYM    DATA     BIT       SPI_MISO_2
      000000A0H.3 SFRSYM    DATA     BIT       SPI_MOSI_2
      000000B8H   SFRSYM    DATA     BYTE      IP
      000000C0H.1 SFRSYM    DATA     BIT       SPI_MISO_3
      000000C0H   SFRSYM    DATA     BIT       SPI_MOSI_3
      00000098H   SFRSYM    DATA     BIT       RI
      000000B0H.2 SFRSYM    DATA     BIT       INT0
      000000D0H.7 SFRSYM    DATA     BIT       CY
      00000098H.1 SFRSYM    DATA     BIT       TI
      000000B0H.3 SFRSYM    DATA     BIT       INT1
      00000097H   SFRSYM    DATA     BYTE      CLK_DIV
      000000C3H   SFRSYM    DATA     BYTE      IAP_ADDRH
      00000090H   SFRSYM    DATA     BIT       RXD2
      000000C5H   SFRSYM    DATA     BYTE      ISP_CMD
      000000B8H.4 SFRSYM    DATA     BIT       PS
      00000090H.1 SFRSYM    DATA     BIT       TXD2
      00000081H   SFRSYM    DATA     BYTE      SP
      000000D9H   SFRSYM    DATA     BYTE      CMOD
      000000D8H   SFRSYM    DATA     BYTE      CCON
      000000C4H   SFRSYM    DATA     BYTE      IAP_ADDRL
      000000B8H.7 SFRSYM    DATA     BIT       PPCA
      000000D0H.2 SFRSYM    DATA     BIT       OV
      000000B0H.7 SFRSYM    DATA     BIT       PWM2
      000000A0H.1 SFRSYM    DATA     BIT       PWM3
      000000E6H   SFRSYM    DATA     BYTE      CMPCR1
      000000B0H.6 SFRSYM    DATA     BIT       WR
      000000E7H   SFRSYM    DATA     BYTE      CMPCR2
      000000A0H.3 SFRSYM    DATA     BIT       PWM5
      00000090H.7 SFRSYM    DATA     BIT       PWM7
      000000A8H.6 SFRSYM    DATA     BIT       ELVD
      00000080H   SFRSYM    DATA     BIT       P00
      00000090H   SFRSYM    DATA     BIT       P10
      00000080H.1 SFRSYM    DATA     BIT       P01
      000000BCH   SFRSYM    DATA     BYTE      ADC_CONTR
      00000099H   SFRSYM    DATA     BYTE      SBUF
      00000087H   SFRSYM    DATA     BYTE      PCON
      000000A0H   SFRSYM    DATA     BIT       P20
      00000090H.1 SFRSYM    DATA     BIT       P11
      00000080H.2 SFRSYM    DATA     BIT       P02
      000000C3H   SFRSYM    DATA     BYTE      ISP_ADDRH
      000000B0H   SFRSYM    DATA     BIT       P30
      000000A0H.1 SFRSYM    DATA     BIT       P21
      00000090H.2 SFRSYM    DATA     BIT       P12
      00000080H.3 SFRSYM    DATA     BIT       P03
      000000C0H   SFRSYM    DATA     BIT       P40
      000000B0H.1 SFRSYM    DATA     BIT       P31
      000000A0H.2 SFRSYM    DATA     BIT       P22
      00000090H.3 SFRSYM    DATA     BIT       P13
      00000080H.4 SFRSYM    DATA     BIT       P04
      00000098H   SFRSYM    DATA     BYTE      SCON
      0000008FH   SFRSYM    DATA     BYTE      WAKE_CLKO
      000000C8H   SFRSYM    DATA     BIT       P50
      000000C0H.1 SFRSYM    DATA     BIT       P41
      000000B0H.2 SFRSYM    DATA     BIT       P32
      000000A0H.3 SFRSYM    DATA     BIT       P23
      00000090H.4 SFRSYM    DATA     BIT       P14
      00000080H.5 SFRSYM    DATA     BIT       P05
      00000089H   SFRSYM    DATA     BYTE      TMOD
      00000088H   SFRSYM    DATA     BYTE      TCON
      000000E8H   SFRSYM    DATA     BIT       P60
      000000C8H.1 SFRSYM    DATA     BIT       P51
      000000C0H.2 SFRSYM    DATA     BIT       P42
      000000B0H.3 SFRSYM    DATA     BIT       P33
      000000A0H.4 SFRSYM    DATA     BIT       P24
      00000090H.5 SFRSYM    DATA     BIT       P15
LX51 LINKER/LOCATER V4.66.1.0                                                         10/08/2016  19:44:16  PAGE 86


      00000080H.6 SFRSYM    DATA     BIT       P06
      000000C4H   SFRSYM    DATA     BYTE      ISP_ADDRL
      000000B8H.6 SFRSYM    DATA     BIT       PLVD
      000000F8H   SFRSYM    DATA     BIT       P70
      000000E8H.1 SFRSYM    DATA     BIT       P61
      000000C8H.2 SFRSYM    DATA     BIT       P52
      000000C0H.3 SFRSYM    DATA     BIT       P43
      000000B0H.4 SFRSYM    DATA     BIT       P34
      000000A0H.5 SFRSYM    DATA     BIT       P25
      00000090H.6 SFRSYM    DATA     BIT       P16
      00000080H.7 SFRSYM    DATA     BIT       P07
      000000F8H.1 SFRSYM    DATA     BIT       P71
      000000E8H.2 SFRSYM    DATA     BIT       P62
      000000C8H.3 SFRSYM    DATA     BIT       P53
      000000C0H.4 SFRSYM    DATA     BIT       P44
      000000B0H.5 SFRSYM    DATA     BIT       P35
      000000A0H.6 SFRSYM    DATA     BIT       P26
      00000090H.7 SFRSYM    DATA     BIT       P17
      000000F8H.2 SFRSYM    DATA     BIT       P72
      000000E8H.3 SFRSYM    DATA     BIT       P63
      000000C8H.4 SFRSYM    DATA     BIT       P54
      000000C0H.5 SFRSYM    DATA     BIT       P45
      000000B0H.6 SFRSYM    DATA     BIT       P36
      000000A0H.7 SFRSYM    DATA     BIT       P27
      000000F8H.3 SFRSYM    DATA     BIT       P73
      000000E8H.4 SFRSYM    DATA     BIT       P64
      000000C8H.5 SFRSYM    DATA     BIT       P55
      000000C0H.6 SFRSYM    DATA     BIT       P46
      000000B0H.7 SFRSYM    DATA     BIT       P37
      000000F8H.4 SFRSYM    DATA     BIT       P74
      000000E8H.5 SFRSYM    DATA     BIT       P65
      000000C8H.6 SFRSYM    DATA     BIT       P56
      000000C0H.7 SFRSYM    DATA     BIT       P47
      000000F8H.5 SFRSYM    DATA     BIT       P75
      000000E8H.6 SFRSYM    DATA     BIT       P66
      000000C8H.7 SFRSYM    DATA     BIT       P57
      000000F8H.6 SFRSYM    DATA     BIT       P76
      000000E8H.7 SFRSYM    DATA     BIT       P67
      000000F8H.7 SFRSYM    DATA     BIT       P77
      00000088H.1 SFRSYM    DATA     BIT       IE0
      000000A1H   SFRSYM    DATA     BYTE      BUS_SPEED
      00000088H.3 SFRSYM    DATA     BIT       IE1
      000000AFH   SFRSYM    DATA     BYTE      IE2
      000000F0H   SFRSYM    DATA     BYTE      B
      0000008EH   SFRSYM    DATA     BYTE      AUXR
      000000C7H   SFRSYM    DATA     BYTE      IAP_CONTR
      000000F1H   SFRSYM    DATA     BYTE      PWMCFG
      000000E0H   SFRSYM    DATA     BYTE      ACC
      000000A8H.1 SFRSYM    DATA     BIT       ET0
      000000A8H.3 SFRSYM    DATA     BIT       ET1
      00000088H.5 SFRSYM    DATA     BIT       TF0
      00000088H.7 SFRSYM    DATA     BIT       TF1
      000000B5H   SFRSYM    DATA     BYTE      IP2
      0000008CH   SFRSYM    DATA     BYTE      RL_TH0
      00000098H.2 SFRSYM    DATA     BIT       RB8
      0000008DH   SFRSYM    DATA     BYTE      RL_TH1
      0000008CH   SFRSYM    DATA     BYTE      TH0
      000000A8H   SFRSYM    DATA     BIT       EX0
      00000088H   SFRSYM    DATA     BIT       IT0
      000000D6H   SFRSYM    DATA     BYTE      RL_T2H
      0000008DH   SFRSYM    DATA     BYTE      TH1
      000000A8H.2 SFRSYM    DATA     BIT       EX1
      00000098H.3 SFRSYM    DATA     BIT       TB8
      00000088H.2 SFRSYM    DATA     BIT       IT1
      000000D4H   SFRSYM    DATA     BYTE      RL_T3H
LX51 LINKER/LOCATER V4.66.1.0                                                         10/08/2016  19:44:16  PAGE 87


      000000D6H   SFRSYM    DATA     BYTE      TH2
      000000D6H   SFRSYM    DATA     BYTE      T2H
      000000D0H   SFRSYM    DATA     BIT       P
      000000D2H   SFRSYM    DATA     BYTE      RL_T4H
      000000D4H   SFRSYM    DATA     BYTE      TH3
      000000D4H   SFRSYM    DATA     BYTE      T3H
      0000008AH   SFRSYM    DATA     BYTE      RL_TL0
      00000098H.7 SFRSYM    DATA     BIT       SM0
      000000D2H   SFRSYM    DATA     BYTE      TH4
      000000D2H   SFRSYM    DATA     BYTE      T4H
      0000008BH   SFRSYM    DATA     BYTE      RL_TL1
      0000008AH   SFRSYM    DATA     BYTE      TL0
      00000098H.6 SFRSYM    DATA     BIT       SM1
      000000D7H   SFRSYM    DATA     BYTE      RL_T2L
      0000008BH   SFRSYM    DATA     BYTE      TL1
      00000098H.5 SFRSYM    DATA     BIT       SM2
      000000D5H   SFRSYM    DATA     BYTE      RL_T3L
      000000D7H   SFRSYM    DATA     BYTE      TL2
      000000D7H   SFRSYM    DATA     BYTE      T2L
      000000D3H   SFRSYM    DATA     BYTE      RL_T4L
      000000D5H   SFRSYM    DATA     BYTE      TL3
      000000D5H   SFRSYM    DATA     BYTE      T3L
      000000B8H.1 SFRSYM    DATA     BIT       PT0
      000000D3H   SFRSYM    DATA     BYTE      TL4
      000000D3H   SFRSYM    DATA     BYTE      T4L
      000000B8H.3 SFRSYM    DATA     BIT       PT1
      000000D0H.3 SFRSYM    DATA     BIT       RS0
      000000C7H   SFRSYM    DATA     BYTE      ISP_CONTR
      00000088H.4 SFRSYM    DATA     BIT       TR0
      000000D0H.4 SFRSYM    DATA     BIT       RS1
      000000C2H   SFRSYM    DATA     BYTE      IAP_DATA
      00000088H.6 SFRSYM    DATA     BIT       TR1
      000000B8H   SFRSYM    DATA     BIT       PX0
      000000C1H   SFRSYM    DATA     BYTE      WDT_CONTR
      000000B8H.2 SFRSYM    DATA     BIT       PX1
      000000F2H   SFRSYM    DATA     BYTE      PCA_PWM0
      000000F3H   SFRSYM    DATA     BYTE      PCA_PWM1
      000000F4H   SFRSYM    DATA     BYTE      PCA_PWM2
      0000009DH   SFRSYM    DATA     BYTE      P1ASF
      00000083H   SFRSYM    DATA     BYTE      DPH
      000000D1H   SFRSYM    DATA     BYTE      T4T3M
      000000BEH   SFRSYM    DATA     BYTE      ADC_RESL
      00000082H   SFRSYM    DATA     BYTE      DPL
      000000CDH   SFRSYM    DATA     BYTE      SPSTAT
      000000B7H   SFRSYM    DATA     BYTE      IPH
      0000009BH   SFRSYM    DATA     BYTE      S2BUF
      00000097H   SFRSYM    DATA     BYTE      PCON2
      000000ADH   SFRSYM    DATA     BYTE      S3BUF
      00000098H.4 SFRSYM    DATA     BIT       REN
      00000085H   SFRSYM    DATA     BYTE      S4BUF
      0000009AH   SFRSYM    DATA     BYTE      S2CON
      000000ACH   SFRSYM    DATA     BYTE      S3CON
      000000C2H   SFRSYM    DATA     BYTE      ISP_DATA
      00000084H   SFRSYM    DATA     BYTE      S4CON
      000000B9H   SFRSYM    DATA     BYTE      SADEN
      000000B0H   SFRSYM    DATA     BIT       RXD
      000000A9H   SFRSYM    DATA     BYTE      SADDR
      000000B0H.1 SFRSYM    DATA     BIT       TXD
      000000F0H   SFRSYM    DATA     BIT       B0
      000000F0H.1 SFRSYM    DATA     BIT       B1
      000000C6H   SFRSYM    DATA     BYTE      IAP_TRIG
      000000A2H   SFRSYM    DATA     BYTE      AUXR1
      000000F0H.2 SFRSYM    DATA     BIT       B2
      00000090H.2 SFRSYM    DATA     BIT       SPI_SS
      0000008FH   SFRSYM    DATA     BYTE      AUXR2
LX51 LINKER/LOCATER V4.66.1.0                                                         10/08/2016  19:44:16  PAGE 88


      000000F0H.3 SFRSYM    DATA     BIT       B3
      000000F0H.4 SFRSYM    DATA     BIT       B4
      000000D0H.5 SFRSYM    DATA     BIT       F0
      000000F0H.5 SFRSYM    DATA     BIT       B5
      000000D0H.1 SFRSYM    DATA     BIT       F1
      0000008FH   SFRSYM    DATA     BYTE      INT_CLKO
      000000F0H.6 SFRSYM    DATA     BIT       B6
      000000E0H   SFRSYM    DATA     BIT       ACC0
      000000F0H.7 SFRSYM    DATA     BIT       B7
      000000E0H.1 SFRSYM    DATA     BIT       ACC1
      000000E0H.2 SFRSYM    DATA     BIT       ACC2
      000000E0H.3 SFRSYM    DATA     BIT       ACC3
      000000D0H   SFRSYM    DATA     BYTE      PSW
      000000E0H.4 SFRSYM    DATA     BIT       ACC4
      00000090H.5 SFRSYM    DATA     BIT       SPI_SCLK
      000000D8H   SFRSYM    DATA     BIT       CCF0
      000000E0H.5 SFRSYM    DATA     BIT       ACC5
      000000D8H.1 SFRSYM    DATA     BIT       CCF1
      000000E0H.6 SFRSYM    DATA     BIT       ACC6
      000000CFH   SFRSYM    DATA     BYTE      SPDAT
      00000094H   SFRSYM    DATA     BYTE      P0M0
      02000072H   SYMBOL    XDATA    ---       RX1_Buffer
      02000092H   SYMBOL    XDATA    ---       TX1_Buffer
      01002427H   SYMBOL    CODE     ---       _GetString1
      01001A83H   SYMBOL    CODE     ---       _uart_dispatch_gp228_cmd
      00000007H   SYMBOL    DATA     BYTE      dat

      01002427H   BLOCK     CODE     ---       LVL=0
      02000138H   SYMBOL    XDATA    ---       received
      01002427H   LINE      CODE     ---       #39
      01002432H   LINE      CODE     ---       #40
      01002438H   LINE      CODE     ---       #41
      01002454H   LINE      CODE     ---       #42
      0100246CH   LINE      CODE     ---       #43
      0100247BH   LINE      CODE     ---       #44
      01002480H   LINE      CODE     ---       #45
      01002484H   LINE      CODE     ---       #46
      ---         BLOCKEND  ---      ---       LVL=0
      00000001H   SYMBOL    DATA     ---       puts

      0100262EH   BLOCK     CODE     ---       LVL=0
      0100262EH   LINE      CODE     ---       #55
      0100262EH   LINE      CODE     ---       #58
      0100263DH   LINE      CODE     ---       #59
      0100264CH   LINE      CODE     ---       #60
      01002653H   LINE      CODE     ---       #63
      0100265BH   LINE      CODE     ---       #64
      0100265EH   LINE      CODE     ---       #67
      01002660H   LINE      CODE     ---       #70
      01002663H   LINE      CODE     ---       #71
      0100266BH   LINE      CODE     ---       #72
      01002671H   LINE      CODE     ---       #73
      01002677H   LINE      CODE     ---       #78
      0100267AH   LINE      CODE     ---       #81
      ---         BLOCKEND  ---      ---       LVL=0

      01001A83H   BLOCK     CODE     ---       LVL=0
      02000138H   SYMBOL    XDATA    ---       cmd
      01001A83H   LINE      CODE     ---       #88
      01001A8BH   LINE      CODE     ---       #95
      01001A94H   LINE      CODE     ---       #96
      01001AB7H   LINE      CODE     ---       #97
      01001AC7H   LINE      CODE     ---       #98
      01001ACFH   LINE      CODE     ---       #99
      01001AD2H   LINE      CODE     ---       #100
LX51 LINKER/LOCATER V4.66.1.0                                                         10/08/2016  19:44:16  PAGE 89


      01001AE2H   LINE      CODE     ---       #101
      01001AEBH   LINE      CODE     ---       #102
      01001AFAH   LINE      CODE     ---       #103
      01001B02H   LINE      CODE     ---       #104
      01001B12H   LINE      CODE     ---       #106
      01001B29H   LINE      CODE     ---       #107
      01001B39H   LINE      CODE     ---       #108
      01001B50H   LINE      CODE     ---       #109
      01001B50H   LINE      CODE     ---       #110
      ---         BLOCKEND  ---      ---       LVL=0

      01002C4DH   BLOCK     CODE     ---       LVL=0
      01002C4DH   BLOCK     CODE     NEAR LAB  LVL=1
      02000118H   SYMBOL    XDATA    ---       received
      ---         BLOCKEND  ---      ---       LVL=1
      01002C4DH   LINE      CODE     ---       #113
      01002C4DH   LINE      CODE     ---       #115
      01002C56H   LINE      CODE     ---       #116
      ---         BLOCKEND  ---      ---       LVL=0

      0100218FH   BLOCK     CODE     ---       LVL=0
      0100218FH   LINE      CODE     ---       #121
      0100219CH   LINE      CODE     ---       #123
      0100219FH   LINE      CODE     ---       #124
      0100219FH   LINE      CODE     ---       #125
      010021A1H   LINE      CODE     ---       #128
      010021A7H   LINE      CODE     ---       #129
      010021A7H   LINE      CODE     ---       #130
      010021B0H   LINE      CODE     ---       #131
      010021B2H   LINE      CODE     ---       #132
      010021C6H   LINE      CODE     ---       #133
      010021CCH   LINE      CODE     ---       #134
      010021CCH   LINE      CODE     ---       #137
      010021CCH   LINE      CODE     ---       #140
      010021CFH   LINE      CODE     ---       #141
      010021CFH   LINE      CODE     ---       #142
      010021D1H   LINE      CODE     ---       #143
      010021DDH   LINE      CODE     ---       #144
      010021DDH   LINE      CODE     ---       #145
      010021EAH   LINE      CODE     ---       #146
      010021F5H   LINE      CODE     ---       #147
      010021F7H   LINE      CODE     ---       #148
      010021F9H   LINE      CODE     ---       #150
      010021FEH   LINE      CODE     ---       #151
      010021FEH   LINE      CODE     ---       #152
      ---         BLOCKEND  ---      ---       LVL=0

      ---         MODULE    ---      ---       USART
      020000D2H   PUBLIC    XDATA    ---       COM1
      01002534H   PUBLIC    CODE     ---       _USART_RX_Block
      010029CAH   PUBLIC    CODE     ---       _USART_Init
      01002B37H   PUBLIC    CODE     ---       USART_Share_Timer2
      000000D8H.2 SFRSYM    DATA     BIT       CCF2
      000000E0H.7 SFRSYM    DATA     BIT       ACC7
      00000093H   SFRSYM    DATA     BYTE      P0M1
      00000092H   SFRSYM    DATA     BYTE      P1M0
      00000096H   SFRSYM    DATA     BYTE      P2M0
      00000091H   SFRSYM    DATA     BYTE      P1M1
      00000080H   SFRSYM    DATA     BYTE      P0
      000000B2H   SFRSYM    DATA     BYTE      P3M0
      00000095H   SFRSYM    DATA     BYTE      P2M1
      00000090H   SFRSYM    DATA     BYTE      P1
      000000B4H   SFRSYM    DATA     BYTE      P4M0
      000000B1H   SFRSYM    DATA     BYTE      P3M1
      000000A0H   SFRSYM    DATA     BYTE      P2
LX51 LINKER/LOCATER V4.66.1.0                                                         10/08/2016  19:44:16  PAGE 90


      000000CAH   SFRSYM    DATA     BYTE      P5M0
      000000B3H   SFRSYM    DATA     BYTE      P4M1
      000000B0H   SFRSYM    DATA     BYTE      P3
      000000ABH   SFRSYM    DATA     BYTE      WKTCH
      000000B0H.4 SFRSYM    DATA     BIT       T0
      000000D0H.6 SFRSYM    DATA     BIT       AC
      000000CCH   SFRSYM    DATA     BYTE      P6M0
      000000C9H   SFRSYM    DATA     BYTE      P5M1
      000000C0H   SFRSYM    DATA     BYTE      P4
      000000B0H.5 SFRSYM    DATA     BIT       CLKOUT0
      000000B0H.5 SFRSYM    DATA     BIT       T1
      000000F6H   SFRSYM    DATA     BYTE      PWMIF
      000000E2H   SFRSYM    DATA     BYTE      P7M0
      000000CBH   SFRSYM    DATA     BYTE      P6M1
      000000C8H   SFRSYM    DATA     BYTE      P5
      000000C6H   SFRSYM    DATA     BYTE      ISP_TRIG
      000000A8H.7 SFRSYM    DATA     BIT       EA
      000000B0H.4 SFRSYM    DATA     BIT       CLKOUT1
      000000A0H.4 SFRSYM    DATA     BIT       SPI_SS_2
      000000E8H   SFRSYM    DATA     BYTE      P6
      000000E1H   SFRSYM    DATA     BYTE      P7M1
      000000C8H.4 SFRSYM    DATA     BIT       SPI_SS_3
      00000090H.4 SFRSYM    DATA     BIT       SPI_MISO
      00000090H.3 SFRSYM    DATA     BIT       SPI_MOSI
      00000090H.1 SFRSYM    DATA     BIT       CCP0
      000000F8H   SFRSYM    DATA     BYTE      P7
      000000AAH   SFRSYM    DATA     BYTE      WKTCL
      00000090H   SFRSYM    DATA     BIT       CCP1
      000000CEH   SFRSYM    DATA     BYTE      SPCTL
      000000D8H.7 SFRSYM    DATA     BIT       CF
      000000B0H.7 SFRSYM    DATA     BIT       CCP2
      000000F9H   SFRSYM    DATA     BYTE      CH
      000000F5H   SFRSYM    DATA     BYTE      PWMCR
      000000A2H   SFRSYM    DATA     BYTE      P_SW1
      000000BAH   SFRSYM    DATA     BYTE      P_SW2
      000000A8H.5 SFRSYM    DATA     BIT       EADC
      000000A0H.1 SFRSYM    DATA     BIT       SPI_SCLK_2
      000000A8H   SFRSYM    DATA     BYTE      IE
      000000C0H.3 SFRSYM    DATA     BIT       SPI_SCLK_3
      000000E9H   SFRSYM    DATA     BYTE      CL
      000000C5H   SFRSYM    DATA     BYTE      IAP_CMD
      000000FAH   SFRSYM    DATA     BYTE      CCAP0H
      000000FBH   SFRSYM    DATA     BYTE      CCAP1H
      000000FCH   SFRSYM    DATA     BYTE      CCAP2H
      000000BDH   SFRSYM    DATA     BYTE      ADC_RES
      000000B6H   SFRSYM    DATA     BYTE      IPH2
      000000D8H.6 SFRSYM    DATA     BIT       CR
      000000EAH   SFRSYM    DATA     BYTE      CCAP0L
      000000B0H.7 SFRSYM    DATA     BIT       RD
      000000F7H   SFRSYM    DATA     BYTE      PWMFDCR
      000000EBH   SFRSYM    DATA     BYTE      CCAP1L
      000000DAH   SFRSYM    DATA     BYTE      CCAPM0
      000000ECH   SFRSYM    DATA     BYTE      CCAP2L
      000000DBH   SFRSYM    DATA     BYTE      CCAPM1
      000000A8H.4 SFRSYM    DATA     BIT       ES
      000000DCH   SFRSYM    DATA     BYTE      CCAPM2
      000000B8H.5 SFRSYM    DATA     BIT       PADC
      000000A0H.2 SFRSYM    DATA     BIT       SPI_MISO_2
      000000A0H.3 SFRSYM    DATA     BIT       SPI_MOSI_2
      000000B8H   SFRSYM    DATA     BYTE      IP
      000000C0H.1 SFRSYM    DATA     BIT       SPI_MISO_3
      000000C0H   SFRSYM    DATA     BIT       SPI_MOSI_3
      00000098H   SFRSYM    DATA     BIT       RI
      000000B0H.2 SFRSYM    DATA     BIT       INT0
      000000D0H.7 SFRSYM    DATA     BIT       CY
LX51 LINKER/LOCATER V4.66.1.0                                                         10/08/2016  19:44:16  PAGE 91


      00000098H.1 SFRSYM    DATA     BIT       TI
      000000B0H.3 SFRSYM    DATA     BIT       INT1
      00000097H   SFRSYM    DATA     BYTE      CLK_DIV
      000000C3H   SFRSYM    DATA     BYTE      IAP_ADDRH
      00000090H   SFRSYM    DATA     BIT       RXD2
      000000C5H   SFRSYM    DATA     BYTE      ISP_CMD
      000000B8H.4 SFRSYM    DATA     BIT       PS
      00000090H.1 SFRSYM    DATA     BIT       TXD2
      00000081H   SFRSYM    DATA     BYTE      SP
      000000D9H   SFRSYM    DATA     BYTE      CMOD
      000000D8H   SFRSYM    DATA     BYTE      CCON
      000000C4H   SFRSYM    DATA     BYTE      IAP_ADDRL
      000000B8H.7 SFRSYM    DATA     BIT       PPCA
      000000D0H.2 SFRSYM    DATA     BIT       OV
      000000B0H.7 SFRSYM    DATA     BIT       PWM2
      000000A0H.1 SFRSYM    DATA     BIT       PWM3
      000000E6H   SFRSYM    DATA     BYTE      CMPCR1
      000000B0H.6 SFRSYM    DATA     BIT       WR
      000000E7H   SFRSYM    DATA     BYTE      CMPCR2
      000000A0H.3 SFRSYM    DATA     BIT       PWM5
      00000090H.7 SFRSYM    DATA     BIT       PWM7
      000000A8H.6 SFRSYM    DATA     BIT       ELVD
      00000080H   SFRSYM    DATA     BIT       P00
      00000090H   SFRSYM    DATA     BIT       P10
      00000080H.1 SFRSYM    DATA     BIT       P01
      000000BCH   SFRSYM    DATA     BYTE      ADC_CONTR
      00000099H   SFRSYM    DATA     BYTE      SBUF
      00000087H   SFRSYM    DATA     BYTE      PCON
      000000A0H   SFRSYM    DATA     BIT       P20
      00000090H.1 SFRSYM    DATA     BIT       P11
      00000080H.2 SFRSYM    DATA     BIT       P02
      000000C3H   SFRSYM    DATA     BYTE      ISP_ADDRH
      000000B0H   SFRSYM    DATA     BIT       P30
      000000A0H.1 SFRSYM    DATA     BIT       P21
      00000090H.2 SFRSYM    DATA     BIT       P12
      00000080H.3 SFRSYM    DATA     BIT       P03
      000000C0H   SFRSYM    DATA     BIT       P40
      000000B0H.1 SFRSYM    DATA     BIT       P31
      000000A0H.2 SFRSYM    DATA     BIT       P22
      00000090H.3 SFRSYM    DATA     BIT       P13
      00000080H.4 SFRSYM    DATA     BIT       P04
      00000098H   SFRSYM    DATA     BYTE      SCON
      0000008FH   SFRSYM    DATA     BYTE      WAKE_CLKO
      000000C8H   SFRSYM    DATA     BIT       P50
      000000C0H.1 SFRSYM    DATA     BIT       P41
      000000B0H.2 SFRSYM    DATA     BIT       P32
      000000A0H.3 SFRSYM    DATA     BIT       P23
      00000090H.4 SFRSYM    DATA     BIT       P14
      00000080H.5 SFRSYM    DATA     BIT       P05
      00000089H   SFRSYM    DATA     BYTE      TMOD
      00000088H   SFRSYM    DATA     BYTE      TCON
      000000E8H   SFRSYM    DATA     BIT       P60
      000000C8H.1 SFRSYM    DATA     BIT       P51
      000000C0H.2 SFRSYM    DATA     BIT       P42
      000000B0H.3 SFRSYM    DATA     BIT       P33
      000000A0H.4 SFRSYM    DATA     BIT       P24
      00000090H.5 SFRSYM    DATA     BIT       P15
      00000080H.6 SFRSYM    DATA     BIT       P06
      000000C4H   SFRSYM    DATA     BYTE      ISP_ADDRL
      000000B8H.6 SFRSYM    DATA     BIT       PLVD
      000000F8H   SFRSYM    DATA     BIT       P70
      000000E8H.1 SFRSYM    DATA     BIT       P61
      000000C8H.2 SFRSYM    DATA     BIT       P52
      000000C0H.3 SFRSYM    DATA     BIT       P43
      000000B0H.4 SFRSYM    DATA     BIT       P34
LX51 LINKER/LOCATER V4.66.1.0                                                         10/08/2016  19:44:16  PAGE 92


      000000A0H.5 SFRSYM    DATA     BIT       P25
      00000090H.6 SFRSYM    DATA     BIT       P16
      00000080H.7 SFRSYM    DATA     BIT       P07
      000000F8H.1 SFRSYM    DATA     BIT       P71
      000000E8H.2 SFRSYM    DATA     BIT       P62
      000000C8H.3 SFRSYM    DATA     BIT       P53
      000000C0H.4 SFRSYM    DATA     BIT       P44
      000000B0H.5 SFRSYM    DATA     BIT       P35
      000000A0H.6 SFRSYM    DATA     BIT       P26
      00000090H.7 SFRSYM    DATA     BIT       P17
      000000F8H.2 SFRSYM    DATA     BIT       P72
      000000E8H.3 SFRSYM    DATA     BIT       P63
      000000C8H.4 SFRSYM    DATA     BIT       P54
      000000C0H.5 SFRSYM    DATA     BIT       P45
      000000B0H.6 SFRSYM    DATA     BIT       P36
      000000A0H.7 SFRSYM    DATA     BIT       P27
      000000F8H.3 SFRSYM    DATA     BIT       P73
      000000E8H.4 SFRSYM    DATA     BIT       P64
      000000C8H.5 SFRSYM    DATA     BIT       P55
      000000C0H.6 SFRSYM    DATA     BIT       P46
      000000B0H.7 SFRSYM    DATA     BIT       P37
      000000F8H.4 SFRSYM    DATA     BIT       P74
      000000E8H.5 SFRSYM    DATA     BIT       P65
      000000C8H.6 SFRSYM    DATA     BIT       P56
      000000C0H.7 SFRSYM    DATA     BIT       P47
      000000F8H.5 SFRSYM    DATA     BIT       P75
      000000E8H.6 SFRSYM    DATA     BIT       P66
      000000C8H.7 SFRSYM    DATA     BIT       P57
      000000F8H.6 SFRSYM    DATA     BIT       P76
      000000E8H.7 SFRSYM    DATA     BIT       P67
      000000F8H.7 SFRSYM    DATA     BIT       P77
      00000088H.1 SFRSYM    DATA     BIT       IE0
      000000A1H   SFRSYM    DATA     BYTE      BUS_SPEED
      00000088H.3 SFRSYM    DATA     BIT       IE1
      000000AFH   SFRSYM    DATA     BYTE      IE2
      000000F0H   SFRSYM    DATA     BYTE      B
      0000008EH   SFRSYM    DATA     BYTE      AUXR
      000000C7H   SFRSYM    DATA     BYTE      IAP_CONTR
      000000F1H   SFRSYM    DATA     BYTE      PWMCFG
      000000E0H   SFRSYM    DATA     BYTE      ACC
      000000A8H.1 SFRSYM    DATA     BIT       ET0
      000000A8H.3 SFRSYM    DATA     BIT       ET1
      00000088H.5 SFRSYM    DATA     BIT       TF0
      00000088H.7 SFRSYM    DATA     BIT       TF1
      000000B5H   SFRSYM    DATA     BYTE      IP2
      0000008CH   SFRSYM    DATA     BYTE      RL_TH0
      00000098H.2 SFRSYM    DATA     BIT       RB8
      0000008DH   SFRSYM    DATA     BYTE      RL_TH1
      0000008CH   SFRSYM    DATA     BYTE      TH0
      000000A8H   SFRSYM    DATA     BIT       EX0
      00000088H   SFRSYM    DATA     BIT       IT0
      000000D6H   SFRSYM    DATA     BYTE      RL_T2H
      0000008DH   SFRSYM    DATA     BYTE      TH1
      000000A8H.2 SFRSYM    DATA     BIT       EX1
      00000098H.3 SFRSYM    DATA     BIT       TB8
      00000088H.2 SFRSYM    DATA     BIT       IT1
      000000D4H   SFRSYM    DATA     BYTE      RL_T3H
      000000D6H   SFRSYM    DATA     BYTE      TH2
      000000D6H   SFRSYM    DATA     BYTE      T2H
      000000D0H   SFRSYM    DATA     BIT       P
      000000D2H   SFRSYM    DATA     BYTE      RL_T4H
      000000D4H   SFRSYM    DATA     BYTE      TH3
      000000D4H   SFRSYM    DATA     BYTE      T3H
      0000008AH   SFRSYM    DATA     BYTE      RL_TL0
      00000098H.7 SFRSYM    DATA     BIT       SM0
LX51 LINKER/LOCATER V4.66.1.0                                                         10/08/2016  19:44:16  PAGE 93


      000000D2H   SFRSYM    DATA     BYTE      TH4
      000000D2H   SFRSYM    DATA     BYTE      T4H
      0000008BH   SFRSYM    DATA     BYTE      RL_TL1
      0000008AH   SFRSYM    DATA     BYTE      TL0
      00000098H.6 SFRSYM    DATA     BIT       SM1
      000000D7H   SFRSYM    DATA     BYTE      RL_T2L
      0000008BH   SFRSYM    DATA     BYTE      TL1
      00000098H.5 SFRSYM    DATA     BIT       SM2
      000000D5H   SFRSYM    DATA     BYTE      RL_T3L
      000000D7H   SFRSYM    DATA     BYTE      TL2
      000000D7H   SFRSYM    DATA     BYTE      T2L
      000000D3H   SFRSYM    DATA     BYTE      RL_T4L
      000000D5H   SFRSYM    DATA     BYTE      TL3
      000000D5H   SFRSYM    DATA     BYTE      T3L
      000000B8H.1 SFRSYM    DATA     BIT       PT0
      000000D3H   SFRSYM    DATA     BYTE      TL4
      000000D3H   SFRSYM    DATA     BYTE      T4L
      000000B8H.3 SFRSYM    DATA     BIT       PT1
      000000D0H.3 SFRSYM    DATA     BIT       RS0
      000000C7H   SFRSYM    DATA     BYTE      ISP_CONTR
      00000088H.4 SFRSYM    DATA     BIT       TR0
      000000D0H.4 SFRSYM    DATA     BIT       RS1
      000000C2H   SFRSYM    DATA     BYTE      IAP_DATA
      00000088H.6 SFRSYM    DATA     BIT       TR1
      000000B8H   SFRSYM    DATA     BIT       PX0
      000000C1H   SFRSYM    DATA     BYTE      WDT_CONTR
      000000B8H.2 SFRSYM    DATA     BIT       PX1
      000000F2H   SFRSYM    DATA     BYTE      PCA_PWM0
      000000F3H   SFRSYM    DATA     BYTE      PCA_PWM1
      000000F4H   SFRSYM    DATA     BYTE      PCA_PWM2
      0000009DH   SFRSYM    DATA     BYTE      P1ASF
      00000083H   SFRSYM    DATA     BYTE      DPH
      000000D1H   SFRSYM    DATA     BYTE      T4T3M
      000000BEH   SFRSYM    DATA     BYTE      ADC_RESL
      00000082H   SFRSYM    DATA     BYTE      DPL
      000000CDH   SFRSYM    DATA     BYTE      SPSTAT
      000000B7H   SFRSYM    DATA     BYTE      IPH
      0000009BH   SFRSYM    DATA     BYTE      S2BUF
      00000097H   SFRSYM    DATA     BYTE      PCON2
      000000ADH   SFRSYM    DATA     BYTE      S3BUF
      00000098H.4 SFRSYM    DATA     BIT       REN
      00000085H   SFRSYM    DATA     BYTE      S4BUF
      0000009AH   SFRSYM    DATA     BYTE      S2CON
      000000ACH   SFRSYM    DATA     BYTE      S3CON
      000000C2H   SFRSYM    DATA     BYTE      ISP_DATA
      00000084H   SFRSYM    DATA     BYTE      S4CON
      000000B9H   SFRSYM    DATA     BYTE      SADEN
      000000B0H   SFRSYM    DATA     BIT       RXD
      000000A9H   SFRSYM    DATA     BYTE      SADDR
      000000B0H.1 SFRSYM    DATA     BIT       TXD
      000000F0H   SFRSYM    DATA     BIT       B0
      000000F0H.1 SFRSYM    DATA     BIT       B1
      000000C6H   SFRSYM    DATA     BYTE      IAP_TRIG
      000000A2H   SFRSYM    DATA     BYTE      AUXR1
      000000F0H.2 SFRSYM    DATA     BIT       B2
      00000090H.2 SFRSYM    DATA     BIT       SPI_SS
      0000008FH   SFRSYM    DATA     BYTE      AUXR2
      000000F0H.3 SFRSYM    DATA     BIT       B3
      000000F0H.4 SFRSYM    DATA     BIT       B4
      000000D0H.5 SFRSYM    DATA     BIT       F0
      000000F0H.5 SFRSYM    DATA     BIT       B5
      000000D0H.1 SFRSYM    DATA     BIT       F1
      0000008FH   SFRSYM    DATA     BYTE      INT_CLKO
      000000F0H.6 SFRSYM    DATA     BIT       B6
      000000E0H   SFRSYM    DATA     BIT       ACC0
LX51 LINKER/LOCATER V4.66.1.0                                                         10/08/2016  19:44:16  PAGE 94


      000000F0H.7 SFRSYM    DATA     BIT       B7
      000000E0H.1 SFRSYM    DATA     BIT       ACC1
      000000E0H.2 SFRSYM    DATA     BIT       ACC2
      000000E0H.3 SFRSYM    DATA     BIT       ACC3
      000000D0H   SFRSYM    DATA     BYTE      PSW
      000000E0H.4 SFRSYM    DATA     BIT       ACC4
      00000090H.5 SFRSYM    DATA     BIT       SPI_SCLK
      000000D8H   SFRSYM    DATA     BIT       CCF0
      000000E0H.5 SFRSYM    DATA     BIT       ACC5
      000000D8H.1 SFRSYM    DATA     BIT       CCF1
      000000E0H.6 SFRSYM    DATA     BIT       ACC6
      000000CFH   SFRSYM    DATA     BYTE      SPDAT
      00000094H   SFRSYM    DATA     BYTE      P0M0
      020000D8H   SYMBOL    XDATA    ---       TX1_Buffer
      00000020H.4 SYMBOL    BIT      BIT       share_timer2_init_finish

      01002B37H   BLOCK     CODE     ---       LVL=0
      01002B37H   LINE      CODE     ---       #8
      01002B37H   LINE      CODE     ---       #9
      01002B3AH   LINE      CODE     ---       #10
      01002B3AH   LINE      CODE     ---       #11
      01002B3DH   LINE      CODE     ---       #13
      01002B40H   LINE      CODE     ---       #14
      01002B43H   LINE      CODE     ---       #15
      01002B46H   LINE      CODE     ---       #16
      01002B49H   LINE      CODE     ---       #17
      01002B4CH   LINE      CODE     ---       #19
      01002B4FH   LINE      CODE     ---       #21
      01002B51H   LINE      CODE     ---       #22
      01002B51H   LINE      CODE     ---       #23
      ---         BLOCKEND  ---      ---       LVL=0

      010029CAH   BLOCK     CODE     ---       LVL=0
      00000006H   SYMBOL    DATA     ---       com
      010029CAH   LINE      CODE     ---       #25
      010029CAH   LINE      CODE     ---       #26
      010029D0H   LINE      CODE     ---       #27
      010029D2H   LINE      CODE     ---       #28
      010029D9H   LINE      CODE     ---       #29
      010029E1H   LINE      CODE     ---       #30
      010029ECH   LINE      CODE     ---       #31
      010029F7H   LINE      CODE     ---       #32
      ---         BLOCKEND  ---      ---       LVL=0

      01002534H   BLOCK     CODE     ---       LVL=0
      00000006H   SYMBOL    DATA     ---       com
      01002534H   LINE      CODE     ---       #35
      01002534H   LINE      CODE     ---       #36
      0100253EH   LINE      CODE     ---       #37
      01002540H   LINE      CODE     ---       #39
      0100255AH   LINE      CODE     ---       #40
      01002566H   LINE      CODE     ---       #42
      01002572H   LINE      CODE     ---       #43
      0100257EH   LINE      CODE     ---       #45
      0100258AH   LINE      CODE     ---       #46
      ---         BLOCKEND  ---      ---       LVL=0
      00000006H   SYMBOL    DATA     ---       com

      ---         MODULE    ---      ---       ?C_INIT
      01001F3BH   PUBLIC    CODE     ---       ?C_START

      ---         MODULE    ---      ---       ?C?COPY
      01000CADH   PUBLIC    CODE     ---       ?C?COPY

      ---         MODULE    ---      ---       ?C?CLDPTR
LX51 LINKER/LOCATER V4.66.1.0                                                         10/08/2016  19:44:16  PAGE 95


      01000CD3H   PUBLIC    CODE     ---       ?C?CLDPTR

      ---         MODULE    ---      ---       ?C?CLDOPTR
      01000CECH   PUBLIC    CODE     ---       ?C?CLDOPTR

      ---         MODULE    ---      ---       ?C?CSTOPTR
      01000D19H   PUBLIC    CODE     ---       ?C?CSTOPTR

      ---         MODULE    ---      ---       ?C?IMUL
      01000D3BH   PUBLIC    CODE     ---       ?C?IMUL

      ---         MODULE    ---      ---       ?C?ILDIX
      01000D4DH   PUBLIC    CODE     ---       ?C?ILDIX

      ---         MODULE    ---      ---       ?C?ILDOPTR
      01000D63H   PUBLIC    CODE     ---       ?C?ILDOPTR

      ---         MODULE    ---      ---       ?C?SLDIV
      01002889H   PUBLIC    CODE     ---       ?C?SLDIV

      ---         MODULE    ---      ---       ?C?SLCMP
      01000D9BH   PUBLIC    CODE     ---       ?C?SLCMP

      ---         MODULE    ---      ---       ?C?ICALL
      01000DB1H   PUBLIC    CODE     ---       ?C?ICALL
      01000DB5H   PUBLIC    CODE     ---       ?C?ICALL2

      ---         MODULE    ---      ---       ?C?MEMSET
      01000DB7H   PUBLIC    CODE     ---       ?C?MEMSET

      ---         MODULE    ---      ---       ?C?ULDIV
      01000E1FH   PUBLIC    CODE     ---       ?C?ULDIV

Program Size: data=17.6 xdata=365 const=487 code=11479
LX51 RUN COMPLETE.  0 WARNING(S),  0 ERROR(S)
